
build/.img/boot/kernel.bin:     file format elf64-x86-64


Disassembly of section .text:

0000000000101730 <start>:
  101730:	bc 40 b0 10 00       	mov    $0x10b040,%esp
  101735:	e8 48 00 00 00       	call   101782 <check_multiboot>
  10173a:	89 df                	mov    %ebx,%edi
  10173c:	e8 4d 00 00 00       	call   10178e <check_cpuid>
  101741:	e8 60 00 00 00       	call   1017a6 <check_long_mode>
  101746:	e8 7d 00 00 00       	call   1017c8 <set_up_page_tables>
  10174b:	e8 b4 00 00 00       	call   101804 <enable_paging>
  101750:	0f 01 15 48 00 10 00 	lgdt   0x100048(%rip)        # 20179f <cursor+0xf25df>
  101757:	ea                   	(bad)
  101758:	40 28 10             	rex sub %dl,(%rax)
  10175b:	00 08                	add    %cl,(%rax)
	...

000000000010175e <error>:
  10175e:	c7 05 00 80 0b 00 45 	movl   $0x4f524f45,0xb8000(%rip)        # 1b9768 <cursor+0xaa5a8>
  101765:	4f 52 4f 
  101768:	c7 05 04 80 0b 00 52 	movl   $0x4f3a4f52,0xb8004(%rip)        # 1b9776 <cursor+0xaa5b6>
  10176f:	4f 3a 4f 
  101772:	c7 05 08 80 0b 00 20 	movl   $0x4f204f20,0xb8008(%rip)        # 1b9784 <cursor+0xaa5c4>
  101779:	4f 20 4f 
  10177c:	a2                   	.byte 0xa2
  10177d:	0a                   	.byte 0xa
  10177e:	80 0b 00             	orb    $0x0,(%rbx)
  101781:	f4                   	hlt

0000000000101782 <check_multiboot>:
  101782:	3d 89 62 d7 36       	cmp    $0x36d76289,%eax
  101787:	75 01                	jne    10178a <check_multiboot.no_multiboot>
  101789:	c3                   	ret

000000000010178a <check_multiboot.no_multiboot>:
  10178a:	b0 30                	mov    $0x30,%al
  10178c:	eb d0                	jmp    10175e <error>

000000000010178e <check_cpuid>:
  10178e:	9c                   	pushf
  10178f:	58                   	pop    %rax
  101790:	89 c1                	mov    %eax,%ecx
  101792:	35 00 00 20 00       	xor    $0x200000,%eax
  101797:	50                   	push   %rax
  101798:	9d                   	popf
  101799:	9c                   	pushf
  10179a:	58                   	pop    %rax
  10179b:	51                   	push   %rcx
  10179c:	9d                   	popf
  10179d:	39 c8                	cmp    %ecx,%eax
  10179f:	74 01                	je     1017a2 <check_cpuid.no_cpuid>
  1017a1:	c3                   	ret

00000000001017a2 <check_cpuid.no_cpuid>:
  1017a2:	b0 31                	mov    $0x31,%al
  1017a4:	eb b8                	jmp    10175e <error>

00000000001017a6 <check_long_mode>:
  1017a6:	b8 00 00 00 80       	mov    $0x80000000,%eax
  1017ab:	0f a2                	cpuid
  1017ad:	3d 01 00 00 80       	cmp    $0x80000001,%eax
  1017b2:	72 10                	jb     1017c4 <check_long_mode.no_long_mode>
  1017b4:	b8 01 00 00 80       	mov    $0x80000001,%eax
  1017b9:	0f a2                	cpuid
  1017bb:	f7 c2 00 00 00 20    	test   $0x20000000,%edx
  1017c1:	74 01                	je     1017c4 <check_long_mode.no_long_mode>
  1017c3:	c3                   	ret

00000000001017c4 <check_long_mode.no_long_mode>:
  1017c4:	b0 32                	mov    $0x32,%al
  1017c6:	eb 96                	jmp    10175e <error>

00000000001017c8 <set_up_page_tables>:
  1017c8:	b8 00 90 10 00       	mov    $0x109000,%eax
  1017cd:	83 c8 03             	or     $0x3,%eax
  1017d0:	a3 00 80 10 00 b8 00 	movabs %eax,0x10a000b800108000
  1017d7:	a0 10 
  1017d9:	00 83 c8 03 a3 00    	add    %al,0xa303c8(%rbx)
  1017df:	90                   	nop
  1017e0:	10 00                	adc    %al,(%rax)
  1017e2:	b9 00 00 00 00       	mov    $0x0,%ecx

00000000001017e7 <set_up_page_tables.map_p2_table>:
  1017e7:	b8 00 00 20 00       	mov    $0x200000,%eax
  1017ec:	f7 e1                	mul    %ecx
  1017ee:	0d 83 00 00 00       	or     $0x83,%eax
  1017f3:	89 04 cd 00 a0 10 00 	mov    %eax,0x10a000(,%rcx,8)
  1017fa:	41 81 f9 00 02 00 00 	cmp    $0x200,%r9d
  101801:	75 e4                	jne    1017e7 <set_up_page_tables.map_p2_table>
  101803:	c3                   	ret

0000000000101804 <enable_paging>:
  101804:	b8 00 80 10 00       	mov    $0x108000,%eax
  101809:	0f 22 d8             	mov    %rax,%cr3
  10180c:	0f 20 e0             	mov    %cr4,%rax
  10180f:	83 c8 20             	or     $0x20,%eax
  101812:	0f 22 e0             	mov    %rax,%cr4
  101815:	b9 80 00 00 c0       	mov    $0xc0000080,%ecx
  10181a:	0f 32                	rdmsr
  10181c:	0d 00 01 00 00       	or     $0x100,%eax
  101821:	0f 30                	wrmsr
  101823:	0f 20 c0             	mov    %cr0,%rax
  101826:	0d 00 00 00 80       	or     $0x80000000,%eax
  10182b:	0f 22 c0             	mov    %rax,%cr0
  10182e:	c3                   	ret
  10182f:	90                   	nop

0000000000101830 <glue>:
  101830:	50                   	push   %rax
  101831:	51                   	push   %rcx
  101832:	52                   	push   %rdx
  101833:	56                   	push   %rsi
  101834:	41 50                	push   %r8
  101836:	41 51                	push   %r9
  101838:	41 52                	push   %r10
  10183a:	41 53                	push   %r11
  10183c:	e8 ac 11 00 00       	call   1029ed <irq_dispatch>
  101841:	41 5b                	pop    %r11
  101843:	41 5a                	pop    %r10
  101845:	41 59                	pop    %r9
  101847:	41 58                	pop    %r8
  101849:	5e                   	pop    %rsi
  10184a:	5a                   	pop    %rdx
  10184b:	59                   	pop    %rcx
  10184c:	58                   	pop    %rax
  10184d:	5e                   	pop    %rsi
  10184e:	5f                   	pop    %rdi
  10184f:	48 83 c4 08          	add    $0x8,%rsp
  101853:	48 cf                	iretq

0000000000101855 <irq_entry_0>:
  101855:	57                   	push   %rdi
  101856:	57                   	push   %rdi
  101857:	56                   	push   %rsi
  101858:	bf 00 00 00 00       	mov    $0x0,%edi
  10185d:	0f 20 d6             	mov    %cr2,%rsi
  101860:	eb ce                	jmp    101830 <glue>

0000000000101862 <irq_entry_1>:
  101862:	57                   	push   %rdi
  101863:	57                   	push   %rdi
  101864:	56                   	push   %rsi
  101865:	bf 01 00 00 00       	mov    $0x1,%edi
  10186a:	0f 20 d6             	mov    %cr2,%rsi
  10186d:	eb c1                	jmp    101830 <glue>

000000000010186f <irq_entry_2>:
  10186f:	57                   	push   %rdi
  101870:	57                   	push   %rdi
  101871:	56                   	push   %rsi
  101872:	bf 02 00 00 00       	mov    $0x2,%edi
  101877:	0f 20 d6             	mov    %cr2,%rsi
  10187a:	eb b4                	jmp    101830 <glue>

000000000010187c <irq_entry_3>:
  10187c:	57                   	push   %rdi
  10187d:	57                   	push   %rdi
  10187e:	56                   	push   %rsi
  10187f:	bf 03 00 00 00       	mov    $0x3,%edi
  101884:	0f 20 d6             	mov    %cr2,%rsi
  101887:	eb a7                	jmp    101830 <glue>

0000000000101889 <irq_entry_4>:
  101889:	57                   	push   %rdi
  10188a:	57                   	push   %rdi
  10188b:	56                   	push   %rsi
  10188c:	bf 04 00 00 00       	mov    $0x4,%edi
  101891:	0f 20 d6             	mov    %cr2,%rsi
  101894:	eb 9a                	jmp    101830 <glue>

0000000000101896 <irq_entry_5>:
  101896:	57                   	push   %rdi
  101897:	57                   	push   %rdi
  101898:	56                   	push   %rsi
  101899:	bf 05 00 00 00       	mov    $0x5,%edi
  10189e:	0f 20 d6             	mov    %cr2,%rsi
  1018a1:	eb 8d                	jmp    101830 <glue>

00000000001018a3 <irq_entry_6>:
  1018a3:	57                   	push   %rdi
  1018a4:	57                   	push   %rdi
  1018a5:	56                   	push   %rsi
  1018a6:	bf 06 00 00 00       	mov    $0x6,%edi
  1018ab:	0f 20 d6             	mov    %cr2,%rsi
  1018ae:	eb 80                	jmp    101830 <glue>

00000000001018b0 <irq_entry_7>:
  1018b0:	57                   	push   %rdi
  1018b1:	57                   	push   %rdi
  1018b2:	56                   	push   %rsi
  1018b3:	bf 07 00 00 00       	mov    $0x7,%edi
  1018b8:	0f 20 d6             	mov    %cr2,%rsi
  1018bb:	e9 70 ff ff ff       	jmp    101830 <glue>

00000000001018c0 <irq_entry_8>:
  1018c0:	57                   	push   %rdi
  1018c1:	56                   	push   %rsi
  1018c2:	bf 08 00 00 00       	mov    $0x8,%edi
  1018c7:	0f 20 d6             	mov    %cr2,%rsi
  1018ca:	e9 61 ff ff ff       	jmp    101830 <glue>

00000000001018cf <irq_entry_9>:
  1018cf:	57                   	push   %rdi
  1018d0:	57                   	push   %rdi
  1018d1:	56                   	push   %rsi
  1018d2:	bf 09 00 00 00       	mov    $0x9,%edi
  1018d7:	0f 20 d6             	mov    %cr2,%rsi
  1018da:	e9 51 ff ff ff       	jmp    101830 <glue>

00000000001018df <irq_entry_10>:
  1018df:	57                   	push   %rdi
  1018e0:	56                   	push   %rsi
  1018e1:	bf 0a 00 00 00       	mov    $0xa,%edi
  1018e6:	0f 20 d6             	mov    %cr2,%rsi
  1018e9:	e9 42 ff ff ff       	jmp    101830 <glue>

00000000001018ee <irq_entry_11>:
  1018ee:	57                   	push   %rdi
  1018ef:	56                   	push   %rsi
  1018f0:	bf 0b 00 00 00       	mov    $0xb,%edi
  1018f5:	0f 20 d6             	mov    %cr2,%rsi
  1018f8:	e9 33 ff ff ff       	jmp    101830 <glue>

00000000001018fd <irq_entry_12>:
  1018fd:	57                   	push   %rdi
  1018fe:	56                   	push   %rsi
  1018ff:	bf 0c 00 00 00       	mov    $0xc,%edi
  101904:	0f 20 d6             	mov    %cr2,%rsi
  101907:	e9 24 ff ff ff       	jmp    101830 <glue>

000000000010190c <irq_entry_13>:
  10190c:	57                   	push   %rdi
  10190d:	56                   	push   %rsi
  10190e:	bf 0d 00 00 00       	mov    $0xd,%edi
  101913:	0f 20 d6             	mov    %cr2,%rsi
  101916:	e9 15 ff ff ff       	jmp    101830 <glue>

000000000010191b <irq_entry_14>:
  10191b:	57                   	push   %rdi
  10191c:	56                   	push   %rsi
  10191d:	bf 0e 00 00 00       	mov    $0xe,%edi
  101922:	0f 20 d6             	mov    %cr2,%rsi
  101925:	e9 06 ff ff ff       	jmp    101830 <glue>

000000000010192a <irq_entry_15>:
  10192a:	57                   	push   %rdi
  10192b:	57                   	push   %rdi
  10192c:	56                   	push   %rsi
  10192d:	bf 0f 00 00 00       	mov    $0xf,%edi
  101932:	0f 20 d6             	mov    %cr2,%rsi
  101935:	e9 f6 fe ff ff       	jmp    101830 <glue>

000000000010193a <irq_entry_16>:
  10193a:	57                   	push   %rdi
  10193b:	57                   	push   %rdi
  10193c:	56                   	push   %rsi
  10193d:	bf 10 00 00 00       	mov    $0x10,%edi
  101942:	0f 20 d6             	mov    %cr2,%rsi
  101945:	e9 e6 fe ff ff       	jmp    101830 <glue>

000000000010194a <irq_entry_17>:
  10194a:	57                   	push   %rdi
  10194b:	57                   	push   %rdi
  10194c:	56                   	push   %rsi
  10194d:	bf 11 00 00 00       	mov    $0x11,%edi
  101952:	0f 20 d6             	mov    %cr2,%rsi
  101955:	e9 d6 fe ff ff       	jmp    101830 <glue>

000000000010195a <irq_entry_18>:
  10195a:	57                   	push   %rdi
  10195b:	57                   	push   %rdi
  10195c:	56                   	push   %rsi
  10195d:	bf 12 00 00 00       	mov    $0x12,%edi
  101962:	0f 20 d6             	mov    %cr2,%rsi
  101965:	e9 c6 fe ff ff       	jmp    101830 <glue>

000000000010196a <irq_entry_19>:
  10196a:	57                   	push   %rdi
  10196b:	57                   	push   %rdi
  10196c:	56                   	push   %rsi
  10196d:	bf 13 00 00 00       	mov    $0x13,%edi
  101972:	0f 20 d6             	mov    %cr2,%rsi
  101975:	e9 b6 fe ff ff       	jmp    101830 <glue>

000000000010197a <irq_entry_20>:
  10197a:	57                   	push   %rdi
  10197b:	57                   	push   %rdi
  10197c:	56                   	push   %rsi
  10197d:	bf 14 00 00 00       	mov    $0x14,%edi
  101982:	0f 20 d6             	mov    %cr2,%rsi
  101985:	e9 a6 fe ff ff       	jmp    101830 <glue>

000000000010198a <irq_entry_21>:
  10198a:	57                   	push   %rdi
  10198b:	57                   	push   %rdi
  10198c:	56                   	push   %rsi
  10198d:	bf 15 00 00 00       	mov    $0x15,%edi
  101992:	0f 20 d6             	mov    %cr2,%rsi
  101995:	e9 96 fe ff ff       	jmp    101830 <glue>

000000000010199a <irq_entry_22>:
  10199a:	57                   	push   %rdi
  10199b:	57                   	push   %rdi
  10199c:	56                   	push   %rsi
  10199d:	bf 16 00 00 00       	mov    $0x16,%edi
  1019a2:	0f 20 d6             	mov    %cr2,%rsi
  1019a5:	e9 86 fe ff ff       	jmp    101830 <glue>

00000000001019aa <irq_entry_23>:
  1019aa:	57                   	push   %rdi
  1019ab:	57                   	push   %rdi
  1019ac:	56                   	push   %rsi
  1019ad:	bf 17 00 00 00       	mov    $0x17,%edi
  1019b2:	0f 20 d6             	mov    %cr2,%rsi
  1019b5:	e9 76 fe ff ff       	jmp    101830 <glue>

00000000001019ba <irq_entry_24>:
  1019ba:	57                   	push   %rdi
  1019bb:	57                   	push   %rdi
  1019bc:	56                   	push   %rsi
  1019bd:	bf 18 00 00 00       	mov    $0x18,%edi
  1019c2:	0f 20 d6             	mov    %cr2,%rsi
  1019c5:	e9 66 fe ff ff       	jmp    101830 <glue>

00000000001019ca <irq_entry_25>:
  1019ca:	57                   	push   %rdi
  1019cb:	57                   	push   %rdi
  1019cc:	56                   	push   %rsi
  1019cd:	bf 19 00 00 00       	mov    $0x19,%edi
  1019d2:	0f 20 d6             	mov    %cr2,%rsi
  1019d5:	e9 56 fe ff ff       	jmp    101830 <glue>

00000000001019da <irq_entry_26>:
  1019da:	57                   	push   %rdi
  1019db:	57                   	push   %rdi
  1019dc:	56                   	push   %rsi
  1019dd:	bf 1a 00 00 00       	mov    $0x1a,%edi
  1019e2:	0f 20 d6             	mov    %cr2,%rsi
  1019e5:	e9 46 fe ff ff       	jmp    101830 <glue>

00000000001019ea <irq_entry_27>:
  1019ea:	57                   	push   %rdi
  1019eb:	57                   	push   %rdi
  1019ec:	56                   	push   %rsi
  1019ed:	bf 1b 00 00 00       	mov    $0x1b,%edi
  1019f2:	0f 20 d6             	mov    %cr2,%rsi
  1019f5:	e9 36 fe ff ff       	jmp    101830 <glue>

00000000001019fa <irq_entry_28>:
  1019fa:	57                   	push   %rdi
  1019fb:	57                   	push   %rdi
  1019fc:	56                   	push   %rsi
  1019fd:	bf 1c 00 00 00       	mov    $0x1c,%edi
  101a02:	0f 20 d6             	mov    %cr2,%rsi
  101a05:	e9 26 fe ff ff       	jmp    101830 <glue>

0000000000101a0a <irq_entry_29>:
  101a0a:	57                   	push   %rdi
  101a0b:	57                   	push   %rdi
  101a0c:	56                   	push   %rsi
  101a0d:	bf 1d 00 00 00       	mov    $0x1d,%edi
  101a12:	0f 20 d6             	mov    %cr2,%rsi
  101a15:	e9 16 fe ff ff       	jmp    101830 <glue>

0000000000101a1a <irq_entry_30>:
  101a1a:	57                   	push   %rdi
  101a1b:	57                   	push   %rdi
  101a1c:	56                   	push   %rsi
  101a1d:	bf 1e 00 00 00       	mov    $0x1e,%edi
  101a22:	0f 20 d6             	mov    %cr2,%rsi
  101a25:	e9 06 fe ff ff       	jmp    101830 <glue>

0000000000101a2a <irq_entry_31>:
  101a2a:	57                   	push   %rdi
  101a2b:	57                   	push   %rdi
  101a2c:	56                   	push   %rsi
  101a2d:	bf 1f 00 00 00       	mov    $0x1f,%edi
  101a32:	0f 20 d6             	mov    %cr2,%rsi
  101a35:	e9 f6 fd ff ff       	jmp    101830 <glue>

0000000000101a3a <irq_entry_32>:
  101a3a:	57                   	push   %rdi
  101a3b:	57                   	push   %rdi
  101a3c:	56                   	push   %rsi
  101a3d:	bf 20 00 00 00       	mov    $0x20,%edi
  101a42:	0f 20 d6             	mov    %cr2,%rsi
  101a45:	e9 e6 fd ff ff       	jmp    101830 <glue>

0000000000101a4a <irq_entry_33>:
  101a4a:	57                   	push   %rdi
  101a4b:	57                   	push   %rdi
  101a4c:	56                   	push   %rsi
  101a4d:	bf 21 00 00 00       	mov    $0x21,%edi
  101a52:	0f 20 d6             	mov    %cr2,%rsi
  101a55:	e9 d6 fd ff ff       	jmp    101830 <glue>

0000000000101a5a <irq_entry_34>:
  101a5a:	57                   	push   %rdi
  101a5b:	57                   	push   %rdi
  101a5c:	56                   	push   %rsi
  101a5d:	bf 22 00 00 00       	mov    $0x22,%edi
  101a62:	0f 20 d6             	mov    %cr2,%rsi
  101a65:	e9 c6 fd ff ff       	jmp    101830 <glue>

0000000000101a6a <irq_entry_35>:
  101a6a:	57                   	push   %rdi
  101a6b:	57                   	push   %rdi
  101a6c:	56                   	push   %rsi
  101a6d:	bf 23 00 00 00       	mov    $0x23,%edi
  101a72:	0f 20 d6             	mov    %cr2,%rsi
  101a75:	e9 b6 fd ff ff       	jmp    101830 <glue>

0000000000101a7a <irq_entry_36>:
  101a7a:	57                   	push   %rdi
  101a7b:	57                   	push   %rdi
  101a7c:	56                   	push   %rsi
  101a7d:	bf 24 00 00 00       	mov    $0x24,%edi
  101a82:	0f 20 d6             	mov    %cr2,%rsi
  101a85:	e9 a6 fd ff ff       	jmp    101830 <glue>

0000000000101a8a <irq_entry_37>:
  101a8a:	57                   	push   %rdi
  101a8b:	57                   	push   %rdi
  101a8c:	56                   	push   %rsi
  101a8d:	bf 25 00 00 00       	mov    $0x25,%edi
  101a92:	0f 20 d6             	mov    %cr2,%rsi
  101a95:	e9 96 fd ff ff       	jmp    101830 <glue>

0000000000101a9a <irq_entry_38>:
  101a9a:	57                   	push   %rdi
  101a9b:	57                   	push   %rdi
  101a9c:	56                   	push   %rsi
  101a9d:	bf 26 00 00 00       	mov    $0x26,%edi
  101aa2:	0f 20 d6             	mov    %cr2,%rsi
  101aa5:	e9 86 fd ff ff       	jmp    101830 <glue>

0000000000101aaa <irq_entry_39>:
  101aaa:	57                   	push   %rdi
  101aab:	57                   	push   %rdi
  101aac:	56                   	push   %rsi
  101aad:	bf 27 00 00 00       	mov    $0x27,%edi
  101ab2:	0f 20 d6             	mov    %cr2,%rsi
  101ab5:	e9 76 fd ff ff       	jmp    101830 <glue>

0000000000101aba <irq_entry_40>:
  101aba:	57                   	push   %rdi
  101abb:	57                   	push   %rdi
  101abc:	56                   	push   %rsi
  101abd:	bf 28 00 00 00       	mov    $0x28,%edi
  101ac2:	0f 20 d6             	mov    %cr2,%rsi
  101ac5:	e9 66 fd ff ff       	jmp    101830 <glue>

0000000000101aca <irq_entry_41>:
  101aca:	57                   	push   %rdi
  101acb:	57                   	push   %rdi
  101acc:	56                   	push   %rsi
  101acd:	bf 29 00 00 00       	mov    $0x29,%edi
  101ad2:	0f 20 d6             	mov    %cr2,%rsi
  101ad5:	e9 56 fd ff ff       	jmp    101830 <glue>

0000000000101ada <irq_entry_42>:
  101ada:	57                   	push   %rdi
  101adb:	57                   	push   %rdi
  101adc:	56                   	push   %rsi
  101add:	bf 2a 00 00 00       	mov    $0x2a,%edi
  101ae2:	0f 20 d6             	mov    %cr2,%rsi
  101ae5:	e9 46 fd ff ff       	jmp    101830 <glue>

0000000000101aea <irq_entry_43>:
  101aea:	57                   	push   %rdi
  101aeb:	57                   	push   %rdi
  101aec:	56                   	push   %rsi
  101aed:	bf 2b 00 00 00       	mov    $0x2b,%edi
  101af2:	0f 20 d6             	mov    %cr2,%rsi
  101af5:	e9 36 fd ff ff       	jmp    101830 <glue>

0000000000101afa <irq_entry_44>:
  101afa:	57                   	push   %rdi
  101afb:	57                   	push   %rdi
  101afc:	56                   	push   %rsi
  101afd:	bf 2c 00 00 00       	mov    $0x2c,%edi
  101b02:	0f 20 d6             	mov    %cr2,%rsi
  101b05:	e9 26 fd ff ff       	jmp    101830 <glue>

0000000000101b0a <irq_entry_45>:
  101b0a:	57                   	push   %rdi
  101b0b:	57                   	push   %rdi
  101b0c:	56                   	push   %rsi
  101b0d:	bf 2d 00 00 00       	mov    $0x2d,%edi
  101b12:	0f 20 d6             	mov    %cr2,%rsi
  101b15:	e9 16 fd ff ff       	jmp    101830 <glue>

0000000000101b1a <irq_entry_46>:
  101b1a:	57                   	push   %rdi
  101b1b:	57                   	push   %rdi
  101b1c:	56                   	push   %rsi
  101b1d:	bf 2e 00 00 00       	mov    $0x2e,%edi
  101b22:	0f 20 d6             	mov    %cr2,%rsi
  101b25:	e9 06 fd ff ff       	jmp    101830 <glue>

0000000000101b2a <irq_entry_47>:
  101b2a:	57                   	push   %rdi
  101b2b:	57                   	push   %rdi
  101b2c:	56                   	push   %rsi
  101b2d:	bf 2f 00 00 00       	mov    $0x2f,%edi
  101b32:	0f 20 d6             	mov    %cr2,%rsi
  101b35:	e9 f6 fc ff ff       	jmp    101830 <glue>

0000000000101b3a <irq_entry_48>:
  101b3a:	57                   	push   %rdi
  101b3b:	57                   	push   %rdi
  101b3c:	56                   	push   %rsi
  101b3d:	bf 30 00 00 00       	mov    $0x30,%edi
  101b42:	0f 20 d6             	mov    %cr2,%rsi
  101b45:	e9 e6 fc ff ff       	jmp    101830 <glue>

0000000000101b4a <irq_entry_49>:
  101b4a:	57                   	push   %rdi
  101b4b:	57                   	push   %rdi
  101b4c:	56                   	push   %rsi
  101b4d:	bf 31 00 00 00       	mov    $0x31,%edi
  101b52:	0f 20 d6             	mov    %cr2,%rsi
  101b55:	e9 d6 fc ff ff       	jmp    101830 <glue>

0000000000101b5a <irq_entry_50>:
  101b5a:	57                   	push   %rdi
  101b5b:	57                   	push   %rdi
  101b5c:	56                   	push   %rsi
  101b5d:	bf 32 00 00 00       	mov    $0x32,%edi
  101b62:	0f 20 d6             	mov    %cr2,%rsi
  101b65:	e9 c6 fc ff ff       	jmp    101830 <glue>

0000000000101b6a <irq_entry_51>:
  101b6a:	57                   	push   %rdi
  101b6b:	57                   	push   %rdi
  101b6c:	56                   	push   %rsi
  101b6d:	bf 33 00 00 00       	mov    $0x33,%edi
  101b72:	0f 20 d6             	mov    %cr2,%rsi
  101b75:	e9 b6 fc ff ff       	jmp    101830 <glue>

0000000000101b7a <irq_entry_52>:
  101b7a:	57                   	push   %rdi
  101b7b:	57                   	push   %rdi
  101b7c:	56                   	push   %rsi
  101b7d:	bf 34 00 00 00       	mov    $0x34,%edi
  101b82:	0f 20 d6             	mov    %cr2,%rsi
  101b85:	e9 a6 fc ff ff       	jmp    101830 <glue>

0000000000101b8a <irq_entry_53>:
  101b8a:	57                   	push   %rdi
  101b8b:	57                   	push   %rdi
  101b8c:	56                   	push   %rsi
  101b8d:	bf 35 00 00 00       	mov    $0x35,%edi
  101b92:	0f 20 d6             	mov    %cr2,%rsi
  101b95:	e9 96 fc ff ff       	jmp    101830 <glue>

0000000000101b9a <irq_entry_54>:
  101b9a:	57                   	push   %rdi
  101b9b:	57                   	push   %rdi
  101b9c:	56                   	push   %rsi
  101b9d:	bf 36 00 00 00       	mov    $0x36,%edi
  101ba2:	0f 20 d6             	mov    %cr2,%rsi
  101ba5:	e9 86 fc ff ff       	jmp    101830 <glue>

0000000000101baa <irq_entry_55>:
  101baa:	57                   	push   %rdi
  101bab:	57                   	push   %rdi
  101bac:	56                   	push   %rsi
  101bad:	bf 37 00 00 00       	mov    $0x37,%edi
  101bb2:	0f 20 d6             	mov    %cr2,%rsi
  101bb5:	e9 76 fc ff ff       	jmp    101830 <glue>

0000000000101bba <irq_entry_56>:
  101bba:	57                   	push   %rdi
  101bbb:	57                   	push   %rdi
  101bbc:	56                   	push   %rsi
  101bbd:	bf 38 00 00 00       	mov    $0x38,%edi
  101bc2:	0f 20 d6             	mov    %cr2,%rsi
  101bc5:	e9 66 fc ff ff       	jmp    101830 <glue>

0000000000101bca <irq_entry_57>:
  101bca:	57                   	push   %rdi
  101bcb:	57                   	push   %rdi
  101bcc:	56                   	push   %rsi
  101bcd:	bf 39 00 00 00       	mov    $0x39,%edi
  101bd2:	0f 20 d6             	mov    %cr2,%rsi
  101bd5:	e9 56 fc ff ff       	jmp    101830 <glue>

0000000000101bda <irq_entry_58>:
  101bda:	57                   	push   %rdi
  101bdb:	57                   	push   %rdi
  101bdc:	56                   	push   %rsi
  101bdd:	bf 3a 00 00 00       	mov    $0x3a,%edi
  101be2:	0f 20 d6             	mov    %cr2,%rsi
  101be5:	e9 46 fc ff ff       	jmp    101830 <glue>

0000000000101bea <irq_entry_59>:
  101bea:	57                   	push   %rdi
  101beb:	57                   	push   %rdi
  101bec:	56                   	push   %rsi
  101bed:	bf 3b 00 00 00       	mov    $0x3b,%edi
  101bf2:	0f 20 d6             	mov    %cr2,%rsi
  101bf5:	e9 36 fc ff ff       	jmp    101830 <glue>

0000000000101bfa <irq_entry_60>:
  101bfa:	57                   	push   %rdi
  101bfb:	57                   	push   %rdi
  101bfc:	56                   	push   %rsi
  101bfd:	bf 3c 00 00 00       	mov    $0x3c,%edi
  101c02:	0f 20 d6             	mov    %cr2,%rsi
  101c05:	e9 26 fc ff ff       	jmp    101830 <glue>

0000000000101c0a <irq_entry_61>:
  101c0a:	57                   	push   %rdi
  101c0b:	57                   	push   %rdi
  101c0c:	56                   	push   %rsi
  101c0d:	bf 3d 00 00 00       	mov    $0x3d,%edi
  101c12:	0f 20 d6             	mov    %cr2,%rsi
  101c15:	e9 16 fc ff ff       	jmp    101830 <glue>

0000000000101c1a <irq_entry_62>:
  101c1a:	57                   	push   %rdi
  101c1b:	57                   	push   %rdi
  101c1c:	56                   	push   %rsi
  101c1d:	bf 3e 00 00 00       	mov    $0x3e,%edi
  101c22:	0f 20 d6             	mov    %cr2,%rsi
  101c25:	e9 06 fc ff ff       	jmp    101830 <glue>

0000000000101c2a <irq_entry_63>:
  101c2a:	57                   	push   %rdi
  101c2b:	57                   	push   %rdi
  101c2c:	56                   	push   %rsi
  101c2d:	bf 3f 00 00 00       	mov    $0x3f,%edi
  101c32:	0f 20 d6             	mov    %cr2,%rsi
  101c35:	e9 f6 fb ff ff       	jmp    101830 <glue>

0000000000101c3a <irq_entry_64>:
  101c3a:	57                   	push   %rdi
  101c3b:	57                   	push   %rdi
  101c3c:	56                   	push   %rsi
  101c3d:	bf 40 00 00 00       	mov    $0x40,%edi
  101c42:	0f 20 d6             	mov    %cr2,%rsi
  101c45:	e9 e6 fb ff ff       	jmp    101830 <glue>

0000000000101c4a <irq_entry_65>:
  101c4a:	57                   	push   %rdi
  101c4b:	57                   	push   %rdi
  101c4c:	56                   	push   %rsi
  101c4d:	bf 41 00 00 00       	mov    $0x41,%edi
  101c52:	0f 20 d6             	mov    %cr2,%rsi
  101c55:	e9 d6 fb ff ff       	jmp    101830 <glue>

0000000000101c5a <irq_entry_66>:
  101c5a:	57                   	push   %rdi
  101c5b:	57                   	push   %rdi
  101c5c:	56                   	push   %rsi
  101c5d:	bf 42 00 00 00       	mov    $0x42,%edi
  101c62:	0f 20 d6             	mov    %cr2,%rsi
  101c65:	e9 c6 fb ff ff       	jmp    101830 <glue>

0000000000101c6a <irq_entry_67>:
  101c6a:	57                   	push   %rdi
  101c6b:	57                   	push   %rdi
  101c6c:	56                   	push   %rsi
  101c6d:	bf 43 00 00 00       	mov    $0x43,%edi
  101c72:	0f 20 d6             	mov    %cr2,%rsi
  101c75:	e9 b6 fb ff ff       	jmp    101830 <glue>

0000000000101c7a <irq_entry_68>:
  101c7a:	57                   	push   %rdi
  101c7b:	57                   	push   %rdi
  101c7c:	56                   	push   %rsi
  101c7d:	bf 44 00 00 00       	mov    $0x44,%edi
  101c82:	0f 20 d6             	mov    %cr2,%rsi
  101c85:	e9 a6 fb ff ff       	jmp    101830 <glue>

0000000000101c8a <irq_entry_69>:
  101c8a:	57                   	push   %rdi
  101c8b:	57                   	push   %rdi
  101c8c:	56                   	push   %rsi
  101c8d:	bf 45 00 00 00       	mov    $0x45,%edi
  101c92:	0f 20 d6             	mov    %cr2,%rsi
  101c95:	e9 96 fb ff ff       	jmp    101830 <glue>

0000000000101c9a <irq_entry_70>:
  101c9a:	57                   	push   %rdi
  101c9b:	57                   	push   %rdi
  101c9c:	56                   	push   %rsi
  101c9d:	bf 46 00 00 00       	mov    $0x46,%edi
  101ca2:	0f 20 d6             	mov    %cr2,%rsi
  101ca5:	e9 86 fb ff ff       	jmp    101830 <glue>

0000000000101caa <irq_entry_71>:
  101caa:	57                   	push   %rdi
  101cab:	57                   	push   %rdi
  101cac:	56                   	push   %rsi
  101cad:	bf 47 00 00 00       	mov    $0x47,%edi
  101cb2:	0f 20 d6             	mov    %cr2,%rsi
  101cb5:	e9 76 fb ff ff       	jmp    101830 <glue>

0000000000101cba <irq_entry_72>:
  101cba:	57                   	push   %rdi
  101cbb:	57                   	push   %rdi
  101cbc:	56                   	push   %rsi
  101cbd:	bf 48 00 00 00       	mov    $0x48,%edi
  101cc2:	0f 20 d6             	mov    %cr2,%rsi
  101cc5:	e9 66 fb ff ff       	jmp    101830 <glue>

0000000000101cca <irq_entry_73>:
  101cca:	57                   	push   %rdi
  101ccb:	57                   	push   %rdi
  101ccc:	56                   	push   %rsi
  101ccd:	bf 49 00 00 00       	mov    $0x49,%edi
  101cd2:	0f 20 d6             	mov    %cr2,%rsi
  101cd5:	e9 56 fb ff ff       	jmp    101830 <glue>

0000000000101cda <irq_entry_74>:
  101cda:	57                   	push   %rdi
  101cdb:	57                   	push   %rdi
  101cdc:	56                   	push   %rsi
  101cdd:	bf 4a 00 00 00       	mov    $0x4a,%edi
  101ce2:	0f 20 d6             	mov    %cr2,%rsi
  101ce5:	e9 46 fb ff ff       	jmp    101830 <glue>

0000000000101cea <irq_entry_75>:
  101cea:	57                   	push   %rdi
  101ceb:	57                   	push   %rdi
  101cec:	56                   	push   %rsi
  101ced:	bf 4b 00 00 00       	mov    $0x4b,%edi
  101cf2:	0f 20 d6             	mov    %cr2,%rsi
  101cf5:	e9 36 fb ff ff       	jmp    101830 <glue>

0000000000101cfa <irq_entry_76>:
  101cfa:	57                   	push   %rdi
  101cfb:	57                   	push   %rdi
  101cfc:	56                   	push   %rsi
  101cfd:	bf 4c 00 00 00       	mov    $0x4c,%edi
  101d02:	0f 20 d6             	mov    %cr2,%rsi
  101d05:	e9 26 fb ff ff       	jmp    101830 <glue>

0000000000101d0a <irq_entry_77>:
  101d0a:	57                   	push   %rdi
  101d0b:	57                   	push   %rdi
  101d0c:	56                   	push   %rsi
  101d0d:	bf 4d 00 00 00       	mov    $0x4d,%edi
  101d12:	0f 20 d6             	mov    %cr2,%rsi
  101d15:	e9 16 fb ff ff       	jmp    101830 <glue>

0000000000101d1a <irq_entry_78>:
  101d1a:	57                   	push   %rdi
  101d1b:	57                   	push   %rdi
  101d1c:	56                   	push   %rsi
  101d1d:	bf 4e 00 00 00       	mov    $0x4e,%edi
  101d22:	0f 20 d6             	mov    %cr2,%rsi
  101d25:	e9 06 fb ff ff       	jmp    101830 <glue>

0000000000101d2a <irq_entry_79>:
  101d2a:	57                   	push   %rdi
  101d2b:	57                   	push   %rdi
  101d2c:	56                   	push   %rsi
  101d2d:	bf 4f 00 00 00       	mov    $0x4f,%edi
  101d32:	0f 20 d6             	mov    %cr2,%rsi
  101d35:	e9 f6 fa ff ff       	jmp    101830 <glue>

0000000000101d3a <irq_entry_80>:
  101d3a:	57                   	push   %rdi
  101d3b:	57                   	push   %rdi
  101d3c:	56                   	push   %rsi
  101d3d:	bf 50 00 00 00       	mov    $0x50,%edi
  101d42:	0f 20 d6             	mov    %cr2,%rsi
  101d45:	e9 e6 fa ff ff       	jmp    101830 <glue>

0000000000101d4a <irq_entry_81>:
  101d4a:	57                   	push   %rdi
  101d4b:	57                   	push   %rdi
  101d4c:	56                   	push   %rsi
  101d4d:	bf 51 00 00 00       	mov    $0x51,%edi
  101d52:	0f 20 d6             	mov    %cr2,%rsi
  101d55:	e9 d6 fa ff ff       	jmp    101830 <glue>

0000000000101d5a <irq_entry_82>:
  101d5a:	57                   	push   %rdi
  101d5b:	57                   	push   %rdi
  101d5c:	56                   	push   %rsi
  101d5d:	bf 52 00 00 00       	mov    $0x52,%edi
  101d62:	0f 20 d6             	mov    %cr2,%rsi
  101d65:	e9 c6 fa ff ff       	jmp    101830 <glue>

0000000000101d6a <irq_entry_83>:
  101d6a:	57                   	push   %rdi
  101d6b:	57                   	push   %rdi
  101d6c:	56                   	push   %rsi
  101d6d:	bf 53 00 00 00       	mov    $0x53,%edi
  101d72:	0f 20 d6             	mov    %cr2,%rsi
  101d75:	e9 b6 fa ff ff       	jmp    101830 <glue>

0000000000101d7a <irq_entry_84>:
  101d7a:	57                   	push   %rdi
  101d7b:	57                   	push   %rdi
  101d7c:	56                   	push   %rsi
  101d7d:	bf 54 00 00 00       	mov    $0x54,%edi
  101d82:	0f 20 d6             	mov    %cr2,%rsi
  101d85:	e9 a6 fa ff ff       	jmp    101830 <glue>

0000000000101d8a <irq_entry_85>:
  101d8a:	57                   	push   %rdi
  101d8b:	57                   	push   %rdi
  101d8c:	56                   	push   %rsi
  101d8d:	bf 55 00 00 00       	mov    $0x55,%edi
  101d92:	0f 20 d6             	mov    %cr2,%rsi
  101d95:	e9 96 fa ff ff       	jmp    101830 <glue>

0000000000101d9a <irq_entry_86>:
  101d9a:	57                   	push   %rdi
  101d9b:	57                   	push   %rdi
  101d9c:	56                   	push   %rsi
  101d9d:	bf 56 00 00 00       	mov    $0x56,%edi
  101da2:	0f 20 d6             	mov    %cr2,%rsi
  101da5:	e9 86 fa ff ff       	jmp    101830 <glue>

0000000000101daa <irq_entry_87>:
  101daa:	57                   	push   %rdi
  101dab:	57                   	push   %rdi
  101dac:	56                   	push   %rsi
  101dad:	bf 57 00 00 00       	mov    $0x57,%edi
  101db2:	0f 20 d6             	mov    %cr2,%rsi
  101db5:	e9 76 fa ff ff       	jmp    101830 <glue>

0000000000101dba <irq_entry_88>:
  101dba:	57                   	push   %rdi
  101dbb:	57                   	push   %rdi
  101dbc:	56                   	push   %rsi
  101dbd:	bf 58 00 00 00       	mov    $0x58,%edi
  101dc2:	0f 20 d6             	mov    %cr2,%rsi
  101dc5:	e9 66 fa ff ff       	jmp    101830 <glue>

0000000000101dca <irq_entry_89>:
  101dca:	57                   	push   %rdi
  101dcb:	57                   	push   %rdi
  101dcc:	56                   	push   %rsi
  101dcd:	bf 59 00 00 00       	mov    $0x59,%edi
  101dd2:	0f 20 d6             	mov    %cr2,%rsi
  101dd5:	e9 56 fa ff ff       	jmp    101830 <glue>

0000000000101dda <irq_entry_90>:
  101dda:	57                   	push   %rdi
  101ddb:	57                   	push   %rdi
  101ddc:	56                   	push   %rsi
  101ddd:	bf 5a 00 00 00       	mov    $0x5a,%edi
  101de2:	0f 20 d6             	mov    %cr2,%rsi
  101de5:	e9 46 fa ff ff       	jmp    101830 <glue>

0000000000101dea <irq_entry_91>:
  101dea:	57                   	push   %rdi
  101deb:	57                   	push   %rdi
  101dec:	56                   	push   %rsi
  101ded:	bf 5b 00 00 00       	mov    $0x5b,%edi
  101df2:	0f 20 d6             	mov    %cr2,%rsi
  101df5:	e9 36 fa ff ff       	jmp    101830 <glue>

0000000000101dfa <irq_entry_92>:
  101dfa:	57                   	push   %rdi
  101dfb:	57                   	push   %rdi
  101dfc:	56                   	push   %rsi
  101dfd:	bf 5c 00 00 00       	mov    $0x5c,%edi
  101e02:	0f 20 d6             	mov    %cr2,%rsi
  101e05:	e9 26 fa ff ff       	jmp    101830 <glue>

0000000000101e0a <irq_entry_93>:
  101e0a:	57                   	push   %rdi
  101e0b:	57                   	push   %rdi
  101e0c:	56                   	push   %rsi
  101e0d:	bf 5d 00 00 00       	mov    $0x5d,%edi
  101e12:	0f 20 d6             	mov    %cr2,%rsi
  101e15:	e9 16 fa ff ff       	jmp    101830 <glue>

0000000000101e1a <irq_entry_94>:
  101e1a:	57                   	push   %rdi
  101e1b:	57                   	push   %rdi
  101e1c:	56                   	push   %rsi
  101e1d:	bf 5e 00 00 00       	mov    $0x5e,%edi
  101e22:	0f 20 d6             	mov    %cr2,%rsi
  101e25:	e9 06 fa ff ff       	jmp    101830 <glue>

0000000000101e2a <irq_entry_95>:
  101e2a:	57                   	push   %rdi
  101e2b:	57                   	push   %rdi
  101e2c:	56                   	push   %rsi
  101e2d:	bf 5f 00 00 00       	mov    $0x5f,%edi
  101e32:	0f 20 d6             	mov    %cr2,%rsi
  101e35:	e9 f6 f9 ff ff       	jmp    101830 <glue>

0000000000101e3a <irq_entry_96>:
  101e3a:	57                   	push   %rdi
  101e3b:	57                   	push   %rdi
  101e3c:	56                   	push   %rsi
  101e3d:	bf 60 00 00 00       	mov    $0x60,%edi
  101e42:	0f 20 d6             	mov    %cr2,%rsi
  101e45:	e9 e6 f9 ff ff       	jmp    101830 <glue>

0000000000101e4a <irq_entry_97>:
  101e4a:	57                   	push   %rdi
  101e4b:	57                   	push   %rdi
  101e4c:	56                   	push   %rsi
  101e4d:	bf 61 00 00 00       	mov    $0x61,%edi
  101e52:	0f 20 d6             	mov    %cr2,%rsi
  101e55:	e9 d6 f9 ff ff       	jmp    101830 <glue>

0000000000101e5a <irq_entry_98>:
  101e5a:	57                   	push   %rdi
  101e5b:	57                   	push   %rdi
  101e5c:	56                   	push   %rsi
  101e5d:	bf 62 00 00 00       	mov    $0x62,%edi
  101e62:	0f 20 d6             	mov    %cr2,%rsi
  101e65:	e9 c6 f9 ff ff       	jmp    101830 <glue>

0000000000101e6a <irq_entry_99>:
  101e6a:	57                   	push   %rdi
  101e6b:	57                   	push   %rdi
  101e6c:	56                   	push   %rsi
  101e6d:	bf 63 00 00 00       	mov    $0x63,%edi
  101e72:	0f 20 d6             	mov    %cr2,%rsi
  101e75:	e9 b6 f9 ff ff       	jmp    101830 <glue>

0000000000101e7a <irq_entry_100>:
  101e7a:	57                   	push   %rdi
  101e7b:	57                   	push   %rdi
  101e7c:	56                   	push   %rsi
  101e7d:	bf 64 00 00 00       	mov    $0x64,%edi
  101e82:	0f 20 d6             	mov    %cr2,%rsi
  101e85:	e9 a6 f9 ff ff       	jmp    101830 <glue>

0000000000101e8a <irq_entry_101>:
  101e8a:	57                   	push   %rdi
  101e8b:	57                   	push   %rdi
  101e8c:	56                   	push   %rsi
  101e8d:	bf 65 00 00 00       	mov    $0x65,%edi
  101e92:	0f 20 d6             	mov    %cr2,%rsi
  101e95:	e9 96 f9 ff ff       	jmp    101830 <glue>

0000000000101e9a <irq_entry_102>:
  101e9a:	57                   	push   %rdi
  101e9b:	57                   	push   %rdi
  101e9c:	56                   	push   %rsi
  101e9d:	bf 66 00 00 00       	mov    $0x66,%edi
  101ea2:	0f 20 d6             	mov    %cr2,%rsi
  101ea5:	e9 86 f9 ff ff       	jmp    101830 <glue>

0000000000101eaa <irq_entry_103>:
  101eaa:	57                   	push   %rdi
  101eab:	57                   	push   %rdi
  101eac:	56                   	push   %rsi
  101ead:	bf 67 00 00 00       	mov    $0x67,%edi
  101eb2:	0f 20 d6             	mov    %cr2,%rsi
  101eb5:	e9 76 f9 ff ff       	jmp    101830 <glue>

0000000000101eba <irq_entry_104>:
  101eba:	57                   	push   %rdi
  101ebb:	57                   	push   %rdi
  101ebc:	56                   	push   %rsi
  101ebd:	bf 68 00 00 00       	mov    $0x68,%edi
  101ec2:	0f 20 d6             	mov    %cr2,%rsi
  101ec5:	e9 66 f9 ff ff       	jmp    101830 <glue>

0000000000101eca <irq_entry_105>:
  101eca:	57                   	push   %rdi
  101ecb:	57                   	push   %rdi
  101ecc:	56                   	push   %rsi
  101ecd:	bf 69 00 00 00       	mov    $0x69,%edi
  101ed2:	0f 20 d6             	mov    %cr2,%rsi
  101ed5:	e9 56 f9 ff ff       	jmp    101830 <glue>

0000000000101eda <irq_entry_106>:
  101eda:	57                   	push   %rdi
  101edb:	57                   	push   %rdi
  101edc:	56                   	push   %rsi
  101edd:	bf 6a 00 00 00       	mov    $0x6a,%edi
  101ee2:	0f 20 d6             	mov    %cr2,%rsi
  101ee5:	e9 46 f9 ff ff       	jmp    101830 <glue>

0000000000101eea <irq_entry_107>:
  101eea:	57                   	push   %rdi
  101eeb:	57                   	push   %rdi
  101eec:	56                   	push   %rsi
  101eed:	bf 6b 00 00 00       	mov    $0x6b,%edi
  101ef2:	0f 20 d6             	mov    %cr2,%rsi
  101ef5:	e9 36 f9 ff ff       	jmp    101830 <glue>

0000000000101efa <irq_entry_108>:
  101efa:	57                   	push   %rdi
  101efb:	57                   	push   %rdi
  101efc:	56                   	push   %rsi
  101efd:	bf 6c 00 00 00       	mov    $0x6c,%edi
  101f02:	0f 20 d6             	mov    %cr2,%rsi
  101f05:	e9 26 f9 ff ff       	jmp    101830 <glue>

0000000000101f0a <irq_entry_109>:
  101f0a:	57                   	push   %rdi
  101f0b:	57                   	push   %rdi
  101f0c:	56                   	push   %rsi
  101f0d:	bf 6d 00 00 00       	mov    $0x6d,%edi
  101f12:	0f 20 d6             	mov    %cr2,%rsi
  101f15:	e9 16 f9 ff ff       	jmp    101830 <glue>

0000000000101f1a <irq_entry_110>:
  101f1a:	57                   	push   %rdi
  101f1b:	57                   	push   %rdi
  101f1c:	56                   	push   %rsi
  101f1d:	bf 6e 00 00 00       	mov    $0x6e,%edi
  101f22:	0f 20 d6             	mov    %cr2,%rsi
  101f25:	e9 06 f9 ff ff       	jmp    101830 <glue>

0000000000101f2a <irq_entry_111>:
  101f2a:	57                   	push   %rdi
  101f2b:	57                   	push   %rdi
  101f2c:	56                   	push   %rsi
  101f2d:	bf 6f 00 00 00       	mov    $0x6f,%edi
  101f32:	0f 20 d6             	mov    %cr2,%rsi
  101f35:	e9 f6 f8 ff ff       	jmp    101830 <glue>

0000000000101f3a <irq_entry_112>:
  101f3a:	57                   	push   %rdi
  101f3b:	57                   	push   %rdi
  101f3c:	56                   	push   %rsi
  101f3d:	bf 70 00 00 00       	mov    $0x70,%edi
  101f42:	0f 20 d6             	mov    %cr2,%rsi
  101f45:	e9 e6 f8 ff ff       	jmp    101830 <glue>

0000000000101f4a <irq_entry_113>:
  101f4a:	57                   	push   %rdi
  101f4b:	57                   	push   %rdi
  101f4c:	56                   	push   %rsi
  101f4d:	bf 71 00 00 00       	mov    $0x71,%edi
  101f52:	0f 20 d6             	mov    %cr2,%rsi
  101f55:	e9 d6 f8 ff ff       	jmp    101830 <glue>

0000000000101f5a <irq_entry_114>:
  101f5a:	57                   	push   %rdi
  101f5b:	57                   	push   %rdi
  101f5c:	56                   	push   %rsi
  101f5d:	bf 72 00 00 00       	mov    $0x72,%edi
  101f62:	0f 20 d6             	mov    %cr2,%rsi
  101f65:	e9 c6 f8 ff ff       	jmp    101830 <glue>

0000000000101f6a <irq_entry_115>:
  101f6a:	57                   	push   %rdi
  101f6b:	57                   	push   %rdi
  101f6c:	56                   	push   %rsi
  101f6d:	bf 73 00 00 00       	mov    $0x73,%edi
  101f72:	0f 20 d6             	mov    %cr2,%rsi
  101f75:	e9 b6 f8 ff ff       	jmp    101830 <glue>

0000000000101f7a <irq_entry_116>:
  101f7a:	57                   	push   %rdi
  101f7b:	57                   	push   %rdi
  101f7c:	56                   	push   %rsi
  101f7d:	bf 74 00 00 00       	mov    $0x74,%edi
  101f82:	0f 20 d6             	mov    %cr2,%rsi
  101f85:	e9 a6 f8 ff ff       	jmp    101830 <glue>

0000000000101f8a <irq_entry_117>:
  101f8a:	57                   	push   %rdi
  101f8b:	57                   	push   %rdi
  101f8c:	56                   	push   %rsi
  101f8d:	bf 75 00 00 00       	mov    $0x75,%edi
  101f92:	0f 20 d6             	mov    %cr2,%rsi
  101f95:	e9 96 f8 ff ff       	jmp    101830 <glue>

0000000000101f9a <irq_entry_118>:
  101f9a:	57                   	push   %rdi
  101f9b:	57                   	push   %rdi
  101f9c:	56                   	push   %rsi
  101f9d:	bf 76 00 00 00       	mov    $0x76,%edi
  101fa2:	0f 20 d6             	mov    %cr2,%rsi
  101fa5:	e9 86 f8 ff ff       	jmp    101830 <glue>

0000000000101faa <irq_entry_119>:
  101faa:	57                   	push   %rdi
  101fab:	57                   	push   %rdi
  101fac:	56                   	push   %rsi
  101fad:	bf 77 00 00 00       	mov    $0x77,%edi
  101fb2:	0f 20 d6             	mov    %cr2,%rsi
  101fb5:	e9 76 f8 ff ff       	jmp    101830 <glue>

0000000000101fba <irq_entry_120>:
  101fba:	57                   	push   %rdi
  101fbb:	57                   	push   %rdi
  101fbc:	56                   	push   %rsi
  101fbd:	bf 78 00 00 00       	mov    $0x78,%edi
  101fc2:	0f 20 d6             	mov    %cr2,%rsi
  101fc5:	e9 66 f8 ff ff       	jmp    101830 <glue>

0000000000101fca <irq_entry_121>:
  101fca:	57                   	push   %rdi
  101fcb:	57                   	push   %rdi
  101fcc:	56                   	push   %rsi
  101fcd:	bf 79 00 00 00       	mov    $0x79,%edi
  101fd2:	0f 20 d6             	mov    %cr2,%rsi
  101fd5:	e9 56 f8 ff ff       	jmp    101830 <glue>

0000000000101fda <irq_entry_122>:
  101fda:	57                   	push   %rdi
  101fdb:	57                   	push   %rdi
  101fdc:	56                   	push   %rsi
  101fdd:	bf 7a 00 00 00       	mov    $0x7a,%edi
  101fe2:	0f 20 d6             	mov    %cr2,%rsi
  101fe5:	e9 46 f8 ff ff       	jmp    101830 <glue>

0000000000101fea <irq_entry_123>:
  101fea:	57                   	push   %rdi
  101feb:	57                   	push   %rdi
  101fec:	56                   	push   %rsi
  101fed:	bf 7b 00 00 00       	mov    $0x7b,%edi
  101ff2:	0f 20 d6             	mov    %cr2,%rsi
  101ff5:	e9 36 f8 ff ff       	jmp    101830 <glue>

0000000000101ffa <irq_entry_124>:
  101ffa:	57                   	push   %rdi
  101ffb:	57                   	push   %rdi
  101ffc:	56                   	push   %rsi
  101ffd:	bf 7c 00 00 00       	mov    $0x7c,%edi
  102002:	0f 20 d6             	mov    %cr2,%rsi
  102005:	e9 26 f8 ff ff       	jmp    101830 <glue>

000000000010200a <irq_entry_125>:
  10200a:	57                   	push   %rdi
  10200b:	57                   	push   %rdi
  10200c:	56                   	push   %rsi
  10200d:	bf 7d 00 00 00       	mov    $0x7d,%edi
  102012:	0f 20 d6             	mov    %cr2,%rsi
  102015:	e9 16 f8 ff ff       	jmp    101830 <glue>

000000000010201a <irq_entry_126>:
  10201a:	57                   	push   %rdi
  10201b:	57                   	push   %rdi
  10201c:	56                   	push   %rsi
  10201d:	bf 7e 00 00 00       	mov    $0x7e,%edi
  102022:	0f 20 d6             	mov    %cr2,%rsi
  102025:	e9 06 f8 ff ff       	jmp    101830 <glue>

000000000010202a <irq_entry_127>:
  10202a:	57                   	push   %rdi
  10202b:	57                   	push   %rdi
  10202c:	56                   	push   %rsi
  10202d:	bf 7f 00 00 00       	mov    $0x7f,%edi
  102032:	0f 20 d6             	mov    %cr2,%rsi
  102035:	e9 f6 f7 ff ff       	jmp    101830 <glue>

000000000010203a <irq_entry_128>:
  10203a:	57                   	push   %rdi
  10203b:	57                   	push   %rdi
  10203c:	56                   	push   %rsi
  10203d:	bf 80 00 00 00       	mov    $0x80,%edi
  102042:	0f 20 d6             	mov    %cr2,%rsi
  102045:	e9 e6 f7 ff ff       	jmp    101830 <glue>

000000000010204a <irq_entry_129>:
  10204a:	57                   	push   %rdi
  10204b:	57                   	push   %rdi
  10204c:	56                   	push   %rsi
  10204d:	bf 81 00 00 00       	mov    $0x81,%edi
  102052:	0f 20 d6             	mov    %cr2,%rsi
  102055:	e9 d6 f7 ff ff       	jmp    101830 <glue>

000000000010205a <irq_entry_130>:
  10205a:	57                   	push   %rdi
  10205b:	57                   	push   %rdi
  10205c:	56                   	push   %rsi
  10205d:	bf 82 00 00 00       	mov    $0x82,%edi
  102062:	0f 20 d6             	mov    %cr2,%rsi
  102065:	e9 c6 f7 ff ff       	jmp    101830 <glue>

000000000010206a <irq_entry_131>:
  10206a:	57                   	push   %rdi
  10206b:	57                   	push   %rdi
  10206c:	56                   	push   %rsi
  10206d:	bf 83 00 00 00       	mov    $0x83,%edi
  102072:	0f 20 d6             	mov    %cr2,%rsi
  102075:	e9 b6 f7 ff ff       	jmp    101830 <glue>

000000000010207a <irq_entry_132>:
  10207a:	57                   	push   %rdi
  10207b:	57                   	push   %rdi
  10207c:	56                   	push   %rsi
  10207d:	bf 84 00 00 00       	mov    $0x84,%edi
  102082:	0f 20 d6             	mov    %cr2,%rsi
  102085:	e9 a6 f7 ff ff       	jmp    101830 <glue>

000000000010208a <irq_entry_133>:
  10208a:	57                   	push   %rdi
  10208b:	57                   	push   %rdi
  10208c:	56                   	push   %rsi
  10208d:	bf 85 00 00 00       	mov    $0x85,%edi
  102092:	0f 20 d6             	mov    %cr2,%rsi
  102095:	e9 96 f7 ff ff       	jmp    101830 <glue>

000000000010209a <irq_entry_134>:
  10209a:	57                   	push   %rdi
  10209b:	57                   	push   %rdi
  10209c:	56                   	push   %rsi
  10209d:	bf 86 00 00 00       	mov    $0x86,%edi
  1020a2:	0f 20 d6             	mov    %cr2,%rsi
  1020a5:	e9 86 f7 ff ff       	jmp    101830 <glue>

00000000001020aa <irq_entry_135>:
  1020aa:	57                   	push   %rdi
  1020ab:	57                   	push   %rdi
  1020ac:	56                   	push   %rsi
  1020ad:	bf 87 00 00 00       	mov    $0x87,%edi
  1020b2:	0f 20 d6             	mov    %cr2,%rsi
  1020b5:	e9 76 f7 ff ff       	jmp    101830 <glue>

00000000001020ba <irq_entry_136>:
  1020ba:	57                   	push   %rdi
  1020bb:	57                   	push   %rdi
  1020bc:	56                   	push   %rsi
  1020bd:	bf 88 00 00 00       	mov    $0x88,%edi
  1020c2:	0f 20 d6             	mov    %cr2,%rsi
  1020c5:	e9 66 f7 ff ff       	jmp    101830 <glue>

00000000001020ca <irq_entry_137>:
  1020ca:	57                   	push   %rdi
  1020cb:	57                   	push   %rdi
  1020cc:	56                   	push   %rsi
  1020cd:	bf 89 00 00 00       	mov    $0x89,%edi
  1020d2:	0f 20 d6             	mov    %cr2,%rsi
  1020d5:	e9 56 f7 ff ff       	jmp    101830 <glue>

00000000001020da <irq_entry_138>:
  1020da:	57                   	push   %rdi
  1020db:	57                   	push   %rdi
  1020dc:	56                   	push   %rsi
  1020dd:	bf 8a 00 00 00       	mov    $0x8a,%edi
  1020e2:	0f 20 d6             	mov    %cr2,%rsi
  1020e5:	e9 46 f7 ff ff       	jmp    101830 <glue>

00000000001020ea <irq_entry_139>:
  1020ea:	57                   	push   %rdi
  1020eb:	57                   	push   %rdi
  1020ec:	56                   	push   %rsi
  1020ed:	bf 8b 00 00 00       	mov    $0x8b,%edi
  1020f2:	0f 20 d6             	mov    %cr2,%rsi
  1020f5:	e9 36 f7 ff ff       	jmp    101830 <glue>

00000000001020fa <irq_entry_140>:
  1020fa:	57                   	push   %rdi
  1020fb:	57                   	push   %rdi
  1020fc:	56                   	push   %rsi
  1020fd:	bf 8c 00 00 00       	mov    $0x8c,%edi
  102102:	0f 20 d6             	mov    %cr2,%rsi
  102105:	e9 26 f7 ff ff       	jmp    101830 <glue>

000000000010210a <irq_entry_141>:
  10210a:	57                   	push   %rdi
  10210b:	57                   	push   %rdi
  10210c:	56                   	push   %rsi
  10210d:	bf 8d 00 00 00       	mov    $0x8d,%edi
  102112:	0f 20 d6             	mov    %cr2,%rsi
  102115:	e9 16 f7 ff ff       	jmp    101830 <glue>

000000000010211a <irq_entry_142>:
  10211a:	57                   	push   %rdi
  10211b:	57                   	push   %rdi
  10211c:	56                   	push   %rsi
  10211d:	bf 8e 00 00 00       	mov    $0x8e,%edi
  102122:	0f 20 d6             	mov    %cr2,%rsi
  102125:	e9 06 f7 ff ff       	jmp    101830 <glue>

000000000010212a <irq_entry_143>:
  10212a:	57                   	push   %rdi
  10212b:	57                   	push   %rdi
  10212c:	56                   	push   %rsi
  10212d:	bf 8f 00 00 00       	mov    $0x8f,%edi
  102132:	0f 20 d6             	mov    %cr2,%rsi
  102135:	e9 f6 f6 ff ff       	jmp    101830 <glue>

000000000010213a <irq_entry_144>:
  10213a:	57                   	push   %rdi
  10213b:	57                   	push   %rdi
  10213c:	56                   	push   %rsi
  10213d:	bf 90 00 00 00       	mov    $0x90,%edi
  102142:	0f 20 d6             	mov    %cr2,%rsi
  102145:	e9 e6 f6 ff ff       	jmp    101830 <glue>

000000000010214a <irq_entry_145>:
  10214a:	57                   	push   %rdi
  10214b:	57                   	push   %rdi
  10214c:	56                   	push   %rsi
  10214d:	bf 91 00 00 00       	mov    $0x91,%edi
  102152:	0f 20 d6             	mov    %cr2,%rsi
  102155:	e9 d6 f6 ff ff       	jmp    101830 <glue>

000000000010215a <irq_entry_146>:
  10215a:	57                   	push   %rdi
  10215b:	57                   	push   %rdi
  10215c:	56                   	push   %rsi
  10215d:	bf 92 00 00 00       	mov    $0x92,%edi
  102162:	0f 20 d6             	mov    %cr2,%rsi
  102165:	e9 c6 f6 ff ff       	jmp    101830 <glue>

000000000010216a <irq_entry_147>:
  10216a:	57                   	push   %rdi
  10216b:	57                   	push   %rdi
  10216c:	56                   	push   %rsi
  10216d:	bf 93 00 00 00       	mov    $0x93,%edi
  102172:	0f 20 d6             	mov    %cr2,%rsi
  102175:	e9 b6 f6 ff ff       	jmp    101830 <glue>

000000000010217a <irq_entry_148>:
  10217a:	57                   	push   %rdi
  10217b:	57                   	push   %rdi
  10217c:	56                   	push   %rsi
  10217d:	bf 94 00 00 00       	mov    $0x94,%edi
  102182:	0f 20 d6             	mov    %cr2,%rsi
  102185:	e9 a6 f6 ff ff       	jmp    101830 <glue>

000000000010218a <irq_entry_149>:
  10218a:	57                   	push   %rdi
  10218b:	57                   	push   %rdi
  10218c:	56                   	push   %rsi
  10218d:	bf 95 00 00 00       	mov    $0x95,%edi
  102192:	0f 20 d6             	mov    %cr2,%rsi
  102195:	e9 96 f6 ff ff       	jmp    101830 <glue>

000000000010219a <irq_entry_150>:
  10219a:	57                   	push   %rdi
  10219b:	57                   	push   %rdi
  10219c:	56                   	push   %rsi
  10219d:	bf 96 00 00 00       	mov    $0x96,%edi
  1021a2:	0f 20 d6             	mov    %cr2,%rsi
  1021a5:	e9 86 f6 ff ff       	jmp    101830 <glue>

00000000001021aa <irq_entry_151>:
  1021aa:	57                   	push   %rdi
  1021ab:	57                   	push   %rdi
  1021ac:	56                   	push   %rsi
  1021ad:	bf 97 00 00 00       	mov    $0x97,%edi
  1021b2:	0f 20 d6             	mov    %cr2,%rsi
  1021b5:	e9 76 f6 ff ff       	jmp    101830 <glue>

00000000001021ba <irq_entry_152>:
  1021ba:	57                   	push   %rdi
  1021bb:	57                   	push   %rdi
  1021bc:	56                   	push   %rsi
  1021bd:	bf 98 00 00 00       	mov    $0x98,%edi
  1021c2:	0f 20 d6             	mov    %cr2,%rsi
  1021c5:	e9 66 f6 ff ff       	jmp    101830 <glue>

00000000001021ca <irq_entry_153>:
  1021ca:	57                   	push   %rdi
  1021cb:	57                   	push   %rdi
  1021cc:	56                   	push   %rsi
  1021cd:	bf 99 00 00 00       	mov    $0x99,%edi
  1021d2:	0f 20 d6             	mov    %cr2,%rsi
  1021d5:	e9 56 f6 ff ff       	jmp    101830 <glue>

00000000001021da <irq_entry_154>:
  1021da:	57                   	push   %rdi
  1021db:	57                   	push   %rdi
  1021dc:	56                   	push   %rsi
  1021dd:	bf 9a 00 00 00       	mov    $0x9a,%edi
  1021e2:	0f 20 d6             	mov    %cr2,%rsi
  1021e5:	e9 46 f6 ff ff       	jmp    101830 <glue>

00000000001021ea <irq_entry_155>:
  1021ea:	57                   	push   %rdi
  1021eb:	57                   	push   %rdi
  1021ec:	56                   	push   %rsi
  1021ed:	bf 9b 00 00 00       	mov    $0x9b,%edi
  1021f2:	0f 20 d6             	mov    %cr2,%rsi
  1021f5:	e9 36 f6 ff ff       	jmp    101830 <glue>

00000000001021fa <irq_entry_156>:
  1021fa:	57                   	push   %rdi
  1021fb:	57                   	push   %rdi
  1021fc:	56                   	push   %rsi
  1021fd:	bf 9c 00 00 00       	mov    $0x9c,%edi
  102202:	0f 20 d6             	mov    %cr2,%rsi
  102205:	e9 26 f6 ff ff       	jmp    101830 <glue>

000000000010220a <irq_entry_157>:
  10220a:	57                   	push   %rdi
  10220b:	57                   	push   %rdi
  10220c:	56                   	push   %rsi
  10220d:	bf 9d 00 00 00       	mov    $0x9d,%edi
  102212:	0f 20 d6             	mov    %cr2,%rsi
  102215:	e9 16 f6 ff ff       	jmp    101830 <glue>

000000000010221a <irq_entry_158>:
  10221a:	57                   	push   %rdi
  10221b:	57                   	push   %rdi
  10221c:	56                   	push   %rsi
  10221d:	bf 9e 00 00 00       	mov    $0x9e,%edi
  102222:	0f 20 d6             	mov    %cr2,%rsi
  102225:	e9 06 f6 ff ff       	jmp    101830 <glue>

000000000010222a <irq_entry_159>:
  10222a:	57                   	push   %rdi
  10222b:	57                   	push   %rdi
  10222c:	56                   	push   %rsi
  10222d:	bf 9f 00 00 00       	mov    $0x9f,%edi
  102232:	0f 20 d6             	mov    %cr2,%rsi
  102235:	e9 f6 f5 ff ff       	jmp    101830 <glue>

000000000010223a <irq_entry_160>:
  10223a:	57                   	push   %rdi
  10223b:	57                   	push   %rdi
  10223c:	56                   	push   %rsi
  10223d:	bf a0 00 00 00       	mov    $0xa0,%edi
  102242:	0f 20 d6             	mov    %cr2,%rsi
  102245:	e9 e6 f5 ff ff       	jmp    101830 <glue>

000000000010224a <irq_entry_161>:
  10224a:	57                   	push   %rdi
  10224b:	57                   	push   %rdi
  10224c:	56                   	push   %rsi
  10224d:	bf a1 00 00 00       	mov    $0xa1,%edi
  102252:	0f 20 d6             	mov    %cr2,%rsi
  102255:	e9 d6 f5 ff ff       	jmp    101830 <glue>

000000000010225a <irq_entry_162>:
  10225a:	57                   	push   %rdi
  10225b:	57                   	push   %rdi
  10225c:	56                   	push   %rsi
  10225d:	bf a2 00 00 00       	mov    $0xa2,%edi
  102262:	0f 20 d6             	mov    %cr2,%rsi
  102265:	e9 c6 f5 ff ff       	jmp    101830 <glue>

000000000010226a <irq_entry_163>:
  10226a:	57                   	push   %rdi
  10226b:	57                   	push   %rdi
  10226c:	56                   	push   %rsi
  10226d:	bf a3 00 00 00       	mov    $0xa3,%edi
  102272:	0f 20 d6             	mov    %cr2,%rsi
  102275:	e9 b6 f5 ff ff       	jmp    101830 <glue>

000000000010227a <irq_entry_164>:
  10227a:	57                   	push   %rdi
  10227b:	57                   	push   %rdi
  10227c:	56                   	push   %rsi
  10227d:	bf a4 00 00 00       	mov    $0xa4,%edi
  102282:	0f 20 d6             	mov    %cr2,%rsi
  102285:	e9 a6 f5 ff ff       	jmp    101830 <glue>

000000000010228a <irq_entry_165>:
  10228a:	57                   	push   %rdi
  10228b:	57                   	push   %rdi
  10228c:	56                   	push   %rsi
  10228d:	bf a5 00 00 00       	mov    $0xa5,%edi
  102292:	0f 20 d6             	mov    %cr2,%rsi
  102295:	e9 96 f5 ff ff       	jmp    101830 <glue>

000000000010229a <irq_entry_166>:
  10229a:	57                   	push   %rdi
  10229b:	57                   	push   %rdi
  10229c:	56                   	push   %rsi
  10229d:	bf a6 00 00 00       	mov    $0xa6,%edi
  1022a2:	0f 20 d6             	mov    %cr2,%rsi
  1022a5:	e9 86 f5 ff ff       	jmp    101830 <glue>

00000000001022aa <irq_entry_167>:
  1022aa:	57                   	push   %rdi
  1022ab:	57                   	push   %rdi
  1022ac:	56                   	push   %rsi
  1022ad:	bf a7 00 00 00       	mov    $0xa7,%edi
  1022b2:	0f 20 d6             	mov    %cr2,%rsi
  1022b5:	e9 76 f5 ff ff       	jmp    101830 <glue>

00000000001022ba <irq_entry_168>:
  1022ba:	57                   	push   %rdi
  1022bb:	57                   	push   %rdi
  1022bc:	56                   	push   %rsi
  1022bd:	bf a8 00 00 00       	mov    $0xa8,%edi
  1022c2:	0f 20 d6             	mov    %cr2,%rsi
  1022c5:	e9 66 f5 ff ff       	jmp    101830 <glue>

00000000001022ca <irq_entry_169>:
  1022ca:	57                   	push   %rdi
  1022cb:	57                   	push   %rdi
  1022cc:	56                   	push   %rsi
  1022cd:	bf a9 00 00 00       	mov    $0xa9,%edi
  1022d2:	0f 20 d6             	mov    %cr2,%rsi
  1022d5:	e9 56 f5 ff ff       	jmp    101830 <glue>

00000000001022da <irq_entry_170>:
  1022da:	57                   	push   %rdi
  1022db:	57                   	push   %rdi
  1022dc:	56                   	push   %rsi
  1022dd:	bf aa 00 00 00       	mov    $0xaa,%edi
  1022e2:	0f 20 d6             	mov    %cr2,%rsi
  1022e5:	e9 46 f5 ff ff       	jmp    101830 <glue>

00000000001022ea <irq_entry_171>:
  1022ea:	57                   	push   %rdi
  1022eb:	57                   	push   %rdi
  1022ec:	56                   	push   %rsi
  1022ed:	bf ab 00 00 00       	mov    $0xab,%edi
  1022f2:	0f 20 d6             	mov    %cr2,%rsi
  1022f5:	e9 36 f5 ff ff       	jmp    101830 <glue>

00000000001022fa <irq_entry_172>:
  1022fa:	57                   	push   %rdi
  1022fb:	57                   	push   %rdi
  1022fc:	56                   	push   %rsi
  1022fd:	bf ac 00 00 00       	mov    $0xac,%edi
  102302:	0f 20 d6             	mov    %cr2,%rsi
  102305:	e9 26 f5 ff ff       	jmp    101830 <glue>

000000000010230a <irq_entry_173>:
  10230a:	57                   	push   %rdi
  10230b:	57                   	push   %rdi
  10230c:	56                   	push   %rsi
  10230d:	bf ad 00 00 00       	mov    $0xad,%edi
  102312:	0f 20 d6             	mov    %cr2,%rsi
  102315:	e9 16 f5 ff ff       	jmp    101830 <glue>

000000000010231a <irq_entry_174>:
  10231a:	57                   	push   %rdi
  10231b:	57                   	push   %rdi
  10231c:	56                   	push   %rsi
  10231d:	bf ae 00 00 00       	mov    $0xae,%edi
  102322:	0f 20 d6             	mov    %cr2,%rsi
  102325:	e9 06 f5 ff ff       	jmp    101830 <glue>

000000000010232a <irq_entry_175>:
  10232a:	57                   	push   %rdi
  10232b:	57                   	push   %rdi
  10232c:	56                   	push   %rsi
  10232d:	bf af 00 00 00       	mov    $0xaf,%edi
  102332:	0f 20 d6             	mov    %cr2,%rsi
  102335:	e9 f6 f4 ff ff       	jmp    101830 <glue>

000000000010233a <irq_entry_176>:
  10233a:	57                   	push   %rdi
  10233b:	57                   	push   %rdi
  10233c:	56                   	push   %rsi
  10233d:	bf b0 00 00 00       	mov    $0xb0,%edi
  102342:	0f 20 d6             	mov    %cr2,%rsi
  102345:	e9 e6 f4 ff ff       	jmp    101830 <glue>

000000000010234a <irq_entry_177>:
  10234a:	57                   	push   %rdi
  10234b:	57                   	push   %rdi
  10234c:	56                   	push   %rsi
  10234d:	bf b1 00 00 00       	mov    $0xb1,%edi
  102352:	0f 20 d6             	mov    %cr2,%rsi
  102355:	e9 d6 f4 ff ff       	jmp    101830 <glue>

000000000010235a <irq_entry_178>:
  10235a:	57                   	push   %rdi
  10235b:	57                   	push   %rdi
  10235c:	56                   	push   %rsi
  10235d:	bf b2 00 00 00       	mov    $0xb2,%edi
  102362:	0f 20 d6             	mov    %cr2,%rsi
  102365:	e9 c6 f4 ff ff       	jmp    101830 <glue>

000000000010236a <irq_entry_179>:
  10236a:	57                   	push   %rdi
  10236b:	57                   	push   %rdi
  10236c:	56                   	push   %rsi
  10236d:	bf b3 00 00 00       	mov    $0xb3,%edi
  102372:	0f 20 d6             	mov    %cr2,%rsi
  102375:	e9 b6 f4 ff ff       	jmp    101830 <glue>

000000000010237a <irq_entry_180>:
  10237a:	57                   	push   %rdi
  10237b:	57                   	push   %rdi
  10237c:	56                   	push   %rsi
  10237d:	bf b4 00 00 00       	mov    $0xb4,%edi
  102382:	0f 20 d6             	mov    %cr2,%rsi
  102385:	e9 a6 f4 ff ff       	jmp    101830 <glue>

000000000010238a <irq_entry_181>:
  10238a:	57                   	push   %rdi
  10238b:	57                   	push   %rdi
  10238c:	56                   	push   %rsi
  10238d:	bf b5 00 00 00       	mov    $0xb5,%edi
  102392:	0f 20 d6             	mov    %cr2,%rsi
  102395:	e9 96 f4 ff ff       	jmp    101830 <glue>

000000000010239a <irq_entry_182>:
  10239a:	57                   	push   %rdi
  10239b:	57                   	push   %rdi
  10239c:	56                   	push   %rsi
  10239d:	bf b6 00 00 00       	mov    $0xb6,%edi
  1023a2:	0f 20 d6             	mov    %cr2,%rsi
  1023a5:	e9 86 f4 ff ff       	jmp    101830 <glue>

00000000001023aa <irq_entry_183>:
  1023aa:	57                   	push   %rdi
  1023ab:	57                   	push   %rdi
  1023ac:	56                   	push   %rsi
  1023ad:	bf b7 00 00 00       	mov    $0xb7,%edi
  1023b2:	0f 20 d6             	mov    %cr2,%rsi
  1023b5:	e9 76 f4 ff ff       	jmp    101830 <glue>

00000000001023ba <irq_entry_184>:
  1023ba:	57                   	push   %rdi
  1023bb:	57                   	push   %rdi
  1023bc:	56                   	push   %rsi
  1023bd:	bf b8 00 00 00       	mov    $0xb8,%edi
  1023c2:	0f 20 d6             	mov    %cr2,%rsi
  1023c5:	e9 66 f4 ff ff       	jmp    101830 <glue>

00000000001023ca <irq_entry_185>:
  1023ca:	57                   	push   %rdi
  1023cb:	57                   	push   %rdi
  1023cc:	56                   	push   %rsi
  1023cd:	bf b9 00 00 00       	mov    $0xb9,%edi
  1023d2:	0f 20 d6             	mov    %cr2,%rsi
  1023d5:	e9 56 f4 ff ff       	jmp    101830 <glue>

00000000001023da <irq_entry_186>:
  1023da:	57                   	push   %rdi
  1023db:	57                   	push   %rdi
  1023dc:	56                   	push   %rsi
  1023dd:	bf ba 00 00 00       	mov    $0xba,%edi
  1023e2:	0f 20 d6             	mov    %cr2,%rsi
  1023e5:	e9 46 f4 ff ff       	jmp    101830 <glue>

00000000001023ea <irq_entry_187>:
  1023ea:	57                   	push   %rdi
  1023eb:	57                   	push   %rdi
  1023ec:	56                   	push   %rsi
  1023ed:	bf bb 00 00 00       	mov    $0xbb,%edi
  1023f2:	0f 20 d6             	mov    %cr2,%rsi
  1023f5:	e9 36 f4 ff ff       	jmp    101830 <glue>

00000000001023fa <irq_entry_188>:
  1023fa:	57                   	push   %rdi
  1023fb:	57                   	push   %rdi
  1023fc:	56                   	push   %rsi
  1023fd:	bf bc 00 00 00       	mov    $0xbc,%edi
  102402:	0f 20 d6             	mov    %cr2,%rsi
  102405:	e9 26 f4 ff ff       	jmp    101830 <glue>

000000000010240a <irq_entry_189>:
  10240a:	57                   	push   %rdi
  10240b:	57                   	push   %rdi
  10240c:	56                   	push   %rsi
  10240d:	bf bd 00 00 00       	mov    $0xbd,%edi
  102412:	0f 20 d6             	mov    %cr2,%rsi
  102415:	e9 16 f4 ff ff       	jmp    101830 <glue>

000000000010241a <irq_entry_190>:
  10241a:	57                   	push   %rdi
  10241b:	57                   	push   %rdi
  10241c:	56                   	push   %rsi
  10241d:	bf be 00 00 00       	mov    $0xbe,%edi
  102422:	0f 20 d6             	mov    %cr2,%rsi
  102425:	e9 06 f4 ff ff       	jmp    101830 <glue>

000000000010242a <irq_entry_191>:
  10242a:	57                   	push   %rdi
  10242b:	57                   	push   %rdi
  10242c:	56                   	push   %rsi
  10242d:	bf bf 00 00 00       	mov    $0xbf,%edi
  102432:	0f 20 d6             	mov    %cr2,%rsi
  102435:	e9 f6 f3 ff ff       	jmp    101830 <glue>

000000000010243a <irq_entry_192>:
  10243a:	57                   	push   %rdi
  10243b:	57                   	push   %rdi
  10243c:	56                   	push   %rsi
  10243d:	bf c0 00 00 00       	mov    $0xc0,%edi
  102442:	0f 20 d6             	mov    %cr2,%rsi
  102445:	e9 e6 f3 ff ff       	jmp    101830 <glue>

000000000010244a <irq_entry_193>:
  10244a:	57                   	push   %rdi
  10244b:	57                   	push   %rdi
  10244c:	56                   	push   %rsi
  10244d:	bf c1 00 00 00       	mov    $0xc1,%edi
  102452:	0f 20 d6             	mov    %cr2,%rsi
  102455:	e9 d6 f3 ff ff       	jmp    101830 <glue>

000000000010245a <irq_entry_194>:
  10245a:	57                   	push   %rdi
  10245b:	57                   	push   %rdi
  10245c:	56                   	push   %rsi
  10245d:	bf c2 00 00 00       	mov    $0xc2,%edi
  102462:	0f 20 d6             	mov    %cr2,%rsi
  102465:	e9 c6 f3 ff ff       	jmp    101830 <glue>

000000000010246a <irq_entry_195>:
  10246a:	57                   	push   %rdi
  10246b:	57                   	push   %rdi
  10246c:	56                   	push   %rsi
  10246d:	bf c3 00 00 00       	mov    $0xc3,%edi
  102472:	0f 20 d6             	mov    %cr2,%rsi
  102475:	e9 b6 f3 ff ff       	jmp    101830 <glue>

000000000010247a <irq_entry_196>:
  10247a:	57                   	push   %rdi
  10247b:	57                   	push   %rdi
  10247c:	56                   	push   %rsi
  10247d:	bf c4 00 00 00       	mov    $0xc4,%edi
  102482:	0f 20 d6             	mov    %cr2,%rsi
  102485:	e9 a6 f3 ff ff       	jmp    101830 <glue>

000000000010248a <irq_entry_197>:
  10248a:	57                   	push   %rdi
  10248b:	57                   	push   %rdi
  10248c:	56                   	push   %rsi
  10248d:	bf c5 00 00 00       	mov    $0xc5,%edi
  102492:	0f 20 d6             	mov    %cr2,%rsi
  102495:	e9 96 f3 ff ff       	jmp    101830 <glue>

000000000010249a <irq_entry_198>:
  10249a:	57                   	push   %rdi
  10249b:	57                   	push   %rdi
  10249c:	56                   	push   %rsi
  10249d:	bf c6 00 00 00       	mov    $0xc6,%edi
  1024a2:	0f 20 d6             	mov    %cr2,%rsi
  1024a5:	e9 86 f3 ff ff       	jmp    101830 <glue>

00000000001024aa <irq_entry_199>:
  1024aa:	57                   	push   %rdi
  1024ab:	57                   	push   %rdi
  1024ac:	56                   	push   %rsi
  1024ad:	bf c7 00 00 00       	mov    $0xc7,%edi
  1024b2:	0f 20 d6             	mov    %cr2,%rsi
  1024b5:	e9 76 f3 ff ff       	jmp    101830 <glue>

00000000001024ba <irq_entry_200>:
  1024ba:	57                   	push   %rdi
  1024bb:	57                   	push   %rdi
  1024bc:	56                   	push   %rsi
  1024bd:	bf c8 00 00 00       	mov    $0xc8,%edi
  1024c2:	0f 20 d6             	mov    %cr2,%rsi
  1024c5:	e9 66 f3 ff ff       	jmp    101830 <glue>

00000000001024ca <irq_entry_201>:
  1024ca:	57                   	push   %rdi
  1024cb:	57                   	push   %rdi
  1024cc:	56                   	push   %rsi
  1024cd:	bf c9 00 00 00       	mov    $0xc9,%edi
  1024d2:	0f 20 d6             	mov    %cr2,%rsi
  1024d5:	e9 56 f3 ff ff       	jmp    101830 <glue>

00000000001024da <irq_entry_202>:
  1024da:	57                   	push   %rdi
  1024db:	57                   	push   %rdi
  1024dc:	56                   	push   %rsi
  1024dd:	bf ca 00 00 00       	mov    $0xca,%edi
  1024e2:	0f 20 d6             	mov    %cr2,%rsi
  1024e5:	e9 46 f3 ff ff       	jmp    101830 <glue>

00000000001024ea <irq_entry_203>:
  1024ea:	57                   	push   %rdi
  1024eb:	57                   	push   %rdi
  1024ec:	56                   	push   %rsi
  1024ed:	bf cb 00 00 00       	mov    $0xcb,%edi
  1024f2:	0f 20 d6             	mov    %cr2,%rsi
  1024f5:	e9 36 f3 ff ff       	jmp    101830 <glue>

00000000001024fa <irq_entry_204>:
  1024fa:	57                   	push   %rdi
  1024fb:	57                   	push   %rdi
  1024fc:	56                   	push   %rsi
  1024fd:	bf cc 00 00 00       	mov    $0xcc,%edi
  102502:	0f 20 d6             	mov    %cr2,%rsi
  102505:	e9 26 f3 ff ff       	jmp    101830 <glue>

000000000010250a <irq_entry_205>:
  10250a:	57                   	push   %rdi
  10250b:	57                   	push   %rdi
  10250c:	56                   	push   %rsi
  10250d:	bf cd 00 00 00       	mov    $0xcd,%edi
  102512:	0f 20 d6             	mov    %cr2,%rsi
  102515:	e9 16 f3 ff ff       	jmp    101830 <glue>

000000000010251a <irq_entry_206>:
  10251a:	57                   	push   %rdi
  10251b:	57                   	push   %rdi
  10251c:	56                   	push   %rsi
  10251d:	bf ce 00 00 00       	mov    $0xce,%edi
  102522:	0f 20 d6             	mov    %cr2,%rsi
  102525:	e9 06 f3 ff ff       	jmp    101830 <glue>

000000000010252a <irq_entry_207>:
  10252a:	57                   	push   %rdi
  10252b:	57                   	push   %rdi
  10252c:	56                   	push   %rsi
  10252d:	bf cf 00 00 00       	mov    $0xcf,%edi
  102532:	0f 20 d6             	mov    %cr2,%rsi
  102535:	e9 f6 f2 ff ff       	jmp    101830 <glue>

000000000010253a <irq_entry_208>:
  10253a:	57                   	push   %rdi
  10253b:	57                   	push   %rdi
  10253c:	56                   	push   %rsi
  10253d:	bf d0 00 00 00       	mov    $0xd0,%edi
  102542:	0f 20 d6             	mov    %cr2,%rsi
  102545:	e9 e6 f2 ff ff       	jmp    101830 <glue>

000000000010254a <irq_entry_209>:
  10254a:	57                   	push   %rdi
  10254b:	57                   	push   %rdi
  10254c:	56                   	push   %rsi
  10254d:	bf d1 00 00 00       	mov    $0xd1,%edi
  102552:	0f 20 d6             	mov    %cr2,%rsi
  102555:	e9 d6 f2 ff ff       	jmp    101830 <glue>

000000000010255a <irq_entry_210>:
  10255a:	57                   	push   %rdi
  10255b:	57                   	push   %rdi
  10255c:	56                   	push   %rsi
  10255d:	bf d2 00 00 00       	mov    $0xd2,%edi
  102562:	0f 20 d6             	mov    %cr2,%rsi
  102565:	e9 c6 f2 ff ff       	jmp    101830 <glue>

000000000010256a <irq_entry_211>:
  10256a:	57                   	push   %rdi
  10256b:	57                   	push   %rdi
  10256c:	56                   	push   %rsi
  10256d:	bf d3 00 00 00       	mov    $0xd3,%edi
  102572:	0f 20 d6             	mov    %cr2,%rsi
  102575:	e9 b6 f2 ff ff       	jmp    101830 <glue>

000000000010257a <irq_entry_212>:
  10257a:	57                   	push   %rdi
  10257b:	57                   	push   %rdi
  10257c:	56                   	push   %rsi
  10257d:	bf d4 00 00 00       	mov    $0xd4,%edi
  102582:	0f 20 d6             	mov    %cr2,%rsi
  102585:	e9 a6 f2 ff ff       	jmp    101830 <glue>

000000000010258a <irq_entry_213>:
  10258a:	57                   	push   %rdi
  10258b:	57                   	push   %rdi
  10258c:	56                   	push   %rsi
  10258d:	bf d5 00 00 00       	mov    $0xd5,%edi
  102592:	0f 20 d6             	mov    %cr2,%rsi
  102595:	e9 96 f2 ff ff       	jmp    101830 <glue>

000000000010259a <irq_entry_214>:
  10259a:	57                   	push   %rdi
  10259b:	57                   	push   %rdi
  10259c:	56                   	push   %rsi
  10259d:	bf d6 00 00 00       	mov    $0xd6,%edi
  1025a2:	0f 20 d6             	mov    %cr2,%rsi
  1025a5:	e9 86 f2 ff ff       	jmp    101830 <glue>

00000000001025aa <irq_entry_215>:
  1025aa:	57                   	push   %rdi
  1025ab:	57                   	push   %rdi
  1025ac:	56                   	push   %rsi
  1025ad:	bf d7 00 00 00       	mov    $0xd7,%edi
  1025b2:	0f 20 d6             	mov    %cr2,%rsi
  1025b5:	e9 76 f2 ff ff       	jmp    101830 <glue>

00000000001025ba <irq_entry_216>:
  1025ba:	57                   	push   %rdi
  1025bb:	57                   	push   %rdi
  1025bc:	56                   	push   %rsi
  1025bd:	bf d8 00 00 00       	mov    $0xd8,%edi
  1025c2:	0f 20 d6             	mov    %cr2,%rsi
  1025c5:	e9 66 f2 ff ff       	jmp    101830 <glue>

00000000001025ca <irq_entry_217>:
  1025ca:	57                   	push   %rdi
  1025cb:	57                   	push   %rdi
  1025cc:	56                   	push   %rsi
  1025cd:	bf d9 00 00 00       	mov    $0xd9,%edi
  1025d2:	0f 20 d6             	mov    %cr2,%rsi
  1025d5:	e9 56 f2 ff ff       	jmp    101830 <glue>

00000000001025da <irq_entry_218>:
  1025da:	57                   	push   %rdi
  1025db:	57                   	push   %rdi
  1025dc:	56                   	push   %rsi
  1025dd:	bf da 00 00 00       	mov    $0xda,%edi
  1025e2:	0f 20 d6             	mov    %cr2,%rsi
  1025e5:	e9 46 f2 ff ff       	jmp    101830 <glue>

00000000001025ea <irq_entry_219>:
  1025ea:	57                   	push   %rdi
  1025eb:	57                   	push   %rdi
  1025ec:	56                   	push   %rsi
  1025ed:	bf db 00 00 00       	mov    $0xdb,%edi
  1025f2:	0f 20 d6             	mov    %cr2,%rsi
  1025f5:	e9 36 f2 ff ff       	jmp    101830 <glue>

00000000001025fa <irq_entry_220>:
  1025fa:	57                   	push   %rdi
  1025fb:	57                   	push   %rdi
  1025fc:	56                   	push   %rsi
  1025fd:	bf dc 00 00 00       	mov    $0xdc,%edi
  102602:	0f 20 d6             	mov    %cr2,%rsi
  102605:	e9 26 f2 ff ff       	jmp    101830 <glue>

000000000010260a <irq_entry_221>:
  10260a:	57                   	push   %rdi
  10260b:	57                   	push   %rdi
  10260c:	56                   	push   %rsi
  10260d:	bf dd 00 00 00       	mov    $0xdd,%edi
  102612:	0f 20 d6             	mov    %cr2,%rsi
  102615:	e9 16 f2 ff ff       	jmp    101830 <glue>

000000000010261a <irq_entry_222>:
  10261a:	57                   	push   %rdi
  10261b:	57                   	push   %rdi
  10261c:	56                   	push   %rsi
  10261d:	bf de 00 00 00       	mov    $0xde,%edi
  102622:	0f 20 d6             	mov    %cr2,%rsi
  102625:	e9 06 f2 ff ff       	jmp    101830 <glue>

000000000010262a <irq_entry_223>:
  10262a:	57                   	push   %rdi
  10262b:	57                   	push   %rdi
  10262c:	56                   	push   %rsi
  10262d:	bf df 00 00 00       	mov    $0xdf,%edi
  102632:	0f 20 d6             	mov    %cr2,%rsi
  102635:	e9 f6 f1 ff ff       	jmp    101830 <glue>

000000000010263a <irq_entry_224>:
  10263a:	57                   	push   %rdi
  10263b:	57                   	push   %rdi
  10263c:	56                   	push   %rsi
  10263d:	bf e0 00 00 00       	mov    $0xe0,%edi
  102642:	0f 20 d6             	mov    %cr2,%rsi
  102645:	e9 e6 f1 ff ff       	jmp    101830 <glue>

000000000010264a <irq_entry_225>:
  10264a:	57                   	push   %rdi
  10264b:	57                   	push   %rdi
  10264c:	56                   	push   %rsi
  10264d:	bf e1 00 00 00       	mov    $0xe1,%edi
  102652:	0f 20 d6             	mov    %cr2,%rsi
  102655:	e9 d6 f1 ff ff       	jmp    101830 <glue>

000000000010265a <irq_entry_226>:
  10265a:	57                   	push   %rdi
  10265b:	57                   	push   %rdi
  10265c:	56                   	push   %rsi
  10265d:	bf e2 00 00 00       	mov    $0xe2,%edi
  102662:	0f 20 d6             	mov    %cr2,%rsi
  102665:	e9 c6 f1 ff ff       	jmp    101830 <glue>

000000000010266a <irq_entry_227>:
  10266a:	57                   	push   %rdi
  10266b:	57                   	push   %rdi
  10266c:	56                   	push   %rsi
  10266d:	bf e3 00 00 00       	mov    $0xe3,%edi
  102672:	0f 20 d6             	mov    %cr2,%rsi
  102675:	e9 b6 f1 ff ff       	jmp    101830 <glue>

000000000010267a <irq_entry_228>:
  10267a:	57                   	push   %rdi
  10267b:	57                   	push   %rdi
  10267c:	56                   	push   %rsi
  10267d:	bf e4 00 00 00       	mov    $0xe4,%edi
  102682:	0f 20 d6             	mov    %cr2,%rsi
  102685:	e9 a6 f1 ff ff       	jmp    101830 <glue>

000000000010268a <irq_entry_229>:
  10268a:	57                   	push   %rdi
  10268b:	57                   	push   %rdi
  10268c:	56                   	push   %rsi
  10268d:	bf e5 00 00 00       	mov    $0xe5,%edi
  102692:	0f 20 d6             	mov    %cr2,%rsi
  102695:	e9 96 f1 ff ff       	jmp    101830 <glue>

000000000010269a <irq_entry_230>:
  10269a:	57                   	push   %rdi
  10269b:	57                   	push   %rdi
  10269c:	56                   	push   %rsi
  10269d:	bf e6 00 00 00       	mov    $0xe6,%edi
  1026a2:	0f 20 d6             	mov    %cr2,%rsi
  1026a5:	e9 86 f1 ff ff       	jmp    101830 <glue>

00000000001026aa <irq_entry_231>:
  1026aa:	57                   	push   %rdi
  1026ab:	57                   	push   %rdi
  1026ac:	56                   	push   %rsi
  1026ad:	bf e7 00 00 00       	mov    $0xe7,%edi
  1026b2:	0f 20 d6             	mov    %cr2,%rsi
  1026b5:	e9 76 f1 ff ff       	jmp    101830 <glue>

00000000001026ba <irq_entry_232>:
  1026ba:	57                   	push   %rdi
  1026bb:	57                   	push   %rdi
  1026bc:	56                   	push   %rsi
  1026bd:	bf e8 00 00 00       	mov    $0xe8,%edi
  1026c2:	0f 20 d6             	mov    %cr2,%rsi
  1026c5:	e9 66 f1 ff ff       	jmp    101830 <glue>

00000000001026ca <irq_entry_233>:
  1026ca:	57                   	push   %rdi
  1026cb:	57                   	push   %rdi
  1026cc:	56                   	push   %rsi
  1026cd:	bf e9 00 00 00       	mov    $0xe9,%edi
  1026d2:	0f 20 d6             	mov    %cr2,%rsi
  1026d5:	e9 56 f1 ff ff       	jmp    101830 <glue>

00000000001026da <irq_entry_234>:
  1026da:	57                   	push   %rdi
  1026db:	57                   	push   %rdi
  1026dc:	56                   	push   %rsi
  1026dd:	bf ea 00 00 00       	mov    $0xea,%edi
  1026e2:	0f 20 d6             	mov    %cr2,%rsi
  1026e5:	e9 46 f1 ff ff       	jmp    101830 <glue>

00000000001026ea <irq_entry_235>:
  1026ea:	57                   	push   %rdi
  1026eb:	57                   	push   %rdi
  1026ec:	56                   	push   %rsi
  1026ed:	bf eb 00 00 00       	mov    $0xeb,%edi
  1026f2:	0f 20 d6             	mov    %cr2,%rsi
  1026f5:	e9 36 f1 ff ff       	jmp    101830 <glue>

00000000001026fa <irq_entry_236>:
  1026fa:	57                   	push   %rdi
  1026fb:	57                   	push   %rdi
  1026fc:	56                   	push   %rsi
  1026fd:	bf ec 00 00 00       	mov    $0xec,%edi
  102702:	0f 20 d6             	mov    %cr2,%rsi
  102705:	e9 26 f1 ff ff       	jmp    101830 <glue>

000000000010270a <irq_entry_237>:
  10270a:	57                   	push   %rdi
  10270b:	57                   	push   %rdi
  10270c:	56                   	push   %rsi
  10270d:	bf ed 00 00 00       	mov    $0xed,%edi
  102712:	0f 20 d6             	mov    %cr2,%rsi
  102715:	e9 16 f1 ff ff       	jmp    101830 <glue>

000000000010271a <irq_entry_238>:
  10271a:	57                   	push   %rdi
  10271b:	57                   	push   %rdi
  10271c:	56                   	push   %rsi
  10271d:	bf ee 00 00 00       	mov    $0xee,%edi
  102722:	0f 20 d6             	mov    %cr2,%rsi
  102725:	e9 06 f1 ff ff       	jmp    101830 <glue>

000000000010272a <irq_entry_239>:
  10272a:	57                   	push   %rdi
  10272b:	57                   	push   %rdi
  10272c:	56                   	push   %rsi
  10272d:	bf ef 00 00 00       	mov    $0xef,%edi
  102732:	0f 20 d6             	mov    %cr2,%rsi
  102735:	e9 f6 f0 ff ff       	jmp    101830 <glue>

000000000010273a <irq_entry_240>:
  10273a:	57                   	push   %rdi
  10273b:	57                   	push   %rdi
  10273c:	56                   	push   %rsi
  10273d:	bf f0 00 00 00       	mov    $0xf0,%edi
  102742:	0f 20 d6             	mov    %cr2,%rsi
  102745:	e9 e6 f0 ff ff       	jmp    101830 <glue>

000000000010274a <irq_entry_241>:
  10274a:	57                   	push   %rdi
  10274b:	57                   	push   %rdi
  10274c:	56                   	push   %rsi
  10274d:	bf f1 00 00 00       	mov    $0xf1,%edi
  102752:	0f 20 d6             	mov    %cr2,%rsi
  102755:	e9 d6 f0 ff ff       	jmp    101830 <glue>

000000000010275a <irq_entry_242>:
  10275a:	57                   	push   %rdi
  10275b:	57                   	push   %rdi
  10275c:	56                   	push   %rsi
  10275d:	bf f2 00 00 00       	mov    $0xf2,%edi
  102762:	0f 20 d6             	mov    %cr2,%rsi
  102765:	e9 c6 f0 ff ff       	jmp    101830 <glue>

000000000010276a <irq_entry_243>:
  10276a:	57                   	push   %rdi
  10276b:	57                   	push   %rdi
  10276c:	56                   	push   %rsi
  10276d:	bf f3 00 00 00       	mov    $0xf3,%edi
  102772:	0f 20 d6             	mov    %cr2,%rsi
  102775:	e9 b6 f0 ff ff       	jmp    101830 <glue>

000000000010277a <irq_entry_244>:
  10277a:	57                   	push   %rdi
  10277b:	57                   	push   %rdi
  10277c:	56                   	push   %rsi
  10277d:	bf f4 00 00 00       	mov    $0xf4,%edi
  102782:	0f 20 d6             	mov    %cr2,%rsi
  102785:	e9 a6 f0 ff ff       	jmp    101830 <glue>

000000000010278a <irq_entry_245>:
  10278a:	57                   	push   %rdi
  10278b:	57                   	push   %rdi
  10278c:	56                   	push   %rsi
  10278d:	bf f5 00 00 00       	mov    $0xf5,%edi
  102792:	0f 20 d6             	mov    %cr2,%rsi
  102795:	e9 96 f0 ff ff       	jmp    101830 <glue>

000000000010279a <irq_entry_246>:
  10279a:	57                   	push   %rdi
  10279b:	57                   	push   %rdi
  10279c:	56                   	push   %rsi
  10279d:	bf f6 00 00 00       	mov    $0xf6,%edi
  1027a2:	0f 20 d6             	mov    %cr2,%rsi
  1027a5:	e9 86 f0 ff ff       	jmp    101830 <glue>

00000000001027aa <irq_entry_247>:
  1027aa:	57                   	push   %rdi
  1027ab:	57                   	push   %rdi
  1027ac:	56                   	push   %rsi
  1027ad:	bf f7 00 00 00       	mov    $0xf7,%edi
  1027b2:	0f 20 d6             	mov    %cr2,%rsi
  1027b5:	e9 76 f0 ff ff       	jmp    101830 <glue>

00000000001027ba <irq_entry_248>:
  1027ba:	57                   	push   %rdi
  1027bb:	57                   	push   %rdi
  1027bc:	56                   	push   %rsi
  1027bd:	bf f8 00 00 00       	mov    $0xf8,%edi
  1027c2:	0f 20 d6             	mov    %cr2,%rsi
  1027c5:	e9 66 f0 ff ff       	jmp    101830 <glue>

00000000001027ca <irq_entry_249>:
  1027ca:	57                   	push   %rdi
  1027cb:	57                   	push   %rdi
  1027cc:	56                   	push   %rsi
  1027cd:	bf f9 00 00 00       	mov    $0xf9,%edi
  1027d2:	0f 20 d6             	mov    %cr2,%rsi
  1027d5:	e9 56 f0 ff ff       	jmp    101830 <glue>

00000000001027da <irq_entry_250>:
  1027da:	57                   	push   %rdi
  1027db:	57                   	push   %rdi
  1027dc:	56                   	push   %rsi
  1027dd:	bf fa 00 00 00       	mov    $0xfa,%edi
  1027e2:	0f 20 d6             	mov    %cr2,%rsi
  1027e5:	e9 46 f0 ff ff       	jmp    101830 <glue>

00000000001027ea <irq_entry_251>:
  1027ea:	57                   	push   %rdi
  1027eb:	57                   	push   %rdi
  1027ec:	56                   	push   %rsi
  1027ed:	bf fb 00 00 00       	mov    $0xfb,%edi
  1027f2:	0f 20 d6             	mov    %cr2,%rsi
  1027f5:	e9 36 f0 ff ff       	jmp    101830 <glue>

00000000001027fa <irq_entry_252>:
  1027fa:	57                   	push   %rdi
  1027fb:	57                   	push   %rdi
  1027fc:	56                   	push   %rsi
  1027fd:	bf fc 00 00 00       	mov    $0xfc,%edi
  102802:	0f 20 d6             	mov    %cr2,%rsi
  102805:	e9 26 f0 ff ff       	jmp    101830 <glue>

000000000010280a <irq_entry_253>:
  10280a:	57                   	push   %rdi
  10280b:	57                   	push   %rdi
  10280c:	56                   	push   %rsi
  10280d:	bf fd 00 00 00       	mov    $0xfd,%edi
  102812:	0f 20 d6             	mov    %cr2,%rsi
  102815:	e9 16 f0 ff ff       	jmp    101830 <glue>

000000000010281a <irq_entry_254>:
  10281a:	57                   	push   %rdi
  10281b:	57                   	push   %rdi
  10281c:	56                   	push   %rsi
  10281d:	bf fe 00 00 00       	mov    $0xfe,%edi
  102822:	0f 20 d6             	mov    %cr2,%rsi
  102825:	e9 06 f0 ff ff       	jmp    101830 <glue>

000000000010282a <irq_entry_255>:
  10282a:	57                   	push   %rdi
  10282b:	57                   	push   %rdi
  10282c:	56                   	push   %rsi
  10282d:	bf ff 00 00 00       	mov    $0xff,%edi
  102832:	0f 20 d6             	mov    %cr2,%rsi
  102835:	e9 f6 ef ff ff       	jmp    101830 <glue>
  10283a:	66 0f 1f 44 00 00    	nopw   0x0(%rax,%rax,1)

0000000000102840 <long_mode_start>:
  102840:	66 b8 00 00          	mov    $0x0,%ax
  102844:	8e d0                	mov    %eax,%ss
  102846:	8e d8                	mov    %eax,%ds
  102848:	8e c0                	mov    %eax,%es
  10284a:	8e e0                	mov    %eax,%fs
  10284c:	8e e8                	mov    %eax,%gs
  10284e:	48 b8 4f 2f 4b 2f 41 	movabs $0x2f592f412f4b2f4f,%rax
  102855:	2f 59 2f 
  102858:	48 89 04 25 00 80 0b 	mov    %rax,0xb8000
  10285f:	00 
  102860:	e8 00 00 00 00       	call   102865 <kmain>

0000000000102865 <kmain>:
  102865:	55                   	push   %rbp
  102866:	48 89 e5             	mov    %rsp,%rbp
  102869:	48 83 ec 20          	sub    $0x20,%rsp
  10286d:	89 7d ec             	mov    %edi,-0x14(%rbp)
  102870:	e8 09 47 00 00       	call   106f7e <VGA_clear>
  102875:	c7 45 fc 01 00 00 00 	movl   $0x1,-0x4(%rbp)
  10287c:	b8 00 00 00 00       	mov    $0x0,%eax
  102881:	e8 59 00 00 00       	call   1028df <CLI>
  102886:	8b 45 ec             	mov    -0x14(%rbp),%eax
  102889:	89 c7                	mov    %eax,%edi
  10288b:	e8 88 1d 00 00       	call   104618 <process_tag_entries>
  102890:	48 89 45 f0          	mov    %rax,-0x10(%rbp)
  102894:	48 8b 45 f0          	mov    -0x10(%rbp),%rax
  102898:	48 89 c7             	mov    %rax,%rdi
  10289b:	e8 3c 31 00 00       	call   1059dc <pt_init>
  1028a0:	b8 00 00 00 00       	mov    $0x0,%eax
  1028a5:	e8 0c 32 00 00       	call   105ab6 <enable_paging>
  1028aa:	e8 02 03 00 00       	call   102bb1 <IRQ_init>
  1028af:	e8 47 23 00 00       	call   104bfb <ps2_init>
  1028b4:	e8 e3 39 00 00       	call   10629c <SER_init>
  1028b9:	b8 00 00 00 00       	mov    $0x0,%eax
  1028be:	e8 2b 00 00 00       	call   1028ee <STI>
  1028c3:	bf 58 00 10 00       	mov    $0x100058,%edi
  1028c8:	b8 00 00 00 00       	mov    $0x0,%eax
  1028cd:	e8 43 3b 00 00       	call   106415 <printk>
  1028d2:	b8 00 00 00 00       	mov    $0x0,%eax
  1028d7:	e8 47 37 00 00       	call   106023 <test_page_fault>
  1028dc:	f4                   	hlt
  1028dd:	eb fd                	jmp    1028dc <kmain+0x77>

00000000001028df <CLI>:
  1028df:	55                   	push   %rbp
  1028e0:	48 89 e5             	mov    %rsp,%rbp
  1028e3:	c6 05 f6 47 00 00 00 	movb   $0x0,0x47f6(%rip)        # 1070e0 <enabled>
  1028ea:	fa                   	cli
  1028eb:	90                   	nop
  1028ec:	5d                   	pop    %rbp
  1028ed:	c3                   	ret

00000000001028ee <STI>:
  1028ee:	55                   	push   %rbp
  1028ef:	48 89 e5             	mov    %rsp,%rbp
  1028f2:	c6 05 e7 47 00 00 01 	movb   $0x1,0x47e7(%rip)        # 1070e0 <enabled>
  1028f9:	fb                   	sti
  1028fa:	90                   	nop
  1028fb:	5d                   	pop    %rbp
  1028fc:	c3                   	ret

00000000001028fd <are_interrupts_enabled>:
  1028fd:	55                   	push   %rbp
  1028fe:	48 89 e5             	mov    %rsp,%rbp
  102901:	0f b6 05 d8 47 00 00 	movzbl 0x47d8(%rip),%eax        # 1070e0 <enabled>
  102908:	5d                   	pop    %rbp
  102909:	c3                   	ret

000000000010290a <tss_init>:
  10290a:	55                   	push   %rbp
  10290b:	48 89 e5             	mov    %rsp,%rbp
  10290e:	48 83 ec 20          	sub    $0x20,%rsp
  102912:	c7 45 fc 02 00 00 00 	movl   $0x2,-0x4(%rbp)
  102919:	8b 45 fc             	mov    -0x4(%rbp),%eax
  10291c:	48 98                	cltq
  10291e:	48 c1 e0 03          	shl    $0x3,%rax
  102922:	48 05 18 00 10 00    	add    $0x100018,%rax
  102928:	48 89 45 f0          	mov    %rax,-0x10(%rbp)
  10292c:	ba 68 00 00 00       	mov    $0x68,%edx
  102931:	be 00 00 00 00       	mov    $0x0,%esi
  102936:	bf 40 d0 10 00       	mov    $0x10d040,%edi
  10293b:	e8 43 43 00 00       	call   106c83 <memset>
  102940:	e8 63 1e 00 00       	call   1047a8 <MMU_pf_alloc>
  102945:	48 89 45 e8          	mov    %rax,-0x18(%rbp)
  102949:	48 8b 45 e8          	mov    -0x18(%rbp),%rax
  10294d:	48 05 f8 0f 00 00    	add    $0xff8,%rax
  102953:	48 89 05 0a a7 00 00 	mov    %rax,0xa70a(%rip)        # 10d064 <tss+0x24>
  10295a:	48 c7 45 e0 40 d0 10 	movq   $0x10d040,-0x20(%rbp)
  102961:	00 
  102962:	48 8b 45 f0          	mov    -0x10(%rbp),%rax
  102966:	ba 10 00 00 00       	mov    $0x10,%edx
  10296b:	be 00 00 00 00       	mov    $0x0,%esi
  102970:	48 89 c7             	mov    %rax,%rdi
  102973:	e8 0b 43 00 00       	call   106c83 <memset>
  102978:	48 8b 45 f0          	mov    -0x10(%rbp),%rax
  10297c:	0f b6 50 05          	movzbl 0x5(%rax),%edx
  102980:	83 ca 80             	or     $0xffffff80,%edx
  102983:	88 50 05             	mov    %dl,0x5(%rax)
  102986:	48 8b 45 f0          	mov    -0x10(%rbp),%rax
  10298a:	0f b6 50 06          	movzbl 0x6(%rax),%edx
  10298e:	83 ca 80             	or     $0xffffff80,%edx
  102991:	88 50 06             	mov    %dl,0x6(%rax)
  102994:	48 8b 45 f0          	mov    -0x10(%rbp),%rax
  102998:	66 c7 00 68 00       	movw   $0x68,(%rax)
  10299d:	48 8b 45 e0          	mov    -0x20(%rbp),%rax
  1029a1:	89 c2                	mov    %eax,%edx
  1029a3:	48 8b 45 f0          	mov    -0x10(%rbp),%rax
  1029a7:	66 89 50 02          	mov    %dx,0x2(%rax)
  1029ab:	48 8b 45 e0          	mov    -0x20(%rbp),%rax
  1029af:	48 c1 e8 10          	shr    $0x10,%rax
  1029b3:	89 c2                	mov    %eax,%edx
  1029b5:	48 8b 45 f0          	mov    -0x10(%rbp),%rax
  1029b9:	88 50 04             	mov    %dl,0x4(%rax)
  1029bc:	48 8b 45 e0          	mov    -0x20(%rbp),%rax
  1029c0:	48 c1 e8 18          	shr    $0x18,%rax
  1029c4:	89 c2                	mov    %eax,%edx
  1029c6:	48 8b 45 f0          	mov    -0x10(%rbp),%rax
  1029ca:	88 50 07             	mov    %dl,0x7(%rax)
  1029cd:	48 8b 45 e0          	mov    -0x20(%rbp),%rax
  1029d1:	48 c1 e8 20          	shr    $0x20,%rax
  1029d5:	89 c2                	mov    %eax,%edx
  1029d7:	48 8b 45 f0          	mov    -0x10(%rbp),%rax
  1029db:	89 50 08             	mov    %edx,0x8(%rax)
  1029de:	8b 45 fc             	mov    -0x4(%rbp),%eax
  1029e1:	48 98                	cltq
  1029e3:	48 c1 e0 03          	shl    $0x3,%rax
  1029e7:	0f 00 d8             	ltr    %eax
  1029ea:	90                   	nop
  1029eb:	c9                   	leave
  1029ec:	c3                   	ret

00000000001029ed <irq_dispatch>:
  1029ed:	55                   	push   %rbp
  1029ee:	48 89 e5             	mov    %rsp,%rbp
  1029f1:	48 83 ec 20          	sub    $0x20,%rsp
  1029f5:	48 89 7d e8          	mov    %rdi,-0x18(%rbp)
  1029f9:	48 89 75 e0          	mov    %rsi,-0x20(%rbp)
  1029fd:	48 83 7d e8 0e       	cmpq   $0xe,-0x18(%rbp)
  102a02:	75 0f                	jne    102a13 <irq_dispatch+0x26>
  102a04:	bf 88 00 10 00       	mov    $0x100088,%edi
  102a09:	b8 00 00 00 00       	mov    $0x0,%eax
  102a0e:	e8 02 3a 00 00       	call   106415 <printk>
  102a13:	48 81 7d e8 00 01 00 	cmpq   $0x100,-0x18(%rbp)
  102a1a:	00 
  102a1b:	76 18                	jbe    102a35 <irq_dispatch+0x48>
  102a1d:	48 8b 45 e8          	mov    -0x18(%rbp),%rax
  102a21:	48 89 c6             	mov    %rax,%rsi
  102a24:	bf 94 00 10 00       	mov    $0x100094,%edi
  102a29:	b8 00 00 00 00       	mov    $0x0,%eax
  102a2e:	e8 e2 39 00 00       	call   106415 <printk>
  102a33:	eb 73                	jmp    102aa8 <irq_dispatch+0xbb>
  102a35:	48 8b 45 e8          	mov    -0x18(%rbp),%rax
  102a39:	48 c1 e0 04          	shl    $0x4,%rax
  102a3d:	48 05 40 c0 10 00    	add    $0x10c040,%rax
  102a43:	48 8b 50 08          	mov    0x8(%rax),%rdx
  102a47:	48 8b 00             	mov    (%rax),%rax
  102a4a:	48 89 45 f0          	mov    %rax,-0x10(%rbp)
  102a4e:	48 89 55 f8          	mov    %rdx,-0x8(%rbp)
  102a52:	48 8b 45 f8          	mov    -0x8(%rbp),%rax
  102a56:	48 85 c0             	test   %rax,%rax
  102a59:	75 18                	jne    102a73 <irq_dispatch+0x86>
  102a5b:	48 8b 45 e8          	mov    -0x18(%rbp),%rax
  102a5f:	48 89 c6             	mov    %rax,%rsi
  102a62:	bf b8 00 10 00       	mov    $0x1000b8,%edi
  102a67:	b8 00 00 00 00       	mov    $0x0,%eax
  102a6c:	e8 a4 39 00 00       	call   106415 <printk>
  102a71:	eb 19                	jmp    102a8c <irq_dispatch+0x9f>
  102a73:	48 8b 4d f8          	mov    -0x8(%rbp),%rcx
  102a77:	48 8b 45 f0          	mov    -0x10(%rbp),%rax
  102a7b:	48 8b 55 e0          	mov    -0x20(%rbp),%rdx
  102a7f:	89 d6                	mov    %edx,%esi
  102a81:	48 8b 55 e8          	mov    -0x18(%rbp),%rdx
  102a85:	89 d7                	mov    %edx,%edi
  102a87:	48 89 c2             	mov    %rax,%rdx
  102a8a:	ff d1                	call   *%rcx
  102a8c:	48 83 7d e8 1f       	cmpq   $0x1f,-0x18(%rbp)
  102a91:	76 15                	jbe    102aa8 <irq_dispatch+0xbb>
  102a93:	48 83 7d e8 30       	cmpq   $0x30,-0x18(%rbp)
  102a98:	77 0e                	ja     102aa8 <irq_dispatch+0xbb>
  102a9a:	48 8b 45 e8          	mov    -0x18(%rbp),%rax
  102a9e:	83 e8 20             	sub    $0x20,%eax
  102aa1:	89 c7                	mov    %eax,%edi
  102aa3:	e8 82 03 00 00       	call   102e2a <IRQ_end_of_interrupt>
  102aa8:	c9                   	leave
  102aa9:	c3                   	ret

0000000000102aaa <io_wait>:
  102aaa:	55                   	push   %rbp
  102aab:	48 89 e5             	mov    %rsp,%rbp
  102aae:	be 00 00 00 00       	mov    $0x0,%esi
  102ab3:	bf 80 00 00 00       	mov    $0x80,%edi
  102ab8:	e8 91 41 00 00       	call   106c4e <outb>
  102abd:	90                   	nop
  102abe:	5d                   	pop    %rbp
  102abf:	c3                   	ret

0000000000102ac0 <PIC_remap>:
  102ac0:	55                   	push   %rbp
  102ac1:	48 89 e5             	mov    %rsp,%rbp
  102ac4:	48 83 ec 20          	sub    $0x20,%rsp
  102ac8:	89 7d ec             	mov    %edi,-0x14(%rbp)
  102acb:	89 75 e8             	mov    %esi,-0x18(%rbp)
  102ace:	bf 21 00 00 00       	mov    $0x21,%edi
  102ad3:	e8 91 41 00 00       	call   106c69 <inb>
  102ad8:	88 45 ff             	mov    %al,-0x1(%rbp)
  102adb:	bf a1 00 00 00       	mov    $0xa1,%edi
  102ae0:	e8 84 41 00 00       	call   106c69 <inb>
  102ae5:	88 45 fe             	mov    %al,-0x2(%rbp)
  102ae8:	be 11 00 00 00       	mov    $0x11,%esi
  102aed:	bf 20 00 00 00       	mov    $0x20,%edi
  102af2:	e8 57 41 00 00       	call   106c4e <outb>
  102af7:	e8 ae ff ff ff       	call   102aaa <io_wait>
  102afc:	be 11 00 00 00       	mov    $0x11,%esi
  102b01:	bf a0 00 00 00       	mov    $0xa0,%edi
  102b06:	e8 43 41 00 00       	call   106c4e <outb>
  102b0b:	e8 9a ff ff ff       	call   102aaa <io_wait>
  102b10:	8b 45 ec             	mov    -0x14(%rbp),%eax
  102b13:	0f b6 c0             	movzbl %al,%eax
  102b16:	89 c6                	mov    %eax,%esi
  102b18:	bf 21 00 00 00       	mov    $0x21,%edi
  102b1d:	e8 2c 41 00 00       	call   106c4e <outb>
  102b22:	e8 83 ff ff ff       	call   102aaa <io_wait>
  102b27:	8b 45 e8             	mov    -0x18(%rbp),%eax
  102b2a:	0f b6 c0             	movzbl %al,%eax
  102b2d:	89 c6                	mov    %eax,%esi
  102b2f:	bf a1 00 00 00       	mov    $0xa1,%edi
  102b34:	e8 15 41 00 00       	call   106c4e <outb>
  102b39:	e8 6c ff ff ff       	call   102aaa <io_wait>
  102b3e:	be 04 00 00 00       	mov    $0x4,%esi
  102b43:	bf 21 00 00 00       	mov    $0x21,%edi
  102b48:	e8 01 41 00 00       	call   106c4e <outb>
  102b4d:	e8 58 ff ff ff       	call   102aaa <io_wait>
  102b52:	be 02 00 00 00       	mov    $0x2,%esi
  102b57:	bf a1 00 00 00       	mov    $0xa1,%edi
  102b5c:	e8 ed 40 00 00       	call   106c4e <outb>
  102b61:	e8 44 ff ff ff       	call   102aaa <io_wait>
  102b66:	be 01 00 00 00       	mov    $0x1,%esi
  102b6b:	bf 21 00 00 00       	mov    $0x21,%edi
  102b70:	e8 d9 40 00 00       	call   106c4e <outb>
  102b75:	e8 30 ff ff ff       	call   102aaa <io_wait>
  102b7a:	be 01 00 00 00       	mov    $0x1,%esi
  102b7f:	bf a1 00 00 00       	mov    $0xa1,%edi
  102b84:	e8 c5 40 00 00       	call   106c4e <outb>
  102b89:	e8 1c ff ff ff       	call   102aaa <io_wait>
  102b8e:	0f b6 45 ff          	movzbl -0x1(%rbp),%eax
  102b92:	89 c6                	mov    %eax,%esi
  102b94:	bf 21 00 00 00       	mov    $0x21,%edi
  102b99:	e8 b0 40 00 00       	call   106c4e <outb>
  102b9e:	0f b6 45 fe          	movzbl -0x2(%rbp),%eax
  102ba2:	89 c6                	mov    %eax,%esi
  102ba4:	bf a1 00 00 00       	mov    $0xa1,%edi
  102ba9:	e8 a0 40 00 00       	call   106c4e <outb>
  102bae:	90                   	nop
  102baf:	c9                   	leave
  102bb0:	c3                   	ret

0000000000102bb1 <IRQ_init>:
  102bb1:	55                   	push   %rbp
  102bb2:	48 89 e5             	mov    %rsp,%rbp
  102bb5:	48 83 ec 10          	sub    $0x10,%rsp
  102bb9:	be 28 00 00 00       	mov    $0x28,%esi
  102bbe:	bf 20 00 00 00       	mov    $0x20,%edi
  102bc3:	e8 f8 fe ff ff       	call   102ac0 <PIC_remap>
  102bc8:	c7 45 fc 00 00 00 00 	movl   $0x0,-0x4(%rbp)
  102bcf:	e9 a8 00 00 00       	jmp    102c7c <IRQ_init+0xcb>
  102bd4:	8b 45 fc             	mov    -0x4(%rbp),%eax
  102bd7:	48 98                	cltq
  102bd9:	48 c1 e0 04          	shl    $0x4,%rax
  102bdd:	48 05 40 b0 10 00    	add    $0x10b040,%rax
  102be3:	48 89 45 f0          	mov    %rax,-0x10(%rbp)
  102be7:	48 8b 45 f0          	mov    -0x10(%rbp),%rax
  102beb:	66 c7 40 02 08 00    	movw   $0x8,0x2(%rax)
  102bf1:	48 8b 45 f0          	mov    -0x10(%rbp),%rax
  102bf5:	0f b6 50 04          	movzbl 0x4(%rax),%edx
  102bf9:	83 e2 07             	and    $0x7,%edx
  102bfc:	88 50 04             	mov    %dl,0x4(%rax)
  102bff:	83 7d fc 0d          	cmpl   $0xd,-0x4(%rbp)
  102c03:	74 0c                	je     102c11 <IRQ_init+0x60>
  102c05:	83 7d fc 08          	cmpl   $0x8,-0x4(%rbp)
  102c09:	74 06                	je     102c11 <IRQ_init+0x60>
  102c0b:	83 7d fc 0e          	cmpl   $0xe,-0x4(%rbp)
  102c0f:	75 13                	jne    102c24 <IRQ_init+0x73>
  102c11:	48 8b 45 f0          	mov    -0x10(%rbp),%rax
  102c15:	0f b6 50 04          	movzbl 0x4(%rax),%edx
  102c19:	83 e2 f8             	and    $0xfffffff8,%edx
  102c1c:	83 ca 01             	or     $0x1,%edx
  102c1f:	88 50 04             	mov    %dl,0x4(%rax)
  102c22:	eb 0e                	jmp    102c32 <IRQ_init+0x81>
  102c24:	48 8b 45 f0          	mov    -0x10(%rbp),%rax
  102c28:	0f b6 50 04          	movzbl 0x4(%rax),%edx
  102c2c:	83 e2 f8             	and    $0xfffffff8,%edx
  102c2f:	88 50 04             	mov    %dl,0x4(%rax)
  102c32:	48 8b 45 f0          	mov    -0x10(%rbp),%rax
  102c36:	0f b6 50 05          	movzbl 0x5(%rax),%edx
  102c3a:	83 ca 80             	or     $0xffffff80,%edx
  102c3d:	88 50 05             	mov    %dl,0x5(%rax)
  102c40:	48 8b 45 f0          	mov    -0x10(%rbp),%rax
  102c44:	0f b6 50 05          	movzbl 0x5(%rax),%edx
  102c48:	83 e2 ef             	and    $0xffffffef,%edx
  102c4b:	88 50 05             	mov    %dl,0x5(%rax)
  102c4e:	48 8b 45 f0          	mov    -0x10(%rbp),%rax
  102c52:	0f b6 50 05          	movzbl 0x5(%rax),%edx
  102c56:	83 e2 9f             	and    $0xffffff9f,%edx
  102c59:	88 50 05             	mov    %dl,0x5(%rax)
  102c5c:	48 8b 45 f0          	mov    -0x10(%rbp),%rax
  102c60:	0f b6 50 05          	movzbl 0x5(%rax),%edx
  102c64:	83 e2 f0             	and    $0xfffffff0,%edx
  102c67:	83 ca 0e             	or     $0xe,%edx
  102c6a:	88 50 05             	mov    %dl,0x5(%rax)
  102c6d:	48 8b 45 f0          	mov    -0x10(%rbp),%rax
  102c71:	c7 40 0c 00 00 00 00 	movl   $0x0,0xc(%rax)
  102c78:	83 45 fc 01          	addl   $0x1,-0x4(%rbp)
  102c7c:	81 7d fc ff 00 00 00 	cmpl   $0xff,-0x4(%rbp)
  102c83:	0f 8e 4b ff ff ff    	jle    102bd4 <IRQ_init+0x23>
  102c89:	b8 00 00 00 00       	mov    $0x0,%eax
  102c8e:	e8 84 02 00 00       	call   102f17 <init_IRQ_entries>
  102c93:	b8 00 00 00 00       	mov    $0x0,%eax
  102c98:	e8 17 00 00 00       	call   102cb4 <loadIDT>
  102c9d:	bf 00 00 00 00       	mov    $0x0,%edi
  102ca2:	e8 84 00 00 00       	call   102d2b <IRQ_set_mask>
  102ca7:	b8 00 00 00 00       	mov    $0x0,%eax
  102cac:	e8 59 fc ff ff       	call   10290a <tss_init>
  102cb1:	90                   	nop
  102cb2:	c9                   	leave
  102cb3:	c3                   	ret

0000000000102cb4 <loadIDT>:
  102cb4:	55                   	push   %rbp
  102cb5:	48 89 e5             	mov    %rsp,%rbp
  102cb8:	66 c7 45 f6 00 10    	movw   $0x1000,-0xa(%rbp)
  102cbe:	b8 40 b0 10 00       	mov    $0x10b040,%eax
  102cc3:	48 89 45 f8          	mov    %rax,-0x8(%rbp)
  102cc7:	0f 01 5d f6          	lidt   -0xa(%rbp)
  102ccb:	90                   	nop
  102ccc:	5d                   	pop    %rbp
  102ccd:	c3                   	ret

0000000000102cce <set_IDT_entry>:
  102cce:	55                   	push   %rbp
  102ccf:	48 89 e5             	mov    %rsp,%rbp
  102cd2:	89 7d fc             	mov    %edi,-0x4(%rbp)
  102cd5:	48 89 75 f0          	mov    %rsi,-0x10(%rbp)
  102cd9:	48 8b 45 f0          	mov    -0x10(%rbp),%rax
  102cdd:	48 c1 e8 20          	shr    $0x20,%rax
  102ce1:	89 c2                	mov    %eax,%edx
  102ce3:	8b 45 fc             	mov    -0x4(%rbp),%eax
  102ce6:	48 98                	cltq
  102ce8:	48 c1 e0 04          	shl    $0x4,%rax
  102cec:	48 05 48 b0 10 00    	add    $0x10b048,%rax
  102cf2:	89 10                	mov    %edx,(%rax)
  102cf4:	48 8b 45 f0          	mov    -0x10(%rbp),%rax
  102cf8:	48 c1 e8 10          	shr    $0x10,%rax
  102cfc:	89 c2                	mov    %eax,%edx
  102cfe:	8b 45 fc             	mov    -0x4(%rbp),%eax
  102d01:	48 98                	cltq
  102d03:	48 c1 e0 04          	shl    $0x4,%rax
  102d07:	48 05 46 b0 10 00    	add    $0x10b046,%rax
  102d0d:	66 89 10             	mov    %dx,(%rax)
  102d10:	48 8b 45 f0          	mov    -0x10(%rbp),%rax
  102d14:	89 c2                	mov    %eax,%edx
  102d16:	8b 45 fc             	mov    -0x4(%rbp),%eax
  102d19:	48 98                	cltq
  102d1b:	48 c1 e0 04          	shl    $0x4,%rax
  102d1f:	48 05 40 b0 10 00    	add    $0x10b040,%rax
  102d25:	66 89 10             	mov    %dx,(%rax)
  102d28:	90                   	nop
  102d29:	5d                   	pop    %rbp
  102d2a:	c3                   	ret

0000000000102d2b <IRQ_set_mask>:
  102d2b:	55                   	push   %rbp
  102d2c:	48 89 e5             	mov    %rsp,%rbp
  102d2f:	48 83 ec 20          	sub    $0x20,%rsp
  102d33:	89 f8                	mov    %edi,%eax
  102d35:	88 45 ec             	mov    %al,-0x14(%rbp)
  102d38:	80 7d ec 07          	cmpb   $0x7,-0x14(%rbp)
  102d3c:	77 08                	ja     102d46 <IRQ_set_mask+0x1b>
  102d3e:	66 c7 45 fe 21 00    	movw   $0x21,-0x2(%rbp)
  102d44:	eb 0a                	jmp    102d50 <IRQ_set_mask+0x25>
  102d46:	66 c7 45 fe a1 00    	movw   $0xa1,-0x2(%rbp)
  102d4c:	80 6d ec 08          	subb   $0x8,-0x14(%rbp)
  102d50:	0f b7 45 fe          	movzwl -0x2(%rbp),%eax
  102d54:	89 c7                	mov    %eax,%edi
  102d56:	e8 0e 3f 00 00       	call   106c69 <inb>
  102d5b:	89 c6                	mov    %eax,%esi
  102d5d:	0f b6 45 ec          	movzbl -0x14(%rbp),%eax
  102d61:	ba 01 00 00 00       	mov    $0x1,%edx
  102d66:	89 c1                	mov    %eax,%ecx
  102d68:	d3 e2                	shl    %cl,%edx
  102d6a:	89 d0                	mov    %edx,%eax
  102d6c:	09 f0                	or     %esi,%eax
  102d6e:	88 45 fd             	mov    %al,-0x3(%rbp)
  102d71:	0f b6 55 fd          	movzbl -0x3(%rbp),%edx
  102d75:	0f b7 45 fe          	movzwl -0x2(%rbp),%eax
  102d79:	89 d6                	mov    %edx,%esi
  102d7b:	89 c7                	mov    %eax,%edi
  102d7d:	e8 cc 3e 00 00       	call   106c4e <outb>
  102d82:	90                   	nop
  102d83:	c9                   	leave
  102d84:	c3                   	ret

0000000000102d85 <IRQ_clear_mask>:
  102d85:	55                   	push   %rbp
  102d86:	48 89 e5             	mov    %rsp,%rbp
  102d89:	48 83 ec 20          	sub    $0x20,%rsp
  102d8d:	89 f8                	mov    %edi,%eax
  102d8f:	88 45 ec             	mov    %al,-0x14(%rbp)
  102d92:	80 7d ec 07          	cmpb   $0x7,-0x14(%rbp)
  102d96:	77 08                	ja     102da0 <IRQ_clear_mask+0x1b>
  102d98:	66 c7 45 fe 21 00    	movw   $0x21,-0x2(%rbp)
  102d9e:	eb 0a                	jmp    102daa <IRQ_clear_mask+0x25>
  102da0:	66 c7 45 fe a1 00    	movw   $0xa1,-0x2(%rbp)
  102da6:	80 6d ec 08          	subb   $0x8,-0x14(%rbp)
  102daa:	0f b7 45 fe          	movzwl -0x2(%rbp),%eax
  102dae:	89 c7                	mov    %eax,%edi
  102db0:	e8 b4 3e 00 00       	call   106c69 <inb>
  102db5:	89 c6                	mov    %eax,%esi
  102db7:	0f b6 45 ec          	movzbl -0x14(%rbp),%eax
  102dbb:	ba 01 00 00 00       	mov    $0x1,%edx
  102dc0:	89 c1                	mov    %eax,%ecx
  102dc2:	d3 e2                	shl    %cl,%edx
  102dc4:	89 d0                	mov    %edx,%eax
  102dc6:	f7 d0                	not    %eax
  102dc8:	21 f0                	and    %esi,%eax
  102dca:	88 45 fd             	mov    %al,-0x3(%rbp)
  102dcd:	0f b6 55 fd          	movzbl -0x3(%rbp),%edx
  102dd1:	0f b7 45 fe          	movzwl -0x2(%rbp),%eax
  102dd5:	89 d6                	mov    %edx,%esi
  102dd7:	89 c7                	mov    %eax,%edi
  102dd9:	e8 70 3e 00 00       	call   106c4e <outb>
  102dde:	90                   	nop
  102ddf:	c9                   	leave
  102de0:	c3                   	ret

0000000000102de1 <IRQ_get_mask>:
  102de1:	55                   	push   %rbp
  102de2:	48 89 e5             	mov    %rsp,%rbp
  102de5:	48 83 ec 20          	sub    $0x20,%rsp
  102de9:	89 7d ec             	mov    %edi,-0x14(%rbp)
  102dec:	83 7d ec 07          	cmpl   $0x7,-0x14(%rbp)
  102df0:	7f 08                	jg     102dfa <IRQ_get_mask+0x19>
  102df2:	66 c7 45 fe 21 00    	movw   $0x21,-0x2(%rbp)
  102df8:	eb 0a                	jmp    102e04 <IRQ_get_mask+0x23>
  102dfa:	66 c7 45 fe a1 00    	movw   $0xa1,-0x2(%rbp)
  102e00:	83 6d ec 08          	subl   $0x8,-0x14(%rbp)
  102e04:	0f b7 45 fe          	movzwl -0x2(%rbp),%eax
  102e08:	89 c7                	mov    %eax,%edi
  102e0a:	e8 5a 3e 00 00       	call   106c69 <inb>
  102e0f:	89 c6                	mov    %eax,%esi
  102e11:	8b 45 ec             	mov    -0x14(%rbp),%eax
  102e14:	ba 01 00 00 00       	mov    $0x1,%edx
  102e19:	89 c1                	mov    %eax,%ecx
  102e1b:	d3 e2                	shl    %cl,%edx
  102e1d:	89 d0                	mov    %edx,%eax
  102e1f:	21 f0                	and    %esi,%eax
  102e21:	88 45 fd             	mov    %al,-0x3(%rbp)
  102e24:	0f b6 45 fd          	movzbl -0x3(%rbp),%eax
  102e28:	c9                   	leave
  102e29:	c3                   	ret

0000000000102e2a <IRQ_end_of_interrupt>:
  102e2a:	55                   	push   %rbp
  102e2b:	48 89 e5             	mov    %rsp,%rbp
  102e2e:	48 83 ec 10          	sub    $0x10,%rsp
  102e32:	89 7d fc             	mov    %edi,-0x4(%rbp)
  102e35:	83 7d fc 07          	cmpl   $0x7,-0x4(%rbp)
  102e39:	7e 0f                	jle    102e4a <IRQ_end_of_interrupt+0x20>
  102e3b:	be 20 00 00 00       	mov    $0x20,%esi
  102e40:	bf a0 00 00 00       	mov    $0xa0,%edi
  102e45:	e8 04 3e 00 00       	call   106c4e <outb>
  102e4a:	be 20 00 00 00       	mov    $0x20,%esi
  102e4f:	bf 20 00 00 00       	mov    $0x20,%edi
  102e54:	e8 f5 3d 00 00       	call   106c4e <outb>
  102e59:	90                   	nop
  102e5a:	c9                   	leave
  102e5b:	c3                   	ret

0000000000102e5c <IRQ_set_handler>:
  102e5c:	55                   	push   %rbp
  102e5d:	48 89 e5             	mov    %rsp,%rbp
  102e60:	89 f8                	mov    %edi,%eax
  102e62:	48 89 75 f0          	mov    %rsi,-0x10(%rbp)
  102e66:	48 89 55 e8          	mov    %rdx,-0x18(%rbp)
  102e6a:	88 45 fc             	mov    %al,-0x4(%rbp)
  102e6d:	0f b6 45 fc          	movzbl -0x4(%rbp),%eax
  102e71:	48 98                	cltq
  102e73:	48 c1 e0 04          	shl    $0x4,%rax
  102e77:	48 8d 90 48 c0 10 00 	lea    0x10c048(%rax),%rdx
  102e7e:	48 8b 45 f0          	mov    -0x10(%rbp),%rax
  102e82:	48 89 02             	mov    %rax,(%rdx)
  102e85:	0f b6 45 fc          	movzbl -0x4(%rbp),%eax
  102e89:	48 98                	cltq
  102e8b:	48 c1 e0 04          	shl    $0x4,%rax
  102e8f:	48 8d 90 40 c0 10 00 	lea    0x10c040(%rax),%rdx
  102e96:	48 8b 45 e8          	mov    -0x18(%rbp),%rax
  102e9a:	48 89 02             	mov    %rax,(%rdx)
  102e9d:	90                   	nop
  102e9e:	5d                   	pop    %rbp
  102e9f:	c3                   	ret

0000000000102ea0 <__pic_get_irq_reg>:
  102ea0:	55                   	push   %rbp
  102ea1:	48 89 e5             	mov    %rsp,%rbp
  102ea4:	53                   	push   %rbx
  102ea5:	48 83 ec 18          	sub    $0x18,%rsp
  102ea9:	89 7d ec             	mov    %edi,-0x14(%rbp)
  102eac:	8b 45 ec             	mov    -0x14(%rbp),%eax
  102eaf:	0f b6 c0             	movzbl %al,%eax
  102eb2:	89 c6                	mov    %eax,%esi
  102eb4:	bf 20 00 00 00       	mov    $0x20,%edi
  102eb9:	e8 90 3d 00 00       	call   106c4e <outb>
  102ebe:	8b 45 ec             	mov    -0x14(%rbp),%eax
  102ec1:	0f b6 c0             	movzbl %al,%eax
  102ec4:	89 c6                	mov    %eax,%esi
  102ec6:	bf a0 00 00 00       	mov    $0xa0,%edi
  102ecb:	e8 7e 3d 00 00       	call   106c4e <outb>
  102ed0:	bf a0 00 00 00       	mov    $0xa0,%edi
  102ed5:	e8 8f 3d 00 00       	call   106c69 <inb>
  102eda:	0f b6 c0             	movzbl %al,%eax
  102edd:	c1 e0 08             	shl    $0x8,%eax
  102ee0:	89 c3                	mov    %eax,%ebx
  102ee2:	bf 20 00 00 00       	mov    $0x20,%edi
  102ee7:	e8 7d 3d 00 00       	call   106c69 <inb>
  102eec:	0f b6 c0             	movzbl %al,%eax
  102eef:	09 d8                	or     %ebx,%eax
  102ef1:	48 8b 5d f8          	mov    -0x8(%rbp),%rbx
  102ef5:	c9                   	leave
  102ef6:	c3                   	ret

0000000000102ef7 <pic_get_irr>:
  102ef7:	55                   	push   %rbp
  102ef8:	48 89 e5             	mov    %rsp,%rbp
  102efb:	bf 0a 00 00 00       	mov    $0xa,%edi
  102f00:	e8 9b ff ff ff       	call   102ea0 <__pic_get_irq_reg>
  102f05:	5d                   	pop    %rbp
  102f06:	c3                   	ret

0000000000102f07 <pic_get_isr>:
  102f07:	55                   	push   %rbp
  102f08:	48 89 e5             	mov    %rsp,%rbp
  102f0b:	bf 0b 00 00 00       	mov    $0xb,%edi
  102f10:	e8 8b ff ff ff       	call   102ea0 <__pic_get_irq_reg>
  102f15:	5d                   	pop    %rbp
  102f16:	c3                   	ret

0000000000102f17 <init_IRQ_entries>:
  102f17:	55                   	push   %rbp
  102f18:	48 89 e5             	mov    %rsp,%rbp
  102f1b:	b8 55 18 10 00       	mov    $0x101855,%eax
  102f20:	48 89 c6             	mov    %rax,%rsi
  102f23:	bf 00 00 00 00       	mov    $0x0,%edi
  102f28:	e8 a1 fd ff ff       	call   102cce <set_IDT_entry>
  102f2d:	b8 62 18 10 00       	mov    $0x101862,%eax
  102f32:	48 89 c6             	mov    %rax,%rsi
  102f35:	bf 01 00 00 00       	mov    $0x1,%edi
  102f3a:	e8 8f fd ff ff       	call   102cce <set_IDT_entry>
  102f3f:	b8 6f 18 10 00       	mov    $0x10186f,%eax
  102f44:	48 89 c6             	mov    %rax,%rsi
  102f47:	bf 02 00 00 00       	mov    $0x2,%edi
  102f4c:	e8 7d fd ff ff       	call   102cce <set_IDT_entry>
  102f51:	b8 7c 18 10 00       	mov    $0x10187c,%eax
  102f56:	48 89 c6             	mov    %rax,%rsi
  102f59:	bf 03 00 00 00       	mov    $0x3,%edi
  102f5e:	e8 6b fd ff ff       	call   102cce <set_IDT_entry>
  102f63:	b8 89 18 10 00       	mov    $0x101889,%eax
  102f68:	48 89 c6             	mov    %rax,%rsi
  102f6b:	bf 04 00 00 00       	mov    $0x4,%edi
  102f70:	e8 59 fd ff ff       	call   102cce <set_IDT_entry>
  102f75:	b8 96 18 10 00       	mov    $0x101896,%eax
  102f7a:	48 89 c6             	mov    %rax,%rsi
  102f7d:	bf 05 00 00 00       	mov    $0x5,%edi
  102f82:	e8 47 fd ff ff       	call   102cce <set_IDT_entry>
  102f87:	b8 a3 18 10 00       	mov    $0x1018a3,%eax
  102f8c:	48 89 c6             	mov    %rax,%rsi
  102f8f:	bf 06 00 00 00       	mov    $0x6,%edi
  102f94:	e8 35 fd ff ff       	call   102cce <set_IDT_entry>
  102f99:	b8 b0 18 10 00       	mov    $0x1018b0,%eax
  102f9e:	48 89 c6             	mov    %rax,%rsi
  102fa1:	bf 07 00 00 00       	mov    $0x7,%edi
  102fa6:	e8 23 fd ff ff       	call   102cce <set_IDT_entry>
  102fab:	b8 c0 18 10 00       	mov    $0x1018c0,%eax
  102fb0:	48 89 c6             	mov    %rax,%rsi
  102fb3:	bf 08 00 00 00       	mov    $0x8,%edi
  102fb8:	e8 11 fd ff ff       	call   102cce <set_IDT_entry>
  102fbd:	b8 cf 18 10 00       	mov    $0x1018cf,%eax
  102fc2:	48 89 c6             	mov    %rax,%rsi
  102fc5:	bf 09 00 00 00       	mov    $0x9,%edi
  102fca:	e8 ff fc ff ff       	call   102cce <set_IDT_entry>
  102fcf:	b8 df 18 10 00       	mov    $0x1018df,%eax
  102fd4:	48 89 c6             	mov    %rax,%rsi
  102fd7:	bf 0a 00 00 00       	mov    $0xa,%edi
  102fdc:	e8 ed fc ff ff       	call   102cce <set_IDT_entry>
  102fe1:	b8 ee 18 10 00       	mov    $0x1018ee,%eax
  102fe6:	48 89 c6             	mov    %rax,%rsi
  102fe9:	bf 0b 00 00 00       	mov    $0xb,%edi
  102fee:	e8 db fc ff ff       	call   102cce <set_IDT_entry>
  102ff3:	b8 fd 18 10 00       	mov    $0x1018fd,%eax
  102ff8:	48 89 c6             	mov    %rax,%rsi
  102ffb:	bf 0c 00 00 00       	mov    $0xc,%edi
  103000:	e8 c9 fc ff ff       	call   102cce <set_IDT_entry>
  103005:	b8 0c 19 10 00       	mov    $0x10190c,%eax
  10300a:	48 89 c6             	mov    %rax,%rsi
  10300d:	bf 0d 00 00 00       	mov    $0xd,%edi
  103012:	e8 b7 fc ff ff       	call   102cce <set_IDT_entry>
  103017:	b8 1b 19 10 00       	mov    $0x10191b,%eax
  10301c:	48 89 c6             	mov    %rax,%rsi
  10301f:	bf 0e 00 00 00       	mov    $0xe,%edi
  103024:	e8 a5 fc ff ff       	call   102cce <set_IDT_entry>
  103029:	b8 2a 19 10 00       	mov    $0x10192a,%eax
  10302e:	48 89 c6             	mov    %rax,%rsi
  103031:	bf 0f 00 00 00       	mov    $0xf,%edi
  103036:	e8 93 fc ff ff       	call   102cce <set_IDT_entry>
  10303b:	b8 3a 19 10 00       	mov    $0x10193a,%eax
  103040:	48 89 c6             	mov    %rax,%rsi
  103043:	bf 10 00 00 00       	mov    $0x10,%edi
  103048:	e8 81 fc ff ff       	call   102cce <set_IDT_entry>
  10304d:	b8 4a 19 10 00       	mov    $0x10194a,%eax
  103052:	48 89 c6             	mov    %rax,%rsi
  103055:	bf 11 00 00 00       	mov    $0x11,%edi
  10305a:	e8 6f fc ff ff       	call   102cce <set_IDT_entry>
  10305f:	b8 5a 19 10 00       	mov    $0x10195a,%eax
  103064:	48 89 c6             	mov    %rax,%rsi
  103067:	bf 12 00 00 00       	mov    $0x12,%edi
  10306c:	e8 5d fc ff ff       	call   102cce <set_IDT_entry>
  103071:	b8 6a 19 10 00       	mov    $0x10196a,%eax
  103076:	48 89 c6             	mov    %rax,%rsi
  103079:	bf 13 00 00 00       	mov    $0x13,%edi
  10307e:	e8 4b fc ff ff       	call   102cce <set_IDT_entry>
  103083:	b8 7a 19 10 00       	mov    $0x10197a,%eax
  103088:	48 89 c6             	mov    %rax,%rsi
  10308b:	bf 14 00 00 00       	mov    $0x14,%edi
  103090:	e8 39 fc ff ff       	call   102cce <set_IDT_entry>
  103095:	b8 8a 19 10 00       	mov    $0x10198a,%eax
  10309a:	48 89 c6             	mov    %rax,%rsi
  10309d:	bf 15 00 00 00       	mov    $0x15,%edi
  1030a2:	e8 27 fc ff ff       	call   102cce <set_IDT_entry>
  1030a7:	b8 9a 19 10 00       	mov    $0x10199a,%eax
  1030ac:	48 89 c6             	mov    %rax,%rsi
  1030af:	bf 16 00 00 00       	mov    $0x16,%edi
  1030b4:	e8 15 fc ff ff       	call   102cce <set_IDT_entry>
  1030b9:	b8 aa 19 10 00       	mov    $0x1019aa,%eax
  1030be:	48 89 c6             	mov    %rax,%rsi
  1030c1:	bf 17 00 00 00       	mov    $0x17,%edi
  1030c6:	e8 03 fc ff ff       	call   102cce <set_IDT_entry>
  1030cb:	b8 ba 19 10 00       	mov    $0x1019ba,%eax
  1030d0:	48 89 c6             	mov    %rax,%rsi
  1030d3:	bf 18 00 00 00       	mov    $0x18,%edi
  1030d8:	e8 f1 fb ff ff       	call   102cce <set_IDT_entry>
  1030dd:	b8 ca 19 10 00       	mov    $0x1019ca,%eax
  1030e2:	48 89 c6             	mov    %rax,%rsi
  1030e5:	bf 19 00 00 00       	mov    $0x19,%edi
  1030ea:	e8 df fb ff ff       	call   102cce <set_IDT_entry>
  1030ef:	b8 da 19 10 00       	mov    $0x1019da,%eax
  1030f4:	48 89 c6             	mov    %rax,%rsi
  1030f7:	bf 1a 00 00 00       	mov    $0x1a,%edi
  1030fc:	e8 cd fb ff ff       	call   102cce <set_IDT_entry>
  103101:	b8 ea 19 10 00       	mov    $0x1019ea,%eax
  103106:	48 89 c6             	mov    %rax,%rsi
  103109:	bf 1b 00 00 00       	mov    $0x1b,%edi
  10310e:	e8 bb fb ff ff       	call   102cce <set_IDT_entry>
  103113:	b8 fa 19 10 00       	mov    $0x1019fa,%eax
  103118:	48 89 c6             	mov    %rax,%rsi
  10311b:	bf 1c 00 00 00       	mov    $0x1c,%edi
  103120:	e8 a9 fb ff ff       	call   102cce <set_IDT_entry>
  103125:	b8 0a 1a 10 00       	mov    $0x101a0a,%eax
  10312a:	48 89 c6             	mov    %rax,%rsi
  10312d:	bf 1d 00 00 00       	mov    $0x1d,%edi
  103132:	e8 97 fb ff ff       	call   102cce <set_IDT_entry>
  103137:	b8 1a 1a 10 00       	mov    $0x101a1a,%eax
  10313c:	48 89 c6             	mov    %rax,%rsi
  10313f:	bf 1e 00 00 00       	mov    $0x1e,%edi
  103144:	e8 85 fb ff ff       	call   102cce <set_IDT_entry>
  103149:	b8 2a 1a 10 00       	mov    $0x101a2a,%eax
  10314e:	48 89 c6             	mov    %rax,%rsi
  103151:	bf 1f 00 00 00       	mov    $0x1f,%edi
  103156:	e8 73 fb ff ff       	call   102cce <set_IDT_entry>
  10315b:	b8 3a 1a 10 00       	mov    $0x101a3a,%eax
  103160:	48 89 c6             	mov    %rax,%rsi
  103163:	bf 20 00 00 00       	mov    $0x20,%edi
  103168:	e8 61 fb ff ff       	call   102cce <set_IDT_entry>
  10316d:	b8 4a 1a 10 00       	mov    $0x101a4a,%eax
  103172:	48 89 c6             	mov    %rax,%rsi
  103175:	bf 21 00 00 00       	mov    $0x21,%edi
  10317a:	e8 4f fb ff ff       	call   102cce <set_IDT_entry>
  10317f:	b8 5a 1a 10 00       	mov    $0x101a5a,%eax
  103184:	48 89 c6             	mov    %rax,%rsi
  103187:	bf 22 00 00 00       	mov    $0x22,%edi
  10318c:	e8 3d fb ff ff       	call   102cce <set_IDT_entry>
  103191:	b8 6a 1a 10 00       	mov    $0x101a6a,%eax
  103196:	48 89 c6             	mov    %rax,%rsi
  103199:	bf 23 00 00 00       	mov    $0x23,%edi
  10319e:	e8 2b fb ff ff       	call   102cce <set_IDT_entry>
  1031a3:	b8 7a 1a 10 00       	mov    $0x101a7a,%eax
  1031a8:	48 89 c6             	mov    %rax,%rsi
  1031ab:	bf 24 00 00 00       	mov    $0x24,%edi
  1031b0:	e8 19 fb ff ff       	call   102cce <set_IDT_entry>
  1031b5:	b8 8a 1a 10 00       	mov    $0x101a8a,%eax
  1031ba:	48 89 c6             	mov    %rax,%rsi
  1031bd:	bf 25 00 00 00       	mov    $0x25,%edi
  1031c2:	e8 07 fb ff ff       	call   102cce <set_IDT_entry>
  1031c7:	b8 9a 1a 10 00       	mov    $0x101a9a,%eax
  1031cc:	48 89 c6             	mov    %rax,%rsi
  1031cf:	bf 26 00 00 00       	mov    $0x26,%edi
  1031d4:	e8 f5 fa ff ff       	call   102cce <set_IDT_entry>
  1031d9:	b8 aa 1a 10 00       	mov    $0x101aaa,%eax
  1031de:	48 89 c6             	mov    %rax,%rsi
  1031e1:	bf 27 00 00 00       	mov    $0x27,%edi
  1031e6:	e8 e3 fa ff ff       	call   102cce <set_IDT_entry>
  1031eb:	b8 ba 1a 10 00       	mov    $0x101aba,%eax
  1031f0:	48 89 c6             	mov    %rax,%rsi
  1031f3:	bf 28 00 00 00       	mov    $0x28,%edi
  1031f8:	e8 d1 fa ff ff       	call   102cce <set_IDT_entry>
  1031fd:	b8 ca 1a 10 00       	mov    $0x101aca,%eax
  103202:	48 89 c6             	mov    %rax,%rsi
  103205:	bf 29 00 00 00       	mov    $0x29,%edi
  10320a:	e8 bf fa ff ff       	call   102cce <set_IDT_entry>
  10320f:	b8 da 1a 10 00       	mov    $0x101ada,%eax
  103214:	48 89 c6             	mov    %rax,%rsi
  103217:	bf 2a 00 00 00       	mov    $0x2a,%edi
  10321c:	e8 ad fa ff ff       	call   102cce <set_IDT_entry>
  103221:	b8 ea 1a 10 00       	mov    $0x101aea,%eax
  103226:	48 89 c6             	mov    %rax,%rsi
  103229:	bf 2b 00 00 00       	mov    $0x2b,%edi
  10322e:	e8 9b fa ff ff       	call   102cce <set_IDT_entry>
  103233:	b8 fa 1a 10 00       	mov    $0x101afa,%eax
  103238:	48 89 c6             	mov    %rax,%rsi
  10323b:	bf 2c 00 00 00       	mov    $0x2c,%edi
  103240:	e8 89 fa ff ff       	call   102cce <set_IDT_entry>
  103245:	b8 0a 1b 10 00       	mov    $0x101b0a,%eax
  10324a:	48 89 c6             	mov    %rax,%rsi
  10324d:	bf 2d 00 00 00       	mov    $0x2d,%edi
  103252:	e8 77 fa ff ff       	call   102cce <set_IDT_entry>
  103257:	b8 1a 1b 10 00       	mov    $0x101b1a,%eax
  10325c:	48 89 c6             	mov    %rax,%rsi
  10325f:	bf 2e 00 00 00       	mov    $0x2e,%edi
  103264:	e8 65 fa ff ff       	call   102cce <set_IDT_entry>
  103269:	b8 2a 1b 10 00       	mov    $0x101b2a,%eax
  10326e:	48 89 c6             	mov    %rax,%rsi
  103271:	bf 2f 00 00 00       	mov    $0x2f,%edi
  103276:	e8 53 fa ff ff       	call   102cce <set_IDT_entry>
  10327b:	b8 3a 1b 10 00       	mov    $0x101b3a,%eax
  103280:	48 89 c6             	mov    %rax,%rsi
  103283:	bf 30 00 00 00       	mov    $0x30,%edi
  103288:	e8 41 fa ff ff       	call   102cce <set_IDT_entry>
  10328d:	b8 4a 1b 10 00       	mov    $0x101b4a,%eax
  103292:	48 89 c6             	mov    %rax,%rsi
  103295:	bf 31 00 00 00       	mov    $0x31,%edi
  10329a:	e8 2f fa ff ff       	call   102cce <set_IDT_entry>
  10329f:	b8 5a 1b 10 00       	mov    $0x101b5a,%eax
  1032a4:	48 89 c6             	mov    %rax,%rsi
  1032a7:	bf 32 00 00 00       	mov    $0x32,%edi
  1032ac:	e8 1d fa ff ff       	call   102cce <set_IDT_entry>
  1032b1:	b8 6a 1b 10 00       	mov    $0x101b6a,%eax
  1032b6:	48 89 c6             	mov    %rax,%rsi
  1032b9:	bf 33 00 00 00       	mov    $0x33,%edi
  1032be:	e8 0b fa ff ff       	call   102cce <set_IDT_entry>
  1032c3:	b8 7a 1b 10 00       	mov    $0x101b7a,%eax
  1032c8:	48 89 c6             	mov    %rax,%rsi
  1032cb:	bf 34 00 00 00       	mov    $0x34,%edi
  1032d0:	e8 f9 f9 ff ff       	call   102cce <set_IDT_entry>
  1032d5:	b8 8a 1b 10 00       	mov    $0x101b8a,%eax
  1032da:	48 89 c6             	mov    %rax,%rsi
  1032dd:	bf 35 00 00 00       	mov    $0x35,%edi
  1032e2:	e8 e7 f9 ff ff       	call   102cce <set_IDT_entry>
  1032e7:	b8 9a 1b 10 00       	mov    $0x101b9a,%eax
  1032ec:	48 89 c6             	mov    %rax,%rsi
  1032ef:	bf 36 00 00 00       	mov    $0x36,%edi
  1032f4:	e8 d5 f9 ff ff       	call   102cce <set_IDT_entry>
  1032f9:	b8 aa 1b 10 00       	mov    $0x101baa,%eax
  1032fe:	48 89 c6             	mov    %rax,%rsi
  103301:	bf 37 00 00 00       	mov    $0x37,%edi
  103306:	e8 c3 f9 ff ff       	call   102cce <set_IDT_entry>
  10330b:	b8 ba 1b 10 00       	mov    $0x101bba,%eax
  103310:	48 89 c6             	mov    %rax,%rsi
  103313:	bf 38 00 00 00       	mov    $0x38,%edi
  103318:	e8 b1 f9 ff ff       	call   102cce <set_IDT_entry>
  10331d:	b8 ca 1b 10 00       	mov    $0x101bca,%eax
  103322:	48 89 c6             	mov    %rax,%rsi
  103325:	bf 39 00 00 00       	mov    $0x39,%edi
  10332a:	e8 9f f9 ff ff       	call   102cce <set_IDT_entry>
  10332f:	b8 da 1b 10 00       	mov    $0x101bda,%eax
  103334:	48 89 c6             	mov    %rax,%rsi
  103337:	bf 3a 00 00 00       	mov    $0x3a,%edi
  10333c:	e8 8d f9 ff ff       	call   102cce <set_IDT_entry>
  103341:	b8 ea 1b 10 00       	mov    $0x101bea,%eax
  103346:	48 89 c6             	mov    %rax,%rsi
  103349:	bf 3b 00 00 00       	mov    $0x3b,%edi
  10334e:	e8 7b f9 ff ff       	call   102cce <set_IDT_entry>
  103353:	b8 fa 1b 10 00       	mov    $0x101bfa,%eax
  103358:	48 89 c6             	mov    %rax,%rsi
  10335b:	bf 3c 00 00 00       	mov    $0x3c,%edi
  103360:	e8 69 f9 ff ff       	call   102cce <set_IDT_entry>
  103365:	b8 0a 1c 10 00       	mov    $0x101c0a,%eax
  10336a:	48 89 c6             	mov    %rax,%rsi
  10336d:	bf 3d 00 00 00       	mov    $0x3d,%edi
  103372:	e8 57 f9 ff ff       	call   102cce <set_IDT_entry>
  103377:	b8 1a 1c 10 00       	mov    $0x101c1a,%eax
  10337c:	48 89 c6             	mov    %rax,%rsi
  10337f:	bf 3e 00 00 00       	mov    $0x3e,%edi
  103384:	e8 45 f9 ff ff       	call   102cce <set_IDT_entry>
  103389:	b8 2a 1c 10 00       	mov    $0x101c2a,%eax
  10338e:	48 89 c6             	mov    %rax,%rsi
  103391:	bf 3f 00 00 00       	mov    $0x3f,%edi
  103396:	e8 33 f9 ff ff       	call   102cce <set_IDT_entry>
  10339b:	b8 3a 1c 10 00       	mov    $0x101c3a,%eax
  1033a0:	48 89 c6             	mov    %rax,%rsi
  1033a3:	bf 40 00 00 00       	mov    $0x40,%edi
  1033a8:	e8 21 f9 ff ff       	call   102cce <set_IDT_entry>
  1033ad:	b8 4a 1c 10 00       	mov    $0x101c4a,%eax
  1033b2:	48 89 c6             	mov    %rax,%rsi
  1033b5:	bf 41 00 00 00       	mov    $0x41,%edi
  1033ba:	e8 0f f9 ff ff       	call   102cce <set_IDT_entry>
  1033bf:	b8 5a 1c 10 00       	mov    $0x101c5a,%eax
  1033c4:	48 89 c6             	mov    %rax,%rsi
  1033c7:	bf 42 00 00 00       	mov    $0x42,%edi
  1033cc:	e8 fd f8 ff ff       	call   102cce <set_IDT_entry>
  1033d1:	b8 6a 1c 10 00       	mov    $0x101c6a,%eax
  1033d6:	48 89 c6             	mov    %rax,%rsi
  1033d9:	bf 43 00 00 00       	mov    $0x43,%edi
  1033de:	e8 eb f8 ff ff       	call   102cce <set_IDT_entry>
  1033e3:	b8 7a 1c 10 00       	mov    $0x101c7a,%eax
  1033e8:	48 89 c6             	mov    %rax,%rsi
  1033eb:	bf 44 00 00 00       	mov    $0x44,%edi
  1033f0:	e8 d9 f8 ff ff       	call   102cce <set_IDT_entry>
  1033f5:	b8 8a 1c 10 00       	mov    $0x101c8a,%eax
  1033fa:	48 89 c6             	mov    %rax,%rsi
  1033fd:	bf 45 00 00 00       	mov    $0x45,%edi
  103402:	e8 c7 f8 ff ff       	call   102cce <set_IDT_entry>
  103407:	b8 9a 1c 10 00       	mov    $0x101c9a,%eax
  10340c:	48 89 c6             	mov    %rax,%rsi
  10340f:	bf 46 00 00 00       	mov    $0x46,%edi
  103414:	e8 b5 f8 ff ff       	call   102cce <set_IDT_entry>
  103419:	b8 aa 1c 10 00       	mov    $0x101caa,%eax
  10341e:	48 89 c6             	mov    %rax,%rsi
  103421:	bf 47 00 00 00       	mov    $0x47,%edi
  103426:	e8 a3 f8 ff ff       	call   102cce <set_IDT_entry>
  10342b:	b8 ba 1c 10 00       	mov    $0x101cba,%eax
  103430:	48 89 c6             	mov    %rax,%rsi
  103433:	bf 48 00 00 00       	mov    $0x48,%edi
  103438:	e8 91 f8 ff ff       	call   102cce <set_IDT_entry>
  10343d:	b8 ca 1c 10 00       	mov    $0x101cca,%eax
  103442:	48 89 c6             	mov    %rax,%rsi
  103445:	bf 49 00 00 00       	mov    $0x49,%edi
  10344a:	e8 7f f8 ff ff       	call   102cce <set_IDT_entry>
  10344f:	b8 da 1c 10 00       	mov    $0x101cda,%eax
  103454:	48 89 c6             	mov    %rax,%rsi
  103457:	bf 4a 00 00 00       	mov    $0x4a,%edi
  10345c:	e8 6d f8 ff ff       	call   102cce <set_IDT_entry>
  103461:	b8 ea 1c 10 00       	mov    $0x101cea,%eax
  103466:	48 89 c6             	mov    %rax,%rsi
  103469:	bf 4b 00 00 00       	mov    $0x4b,%edi
  10346e:	e8 5b f8 ff ff       	call   102cce <set_IDT_entry>
  103473:	b8 fa 1c 10 00       	mov    $0x101cfa,%eax
  103478:	48 89 c6             	mov    %rax,%rsi
  10347b:	bf 4c 00 00 00       	mov    $0x4c,%edi
  103480:	e8 49 f8 ff ff       	call   102cce <set_IDT_entry>
  103485:	b8 0a 1d 10 00       	mov    $0x101d0a,%eax
  10348a:	48 89 c6             	mov    %rax,%rsi
  10348d:	bf 4d 00 00 00       	mov    $0x4d,%edi
  103492:	e8 37 f8 ff ff       	call   102cce <set_IDT_entry>
  103497:	b8 1a 1d 10 00       	mov    $0x101d1a,%eax
  10349c:	48 89 c6             	mov    %rax,%rsi
  10349f:	bf 4e 00 00 00       	mov    $0x4e,%edi
  1034a4:	e8 25 f8 ff ff       	call   102cce <set_IDT_entry>
  1034a9:	b8 2a 1d 10 00       	mov    $0x101d2a,%eax
  1034ae:	48 89 c6             	mov    %rax,%rsi
  1034b1:	bf 4f 00 00 00       	mov    $0x4f,%edi
  1034b6:	e8 13 f8 ff ff       	call   102cce <set_IDT_entry>
  1034bb:	b8 3a 1d 10 00       	mov    $0x101d3a,%eax
  1034c0:	48 89 c6             	mov    %rax,%rsi
  1034c3:	bf 50 00 00 00       	mov    $0x50,%edi
  1034c8:	e8 01 f8 ff ff       	call   102cce <set_IDT_entry>
  1034cd:	b8 4a 1d 10 00       	mov    $0x101d4a,%eax
  1034d2:	48 89 c6             	mov    %rax,%rsi
  1034d5:	bf 51 00 00 00       	mov    $0x51,%edi
  1034da:	e8 ef f7 ff ff       	call   102cce <set_IDT_entry>
  1034df:	b8 5a 1d 10 00       	mov    $0x101d5a,%eax
  1034e4:	48 89 c6             	mov    %rax,%rsi
  1034e7:	bf 52 00 00 00       	mov    $0x52,%edi
  1034ec:	e8 dd f7 ff ff       	call   102cce <set_IDT_entry>
  1034f1:	b8 6a 1d 10 00       	mov    $0x101d6a,%eax
  1034f6:	48 89 c6             	mov    %rax,%rsi
  1034f9:	bf 53 00 00 00       	mov    $0x53,%edi
  1034fe:	e8 cb f7 ff ff       	call   102cce <set_IDT_entry>
  103503:	b8 7a 1d 10 00       	mov    $0x101d7a,%eax
  103508:	48 89 c6             	mov    %rax,%rsi
  10350b:	bf 54 00 00 00       	mov    $0x54,%edi
  103510:	e8 b9 f7 ff ff       	call   102cce <set_IDT_entry>
  103515:	b8 8a 1d 10 00       	mov    $0x101d8a,%eax
  10351a:	48 89 c6             	mov    %rax,%rsi
  10351d:	bf 55 00 00 00       	mov    $0x55,%edi
  103522:	e8 a7 f7 ff ff       	call   102cce <set_IDT_entry>
  103527:	b8 9a 1d 10 00       	mov    $0x101d9a,%eax
  10352c:	48 89 c6             	mov    %rax,%rsi
  10352f:	bf 56 00 00 00       	mov    $0x56,%edi
  103534:	e8 95 f7 ff ff       	call   102cce <set_IDT_entry>
  103539:	b8 aa 1d 10 00       	mov    $0x101daa,%eax
  10353e:	48 89 c6             	mov    %rax,%rsi
  103541:	bf 57 00 00 00       	mov    $0x57,%edi
  103546:	e8 83 f7 ff ff       	call   102cce <set_IDT_entry>
  10354b:	b8 ba 1d 10 00       	mov    $0x101dba,%eax
  103550:	48 89 c6             	mov    %rax,%rsi
  103553:	bf 58 00 00 00       	mov    $0x58,%edi
  103558:	e8 71 f7 ff ff       	call   102cce <set_IDT_entry>
  10355d:	b8 ca 1d 10 00       	mov    $0x101dca,%eax
  103562:	48 89 c6             	mov    %rax,%rsi
  103565:	bf 59 00 00 00       	mov    $0x59,%edi
  10356a:	e8 5f f7 ff ff       	call   102cce <set_IDT_entry>
  10356f:	b8 da 1d 10 00       	mov    $0x101dda,%eax
  103574:	48 89 c6             	mov    %rax,%rsi
  103577:	bf 5a 00 00 00       	mov    $0x5a,%edi
  10357c:	e8 4d f7 ff ff       	call   102cce <set_IDT_entry>
  103581:	b8 ea 1d 10 00       	mov    $0x101dea,%eax
  103586:	48 89 c6             	mov    %rax,%rsi
  103589:	bf 5b 00 00 00       	mov    $0x5b,%edi
  10358e:	e8 3b f7 ff ff       	call   102cce <set_IDT_entry>
  103593:	b8 fa 1d 10 00       	mov    $0x101dfa,%eax
  103598:	48 89 c6             	mov    %rax,%rsi
  10359b:	bf 5c 00 00 00       	mov    $0x5c,%edi
  1035a0:	e8 29 f7 ff ff       	call   102cce <set_IDT_entry>
  1035a5:	b8 0a 1e 10 00       	mov    $0x101e0a,%eax
  1035aa:	48 89 c6             	mov    %rax,%rsi
  1035ad:	bf 5d 00 00 00       	mov    $0x5d,%edi
  1035b2:	e8 17 f7 ff ff       	call   102cce <set_IDT_entry>
  1035b7:	b8 1a 1e 10 00       	mov    $0x101e1a,%eax
  1035bc:	48 89 c6             	mov    %rax,%rsi
  1035bf:	bf 5e 00 00 00       	mov    $0x5e,%edi
  1035c4:	e8 05 f7 ff ff       	call   102cce <set_IDT_entry>
  1035c9:	b8 2a 1e 10 00       	mov    $0x101e2a,%eax
  1035ce:	48 89 c6             	mov    %rax,%rsi
  1035d1:	bf 5f 00 00 00       	mov    $0x5f,%edi
  1035d6:	e8 f3 f6 ff ff       	call   102cce <set_IDT_entry>
  1035db:	b8 3a 1e 10 00       	mov    $0x101e3a,%eax
  1035e0:	48 89 c6             	mov    %rax,%rsi
  1035e3:	bf 60 00 00 00       	mov    $0x60,%edi
  1035e8:	e8 e1 f6 ff ff       	call   102cce <set_IDT_entry>
  1035ed:	b8 4a 1e 10 00       	mov    $0x101e4a,%eax
  1035f2:	48 89 c6             	mov    %rax,%rsi
  1035f5:	bf 61 00 00 00       	mov    $0x61,%edi
  1035fa:	e8 cf f6 ff ff       	call   102cce <set_IDT_entry>
  1035ff:	b8 5a 1e 10 00       	mov    $0x101e5a,%eax
  103604:	48 89 c6             	mov    %rax,%rsi
  103607:	bf 62 00 00 00       	mov    $0x62,%edi
  10360c:	e8 bd f6 ff ff       	call   102cce <set_IDT_entry>
  103611:	b8 6a 1e 10 00       	mov    $0x101e6a,%eax
  103616:	48 89 c6             	mov    %rax,%rsi
  103619:	bf 63 00 00 00       	mov    $0x63,%edi
  10361e:	e8 ab f6 ff ff       	call   102cce <set_IDT_entry>
  103623:	b8 7a 1e 10 00       	mov    $0x101e7a,%eax
  103628:	48 89 c6             	mov    %rax,%rsi
  10362b:	bf 64 00 00 00       	mov    $0x64,%edi
  103630:	e8 99 f6 ff ff       	call   102cce <set_IDT_entry>
  103635:	b8 8a 1e 10 00       	mov    $0x101e8a,%eax
  10363a:	48 89 c6             	mov    %rax,%rsi
  10363d:	bf 65 00 00 00       	mov    $0x65,%edi
  103642:	e8 87 f6 ff ff       	call   102cce <set_IDT_entry>
  103647:	b8 9a 1e 10 00       	mov    $0x101e9a,%eax
  10364c:	48 89 c6             	mov    %rax,%rsi
  10364f:	bf 66 00 00 00       	mov    $0x66,%edi
  103654:	e8 75 f6 ff ff       	call   102cce <set_IDT_entry>
  103659:	b8 aa 1e 10 00       	mov    $0x101eaa,%eax
  10365e:	48 89 c6             	mov    %rax,%rsi
  103661:	bf 67 00 00 00       	mov    $0x67,%edi
  103666:	e8 63 f6 ff ff       	call   102cce <set_IDT_entry>
  10366b:	b8 ba 1e 10 00       	mov    $0x101eba,%eax
  103670:	48 89 c6             	mov    %rax,%rsi
  103673:	bf 68 00 00 00       	mov    $0x68,%edi
  103678:	e8 51 f6 ff ff       	call   102cce <set_IDT_entry>
  10367d:	b8 ca 1e 10 00       	mov    $0x101eca,%eax
  103682:	48 89 c6             	mov    %rax,%rsi
  103685:	bf 69 00 00 00       	mov    $0x69,%edi
  10368a:	e8 3f f6 ff ff       	call   102cce <set_IDT_entry>
  10368f:	b8 da 1e 10 00       	mov    $0x101eda,%eax
  103694:	48 89 c6             	mov    %rax,%rsi
  103697:	bf 6a 00 00 00       	mov    $0x6a,%edi
  10369c:	e8 2d f6 ff ff       	call   102cce <set_IDT_entry>
  1036a1:	b8 ea 1e 10 00       	mov    $0x101eea,%eax
  1036a6:	48 89 c6             	mov    %rax,%rsi
  1036a9:	bf 6b 00 00 00       	mov    $0x6b,%edi
  1036ae:	e8 1b f6 ff ff       	call   102cce <set_IDT_entry>
  1036b3:	b8 fa 1e 10 00       	mov    $0x101efa,%eax
  1036b8:	48 89 c6             	mov    %rax,%rsi
  1036bb:	bf 6c 00 00 00       	mov    $0x6c,%edi
  1036c0:	e8 09 f6 ff ff       	call   102cce <set_IDT_entry>
  1036c5:	b8 0a 1f 10 00       	mov    $0x101f0a,%eax
  1036ca:	48 89 c6             	mov    %rax,%rsi
  1036cd:	bf 6d 00 00 00       	mov    $0x6d,%edi
  1036d2:	e8 f7 f5 ff ff       	call   102cce <set_IDT_entry>
  1036d7:	b8 1a 1f 10 00       	mov    $0x101f1a,%eax
  1036dc:	48 89 c6             	mov    %rax,%rsi
  1036df:	bf 6e 00 00 00       	mov    $0x6e,%edi
  1036e4:	e8 e5 f5 ff ff       	call   102cce <set_IDT_entry>
  1036e9:	b8 2a 1f 10 00       	mov    $0x101f2a,%eax
  1036ee:	48 89 c6             	mov    %rax,%rsi
  1036f1:	bf 6f 00 00 00       	mov    $0x6f,%edi
  1036f6:	e8 d3 f5 ff ff       	call   102cce <set_IDT_entry>
  1036fb:	b8 3a 1f 10 00       	mov    $0x101f3a,%eax
  103700:	48 89 c6             	mov    %rax,%rsi
  103703:	bf 70 00 00 00       	mov    $0x70,%edi
  103708:	e8 c1 f5 ff ff       	call   102cce <set_IDT_entry>
  10370d:	b8 4a 1f 10 00       	mov    $0x101f4a,%eax
  103712:	48 89 c6             	mov    %rax,%rsi
  103715:	bf 71 00 00 00       	mov    $0x71,%edi
  10371a:	e8 af f5 ff ff       	call   102cce <set_IDT_entry>
  10371f:	b8 5a 1f 10 00       	mov    $0x101f5a,%eax
  103724:	48 89 c6             	mov    %rax,%rsi
  103727:	bf 72 00 00 00       	mov    $0x72,%edi
  10372c:	e8 9d f5 ff ff       	call   102cce <set_IDT_entry>
  103731:	b8 6a 1f 10 00       	mov    $0x101f6a,%eax
  103736:	48 89 c6             	mov    %rax,%rsi
  103739:	bf 73 00 00 00       	mov    $0x73,%edi
  10373e:	e8 8b f5 ff ff       	call   102cce <set_IDT_entry>
  103743:	b8 7a 1f 10 00       	mov    $0x101f7a,%eax
  103748:	48 89 c6             	mov    %rax,%rsi
  10374b:	bf 74 00 00 00       	mov    $0x74,%edi
  103750:	e8 79 f5 ff ff       	call   102cce <set_IDT_entry>
  103755:	b8 8a 1f 10 00       	mov    $0x101f8a,%eax
  10375a:	48 89 c6             	mov    %rax,%rsi
  10375d:	bf 75 00 00 00       	mov    $0x75,%edi
  103762:	e8 67 f5 ff ff       	call   102cce <set_IDT_entry>
  103767:	b8 9a 1f 10 00       	mov    $0x101f9a,%eax
  10376c:	48 89 c6             	mov    %rax,%rsi
  10376f:	bf 76 00 00 00       	mov    $0x76,%edi
  103774:	e8 55 f5 ff ff       	call   102cce <set_IDT_entry>
  103779:	b8 aa 1f 10 00       	mov    $0x101faa,%eax
  10377e:	48 89 c6             	mov    %rax,%rsi
  103781:	bf 77 00 00 00       	mov    $0x77,%edi
  103786:	e8 43 f5 ff ff       	call   102cce <set_IDT_entry>
  10378b:	b8 ba 1f 10 00       	mov    $0x101fba,%eax
  103790:	48 89 c6             	mov    %rax,%rsi
  103793:	bf 78 00 00 00       	mov    $0x78,%edi
  103798:	e8 31 f5 ff ff       	call   102cce <set_IDT_entry>
  10379d:	b8 ca 1f 10 00       	mov    $0x101fca,%eax
  1037a2:	48 89 c6             	mov    %rax,%rsi
  1037a5:	bf 79 00 00 00       	mov    $0x79,%edi
  1037aa:	e8 1f f5 ff ff       	call   102cce <set_IDT_entry>
  1037af:	b8 da 1f 10 00       	mov    $0x101fda,%eax
  1037b4:	48 89 c6             	mov    %rax,%rsi
  1037b7:	bf 7a 00 00 00       	mov    $0x7a,%edi
  1037bc:	e8 0d f5 ff ff       	call   102cce <set_IDT_entry>
  1037c1:	b8 ea 1f 10 00       	mov    $0x101fea,%eax
  1037c6:	48 89 c6             	mov    %rax,%rsi
  1037c9:	bf 7b 00 00 00       	mov    $0x7b,%edi
  1037ce:	e8 fb f4 ff ff       	call   102cce <set_IDT_entry>
  1037d3:	b8 fa 1f 10 00       	mov    $0x101ffa,%eax
  1037d8:	48 89 c6             	mov    %rax,%rsi
  1037db:	bf 7c 00 00 00       	mov    $0x7c,%edi
  1037e0:	e8 e9 f4 ff ff       	call   102cce <set_IDT_entry>
  1037e5:	b8 0a 20 10 00       	mov    $0x10200a,%eax
  1037ea:	48 89 c6             	mov    %rax,%rsi
  1037ed:	bf 7d 00 00 00       	mov    $0x7d,%edi
  1037f2:	e8 d7 f4 ff ff       	call   102cce <set_IDT_entry>
  1037f7:	b8 1a 20 10 00       	mov    $0x10201a,%eax
  1037fc:	48 89 c6             	mov    %rax,%rsi
  1037ff:	bf 7e 00 00 00       	mov    $0x7e,%edi
  103804:	e8 c5 f4 ff ff       	call   102cce <set_IDT_entry>
  103809:	b8 2a 20 10 00       	mov    $0x10202a,%eax
  10380e:	48 89 c6             	mov    %rax,%rsi
  103811:	bf 7f 00 00 00       	mov    $0x7f,%edi
  103816:	e8 b3 f4 ff ff       	call   102cce <set_IDT_entry>
  10381b:	b8 3a 20 10 00       	mov    $0x10203a,%eax
  103820:	48 89 c6             	mov    %rax,%rsi
  103823:	bf 80 00 00 00       	mov    $0x80,%edi
  103828:	e8 a1 f4 ff ff       	call   102cce <set_IDT_entry>
  10382d:	b8 4a 20 10 00       	mov    $0x10204a,%eax
  103832:	48 89 c6             	mov    %rax,%rsi
  103835:	bf 81 00 00 00       	mov    $0x81,%edi
  10383a:	e8 8f f4 ff ff       	call   102cce <set_IDT_entry>
  10383f:	b8 5a 20 10 00       	mov    $0x10205a,%eax
  103844:	48 89 c6             	mov    %rax,%rsi
  103847:	bf 82 00 00 00       	mov    $0x82,%edi
  10384c:	e8 7d f4 ff ff       	call   102cce <set_IDT_entry>
  103851:	b8 6a 20 10 00       	mov    $0x10206a,%eax
  103856:	48 89 c6             	mov    %rax,%rsi
  103859:	bf 83 00 00 00       	mov    $0x83,%edi
  10385e:	e8 6b f4 ff ff       	call   102cce <set_IDT_entry>
  103863:	b8 7a 20 10 00       	mov    $0x10207a,%eax
  103868:	48 89 c6             	mov    %rax,%rsi
  10386b:	bf 84 00 00 00       	mov    $0x84,%edi
  103870:	e8 59 f4 ff ff       	call   102cce <set_IDT_entry>
  103875:	b8 8a 20 10 00       	mov    $0x10208a,%eax
  10387a:	48 89 c6             	mov    %rax,%rsi
  10387d:	bf 85 00 00 00       	mov    $0x85,%edi
  103882:	e8 47 f4 ff ff       	call   102cce <set_IDT_entry>
  103887:	b8 9a 20 10 00       	mov    $0x10209a,%eax
  10388c:	48 89 c6             	mov    %rax,%rsi
  10388f:	bf 86 00 00 00       	mov    $0x86,%edi
  103894:	e8 35 f4 ff ff       	call   102cce <set_IDT_entry>
  103899:	b8 aa 20 10 00       	mov    $0x1020aa,%eax
  10389e:	48 89 c6             	mov    %rax,%rsi
  1038a1:	bf 87 00 00 00       	mov    $0x87,%edi
  1038a6:	e8 23 f4 ff ff       	call   102cce <set_IDT_entry>
  1038ab:	b8 ba 20 10 00       	mov    $0x1020ba,%eax
  1038b0:	48 89 c6             	mov    %rax,%rsi
  1038b3:	bf 88 00 00 00       	mov    $0x88,%edi
  1038b8:	e8 11 f4 ff ff       	call   102cce <set_IDT_entry>
  1038bd:	b8 ca 20 10 00       	mov    $0x1020ca,%eax
  1038c2:	48 89 c6             	mov    %rax,%rsi
  1038c5:	bf 89 00 00 00       	mov    $0x89,%edi
  1038ca:	e8 ff f3 ff ff       	call   102cce <set_IDT_entry>
  1038cf:	b8 da 20 10 00       	mov    $0x1020da,%eax
  1038d4:	48 89 c6             	mov    %rax,%rsi
  1038d7:	bf 8a 00 00 00       	mov    $0x8a,%edi
  1038dc:	e8 ed f3 ff ff       	call   102cce <set_IDT_entry>
  1038e1:	b8 ea 20 10 00       	mov    $0x1020ea,%eax
  1038e6:	48 89 c6             	mov    %rax,%rsi
  1038e9:	bf 8b 00 00 00       	mov    $0x8b,%edi
  1038ee:	e8 db f3 ff ff       	call   102cce <set_IDT_entry>
  1038f3:	b8 fa 20 10 00       	mov    $0x1020fa,%eax
  1038f8:	48 89 c6             	mov    %rax,%rsi
  1038fb:	bf 8c 00 00 00       	mov    $0x8c,%edi
  103900:	e8 c9 f3 ff ff       	call   102cce <set_IDT_entry>
  103905:	b8 0a 21 10 00       	mov    $0x10210a,%eax
  10390a:	48 89 c6             	mov    %rax,%rsi
  10390d:	bf 8d 00 00 00       	mov    $0x8d,%edi
  103912:	e8 b7 f3 ff ff       	call   102cce <set_IDT_entry>
  103917:	b8 1a 21 10 00       	mov    $0x10211a,%eax
  10391c:	48 89 c6             	mov    %rax,%rsi
  10391f:	bf 8e 00 00 00       	mov    $0x8e,%edi
  103924:	e8 a5 f3 ff ff       	call   102cce <set_IDT_entry>
  103929:	b8 2a 21 10 00       	mov    $0x10212a,%eax
  10392e:	48 89 c6             	mov    %rax,%rsi
  103931:	bf 8f 00 00 00       	mov    $0x8f,%edi
  103936:	e8 93 f3 ff ff       	call   102cce <set_IDT_entry>
  10393b:	b8 3a 21 10 00       	mov    $0x10213a,%eax
  103940:	48 89 c6             	mov    %rax,%rsi
  103943:	bf 90 00 00 00       	mov    $0x90,%edi
  103948:	e8 81 f3 ff ff       	call   102cce <set_IDT_entry>
  10394d:	b8 4a 21 10 00       	mov    $0x10214a,%eax
  103952:	48 89 c6             	mov    %rax,%rsi
  103955:	bf 91 00 00 00       	mov    $0x91,%edi
  10395a:	e8 6f f3 ff ff       	call   102cce <set_IDT_entry>
  10395f:	b8 5a 21 10 00       	mov    $0x10215a,%eax
  103964:	48 89 c6             	mov    %rax,%rsi
  103967:	bf 92 00 00 00       	mov    $0x92,%edi
  10396c:	e8 5d f3 ff ff       	call   102cce <set_IDT_entry>
  103971:	b8 6a 21 10 00       	mov    $0x10216a,%eax
  103976:	48 89 c6             	mov    %rax,%rsi
  103979:	bf 93 00 00 00       	mov    $0x93,%edi
  10397e:	e8 4b f3 ff ff       	call   102cce <set_IDT_entry>
  103983:	b8 7a 21 10 00       	mov    $0x10217a,%eax
  103988:	48 89 c6             	mov    %rax,%rsi
  10398b:	bf 94 00 00 00       	mov    $0x94,%edi
  103990:	e8 39 f3 ff ff       	call   102cce <set_IDT_entry>
  103995:	b8 8a 21 10 00       	mov    $0x10218a,%eax
  10399a:	48 89 c6             	mov    %rax,%rsi
  10399d:	bf 95 00 00 00       	mov    $0x95,%edi
  1039a2:	e8 27 f3 ff ff       	call   102cce <set_IDT_entry>
  1039a7:	b8 9a 21 10 00       	mov    $0x10219a,%eax
  1039ac:	48 89 c6             	mov    %rax,%rsi
  1039af:	bf 96 00 00 00       	mov    $0x96,%edi
  1039b4:	e8 15 f3 ff ff       	call   102cce <set_IDT_entry>
  1039b9:	b8 aa 21 10 00       	mov    $0x1021aa,%eax
  1039be:	48 89 c6             	mov    %rax,%rsi
  1039c1:	bf 97 00 00 00       	mov    $0x97,%edi
  1039c6:	e8 03 f3 ff ff       	call   102cce <set_IDT_entry>
  1039cb:	b8 ba 21 10 00       	mov    $0x1021ba,%eax
  1039d0:	48 89 c6             	mov    %rax,%rsi
  1039d3:	bf 98 00 00 00       	mov    $0x98,%edi
  1039d8:	e8 f1 f2 ff ff       	call   102cce <set_IDT_entry>
  1039dd:	b8 ca 21 10 00       	mov    $0x1021ca,%eax
  1039e2:	48 89 c6             	mov    %rax,%rsi
  1039e5:	bf 99 00 00 00       	mov    $0x99,%edi
  1039ea:	e8 df f2 ff ff       	call   102cce <set_IDT_entry>
  1039ef:	b8 da 21 10 00       	mov    $0x1021da,%eax
  1039f4:	48 89 c6             	mov    %rax,%rsi
  1039f7:	bf 9a 00 00 00       	mov    $0x9a,%edi
  1039fc:	e8 cd f2 ff ff       	call   102cce <set_IDT_entry>
  103a01:	b8 ea 21 10 00       	mov    $0x1021ea,%eax
  103a06:	48 89 c6             	mov    %rax,%rsi
  103a09:	bf 9b 00 00 00       	mov    $0x9b,%edi
  103a0e:	e8 bb f2 ff ff       	call   102cce <set_IDT_entry>
  103a13:	b8 fa 21 10 00       	mov    $0x1021fa,%eax
  103a18:	48 89 c6             	mov    %rax,%rsi
  103a1b:	bf 9c 00 00 00       	mov    $0x9c,%edi
  103a20:	e8 a9 f2 ff ff       	call   102cce <set_IDT_entry>
  103a25:	b8 0a 22 10 00       	mov    $0x10220a,%eax
  103a2a:	48 89 c6             	mov    %rax,%rsi
  103a2d:	bf 9d 00 00 00       	mov    $0x9d,%edi
  103a32:	e8 97 f2 ff ff       	call   102cce <set_IDT_entry>
  103a37:	b8 1a 22 10 00       	mov    $0x10221a,%eax
  103a3c:	48 89 c6             	mov    %rax,%rsi
  103a3f:	bf 9e 00 00 00       	mov    $0x9e,%edi
  103a44:	e8 85 f2 ff ff       	call   102cce <set_IDT_entry>
  103a49:	b8 2a 22 10 00       	mov    $0x10222a,%eax
  103a4e:	48 89 c6             	mov    %rax,%rsi
  103a51:	bf 9f 00 00 00       	mov    $0x9f,%edi
  103a56:	e8 73 f2 ff ff       	call   102cce <set_IDT_entry>
  103a5b:	b8 3a 22 10 00       	mov    $0x10223a,%eax
  103a60:	48 89 c6             	mov    %rax,%rsi
  103a63:	bf a0 00 00 00       	mov    $0xa0,%edi
  103a68:	e8 61 f2 ff ff       	call   102cce <set_IDT_entry>
  103a6d:	b8 4a 22 10 00       	mov    $0x10224a,%eax
  103a72:	48 89 c6             	mov    %rax,%rsi
  103a75:	bf a1 00 00 00       	mov    $0xa1,%edi
  103a7a:	e8 4f f2 ff ff       	call   102cce <set_IDT_entry>
  103a7f:	b8 5a 22 10 00       	mov    $0x10225a,%eax
  103a84:	48 89 c6             	mov    %rax,%rsi
  103a87:	bf a2 00 00 00       	mov    $0xa2,%edi
  103a8c:	e8 3d f2 ff ff       	call   102cce <set_IDT_entry>
  103a91:	b8 6a 22 10 00       	mov    $0x10226a,%eax
  103a96:	48 89 c6             	mov    %rax,%rsi
  103a99:	bf a3 00 00 00       	mov    $0xa3,%edi
  103a9e:	e8 2b f2 ff ff       	call   102cce <set_IDT_entry>
  103aa3:	b8 7a 22 10 00       	mov    $0x10227a,%eax
  103aa8:	48 89 c6             	mov    %rax,%rsi
  103aab:	bf a4 00 00 00       	mov    $0xa4,%edi
  103ab0:	e8 19 f2 ff ff       	call   102cce <set_IDT_entry>
  103ab5:	b8 8a 22 10 00       	mov    $0x10228a,%eax
  103aba:	48 89 c6             	mov    %rax,%rsi
  103abd:	bf a5 00 00 00       	mov    $0xa5,%edi
  103ac2:	e8 07 f2 ff ff       	call   102cce <set_IDT_entry>
  103ac7:	b8 9a 22 10 00       	mov    $0x10229a,%eax
  103acc:	48 89 c6             	mov    %rax,%rsi
  103acf:	bf a6 00 00 00       	mov    $0xa6,%edi
  103ad4:	e8 f5 f1 ff ff       	call   102cce <set_IDT_entry>
  103ad9:	b8 aa 22 10 00       	mov    $0x1022aa,%eax
  103ade:	48 89 c6             	mov    %rax,%rsi
  103ae1:	bf a7 00 00 00       	mov    $0xa7,%edi
  103ae6:	e8 e3 f1 ff ff       	call   102cce <set_IDT_entry>
  103aeb:	b8 ba 22 10 00       	mov    $0x1022ba,%eax
  103af0:	48 89 c6             	mov    %rax,%rsi
  103af3:	bf a8 00 00 00       	mov    $0xa8,%edi
  103af8:	e8 d1 f1 ff ff       	call   102cce <set_IDT_entry>
  103afd:	b8 ca 22 10 00       	mov    $0x1022ca,%eax
  103b02:	48 89 c6             	mov    %rax,%rsi
  103b05:	bf a9 00 00 00       	mov    $0xa9,%edi
  103b0a:	e8 bf f1 ff ff       	call   102cce <set_IDT_entry>
  103b0f:	b8 da 22 10 00       	mov    $0x1022da,%eax
  103b14:	48 89 c6             	mov    %rax,%rsi
  103b17:	bf aa 00 00 00       	mov    $0xaa,%edi
  103b1c:	e8 ad f1 ff ff       	call   102cce <set_IDT_entry>
  103b21:	b8 ea 22 10 00       	mov    $0x1022ea,%eax
  103b26:	48 89 c6             	mov    %rax,%rsi
  103b29:	bf ab 00 00 00       	mov    $0xab,%edi
  103b2e:	e8 9b f1 ff ff       	call   102cce <set_IDT_entry>
  103b33:	b8 fa 22 10 00       	mov    $0x1022fa,%eax
  103b38:	48 89 c6             	mov    %rax,%rsi
  103b3b:	bf ac 00 00 00       	mov    $0xac,%edi
  103b40:	e8 89 f1 ff ff       	call   102cce <set_IDT_entry>
  103b45:	b8 0a 23 10 00       	mov    $0x10230a,%eax
  103b4a:	48 89 c6             	mov    %rax,%rsi
  103b4d:	bf ad 00 00 00       	mov    $0xad,%edi
  103b52:	e8 77 f1 ff ff       	call   102cce <set_IDT_entry>
  103b57:	b8 1a 23 10 00       	mov    $0x10231a,%eax
  103b5c:	48 89 c6             	mov    %rax,%rsi
  103b5f:	bf ae 00 00 00       	mov    $0xae,%edi
  103b64:	e8 65 f1 ff ff       	call   102cce <set_IDT_entry>
  103b69:	b8 2a 23 10 00       	mov    $0x10232a,%eax
  103b6e:	48 89 c6             	mov    %rax,%rsi
  103b71:	bf af 00 00 00       	mov    $0xaf,%edi
  103b76:	e8 53 f1 ff ff       	call   102cce <set_IDT_entry>
  103b7b:	b8 3a 23 10 00       	mov    $0x10233a,%eax
  103b80:	48 89 c6             	mov    %rax,%rsi
  103b83:	bf b0 00 00 00       	mov    $0xb0,%edi
  103b88:	e8 41 f1 ff ff       	call   102cce <set_IDT_entry>
  103b8d:	b8 4a 23 10 00       	mov    $0x10234a,%eax
  103b92:	48 89 c6             	mov    %rax,%rsi
  103b95:	bf b1 00 00 00       	mov    $0xb1,%edi
  103b9a:	e8 2f f1 ff ff       	call   102cce <set_IDT_entry>
  103b9f:	b8 5a 23 10 00       	mov    $0x10235a,%eax
  103ba4:	48 89 c6             	mov    %rax,%rsi
  103ba7:	bf b2 00 00 00       	mov    $0xb2,%edi
  103bac:	e8 1d f1 ff ff       	call   102cce <set_IDT_entry>
  103bb1:	b8 6a 23 10 00       	mov    $0x10236a,%eax
  103bb6:	48 89 c6             	mov    %rax,%rsi
  103bb9:	bf b3 00 00 00       	mov    $0xb3,%edi
  103bbe:	e8 0b f1 ff ff       	call   102cce <set_IDT_entry>
  103bc3:	b8 7a 23 10 00       	mov    $0x10237a,%eax
  103bc8:	48 89 c6             	mov    %rax,%rsi
  103bcb:	bf b4 00 00 00       	mov    $0xb4,%edi
  103bd0:	e8 f9 f0 ff ff       	call   102cce <set_IDT_entry>
  103bd5:	b8 8a 23 10 00       	mov    $0x10238a,%eax
  103bda:	48 89 c6             	mov    %rax,%rsi
  103bdd:	bf b5 00 00 00       	mov    $0xb5,%edi
  103be2:	e8 e7 f0 ff ff       	call   102cce <set_IDT_entry>
  103be7:	b8 9a 23 10 00       	mov    $0x10239a,%eax
  103bec:	48 89 c6             	mov    %rax,%rsi
  103bef:	bf b6 00 00 00       	mov    $0xb6,%edi
  103bf4:	e8 d5 f0 ff ff       	call   102cce <set_IDT_entry>
  103bf9:	b8 aa 23 10 00       	mov    $0x1023aa,%eax
  103bfe:	48 89 c6             	mov    %rax,%rsi
  103c01:	bf b7 00 00 00       	mov    $0xb7,%edi
  103c06:	e8 c3 f0 ff ff       	call   102cce <set_IDT_entry>
  103c0b:	b8 ba 23 10 00       	mov    $0x1023ba,%eax
  103c10:	48 89 c6             	mov    %rax,%rsi
  103c13:	bf b8 00 00 00       	mov    $0xb8,%edi
  103c18:	e8 b1 f0 ff ff       	call   102cce <set_IDT_entry>
  103c1d:	b8 ca 23 10 00       	mov    $0x1023ca,%eax
  103c22:	48 89 c6             	mov    %rax,%rsi
  103c25:	bf b9 00 00 00       	mov    $0xb9,%edi
  103c2a:	e8 9f f0 ff ff       	call   102cce <set_IDT_entry>
  103c2f:	b8 da 23 10 00       	mov    $0x1023da,%eax
  103c34:	48 89 c6             	mov    %rax,%rsi
  103c37:	bf ba 00 00 00       	mov    $0xba,%edi
  103c3c:	e8 8d f0 ff ff       	call   102cce <set_IDT_entry>
  103c41:	b8 ea 23 10 00       	mov    $0x1023ea,%eax
  103c46:	48 89 c6             	mov    %rax,%rsi
  103c49:	bf bb 00 00 00       	mov    $0xbb,%edi
  103c4e:	e8 7b f0 ff ff       	call   102cce <set_IDT_entry>
  103c53:	b8 fa 23 10 00       	mov    $0x1023fa,%eax
  103c58:	48 89 c6             	mov    %rax,%rsi
  103c5b:	bf bc 00 00 00       	mov    $0xbc,%edi
  103c60:	e8 69 f0 ff ff       	call   102cce <set_IDT_entry>
  103c65:	b8 0a 24 10 00       	mov    $0x10240a,%eax
  103c6a:	48 89 c6             	mov    %rax,%rsi
  103c6d:	bf bd 00 00 00       	mov    $0xbd,%edi
  103c72:	e8 57 f0 ff ff       	call   102cce <set_IDT_entry>
  103c77:	b8 1a 24 10 00       	mov    $0x10241a,%eax
  103c7c:	48 89 c6             	mov    %rax,%rsi
  103c7f:	bf be 00 00 00       	mov    $0xbe,%edi
  103c84:	e8 45 f0 ff ff       	call   102cce <set_IDT_entry>
  103c89:	b8 2a 24 10 00       	mov    $0x10242a,%eax
  103c8e:	48 89 c6             	mov    %rax,%rsi
  103c91:	bf bf 00 00 00       	mov    $0xbf,%edi
  103c96:	e8 33 f0 ff ff       	call   102cce <set_IDT_entry>
  103c9b:	b8 3a 24 10 00       	mov    $0x10243a,%eax
  103ca0:	48 89 c6             	mov    %rax,%rsi
  103ca3:	bf c0 00 00 00       	mov    $0xc0,%edi
  103ca8:	e8 21 f0 ff ff       	call   102cce <set_IDT_entry>
  103cad:	b8 4a 24 10 00       	mov    $0x10244a,%eax
  103cb2:	48 89 c6             	mov    %rax,%rsi
  103cb5:	bf c1 00 00 00       	mov    $0xc1,%edi
  103cba:	e8 0f f0 ff ff       	call   102cce <set_IDT_entry>
  103cbf:	b8 5a 24 10 00       	mov    $0x10245a,%eax
  103cc4:	48 89 c6             	mov    %rax,%rsi
  103cc7:	bf c2 00 00 00       	mov    $0xc2,%edi
  103ccc:	e8 fd ef ff ff       	call   102cce <set_IDT_entry>
  103cd1:	b8 6a 24 10 00       	mov    $0x10246a,%eax
  103cd6:	48 89 c6             	mov    %rax,%rsi
  103cd9:	bf c3 00 00 00       	mov    $0xc3,%edi
  103cde:	e8 eb ef ff ff       	call   102cce <set_IDT_entry>
  103ce3:	b8 7a 24 10 00       	mov    $0x10247a,%eax
  103ce8:	48 89 c6             	mov    %rax,%rsi
  103ceb:	bf c4 00 00 00       	mov    $0xc4,%edi
  103cf0:	e8 d9 ef ff ff       	call   102cce <set_IDT_entry>
  103cf5:	b8 8a 24 10 00       	mov    $0x10248a,%eax
  103cfa:	48 89 c6             	mov    %rax,%rsi
  103cfd:	bf c5 00 00 00       	mov    $0xc5,%edi
  103d02:	e8 c7 ef ff ff       	call   102cce <set_IDT_entry>
  103d07:	b8 9a 24 10 00       	mov    $0x10249a,%eax
  103d0c:	48 89 c6             	mov    %rax,%rsi
  103d0f:	bf c6 00 00 00       	mov    $0xc6,%edi
  103d14:	e8 b5 ef ff ff       	call   102cce <set_IDT_entry>
  103d19:	b8 aa 24 10 00       	mov    $0x1024aa,%eax
  103d1e:	48 89 c6             	mov    %rax,%rsi
  103d21:	bf c7 00 00 00       	mov    $0xc7,%edi
  103d26:	e8 a3 ef ff ff       	call   102cce <set_IDT_entry>
  103d2b:	b8 ba 24 10 00       	mov    $0x1024ba,%eax
  103d30:	48 89 c6             	mov    %rax,%rsi
  103d33:	bf c8 00 00 00       	mov    $0xc8,%edi
  103d38:	e8 91 ef ff ff       	call   102cce <set_IDT_entry>
  103d3d:	b8 ca 24 10 00       	mov    $0x1024ca,%eax
  103d42:	48 89 c6             	mov    %rax,%rsi
  103d45:	bf c9 00 00 00       	mov    $0xc9,%edi
  103d4a:	e8 7f ef ff ff       	call   102cce <set_IDT_entry>
  103d4f:	b8 da 24 10 00       	mov    $0x1024da,%eax
  103d54:	48 89 c6             	mov    %rax,%rsi
  103d57:	bf ca 00 00 00       	mov    $0xca,%edi
  103d5c:	e8 6d ef ff ff       	call   102cce <set_IDT_entry>
  103d61:	b8 ea 24 10 00       	mov    $0x1024ea,%eax
  103d66:	48 89 c6             	mov    %rax,%rsi
  103d69:	bf cb 00 00 00       	mov    $0xcb,%edi
  103d6e:	e8 5b ef ff ff       	call   102cce <set_IDT_entry>
  103d73:	b8 fa 24 10 00       	mov    $0x1024fa,%eax
  103d78:	48 89 c6             	mov    %rax,%rsi
  103d7b:	bf cc 00 00 00       	mov    $0xcc,%edi
  103d80:	e8 49 ef ff ff       	call   102cce <set_IDT_entry>
  103d85:	b8 0a 25 10 00       	mov    $0x10250a,%eax
  103d8a:	48 89 c6             	mov    %rax,%rsi
  103d8d:	bf cd 00 00 00       	mov    $0xcd,%edi
  103d92:	e8 37 ef ff ff       	call   102cce <set_IDT_entry>
  103d97:	b8 1a 25 10 00       	mov    $0x10251a,%eax
  103d9c:	48 89 c6             	mov    %rax,%rsi
  103d9f:	bf ce 00 00 00       	mov    $0xce,%edi
  103da4:	e8 25 ef ff ff       	call   102cce <set_IDT_entry>
  103da9:	b8 2a 25 10 00       	mov    $0x10252a,%eax
  103dae:	48 89 c6             	mov    %rax,%rsi
  103db1:	bf cf 00 00 00       	mov    $0xcf,%edi
  103db6:	e8 13 ef ff ff       	call   102cce <set_IDT_entry>
  103dbb:	b8 3a 25 10 00       	mov    $0x10253a,%eax
  103dc0:	48 89 c6             	mov    %rax,%rsi
  103dc3:	bf d0 00 00 00       	mov    $0xd0,%edi
  103dc8:	e8 01 ef ff ff       	call   102cce <set_IDT_entry>
  103dcd:	b8 4a 25 10 00       	mov    $0x10254a,%eax
  103dd2:	48 89 c6             	mov    %rax,%rsi
  103dd5:	bf d1 00 00 00       	mov    $0xd1,%edi
  103dda:	e8 ef ee ff ff       	call   102cce <set_IDT_entry>
  103ddf:	b8 5a 25 10 00       	mov    $0x10255a,%eax
  103de4:	48 89 c6             	mov    %rax,%rsi
  103de7:	bf d2 00 00 00       	mov    $0xd2,%edi
  103dec:	e8 dd ee ff ff       	call   102cce <set_IDT_entry>
  103df1:	b8 6a 25 10 00       	mov    $0x10256a,%eax
  103df6:	48 89 c6             	mov    %rax,%rsi
  103df9:	bf d3 00 00 00       	mov    $0xd3,%edi
  103dfe:	e8 cb ee ff ff       	call   102cce <set_IDT_entry>
  103e03:	b8 7a 25 10 00       	mov    $0x10257a,%eax
  103e08:	48 89 c6             	mov    %rax,%rsi
  103e0b:	bf d4 00 00 00       	mov    $0xd4,%edi
  103e10:	e8 b9 ee ff ff       	call   102cce <set_IDT_entry>
  103e15:	b8 8a 25 10 00       	mov    $0x10258a,%eax
  103e1a:	48 89 c6             	mov    %rax,%rsi
  103e1d:	bf d5 00 00 00       	mov    $0xd5,%edi
  103e22:	e8 a7 ee ff ff       	call   102cce <set_IDT_entry>
  103e27:	b8 9a 25 10 00       	mov    $0x10259a,%eax
  103e2c:	48 89 c6             	mov    %rax,%rsi
  103e2f:	bf d6 00 00 00       	mov    $0xd6,%edi
  103e34:	e8 95 ee ff ff       	call   102cce <set_IDT_entry>
  103e39:	b8 aa 25 10 00       	mov    $0x1025aa,%eax
  103e3e:	48 89 c6             	mov    %rax,%rsi
  103e41:	bf d7 00 00 00       	mov    $0xd7,%edi
  103e46:	e8 83 ee ff ff       	call   102cce <set_IDT_entry>
  103e4b:	b8 ba 25 10 00       	mov    $0x1025ba,%eax
  103e50:	48 89 c6             	mov    %rax,%rsi
  103e53:	bf d8 00 00 00       	mov    $0xd8,%edi
  103e58:	e8 71 ee ff ff       	call   102cce <set_IDT_entry>
  103e5d:	b8 ca 25 10 00       	mov    $0x1025ca,%eax
  103e62:	48 89 c6             	mov    %rax,%rsi
  103e65:	bf d9 00 00 00       	mov    $0xd9,%edi
  103e6a:	e8 5f ee ff ff       	call   102cce <set_IDT_entry>
  103e6f:	b8 da 25 10 00       	mov    $0x1025da,%eax
  103e74:	48 89 c6             	mov    %rax,%rsi
  103e77:	bf da 00 00 00       	mov    $0xda,%edi
  103e7c:	e8 4d ee ff ff       	call   102cce <set_IDT_entry>
  103e81:	b8 ea 25 10 00       	mov    $0x1025ea,%eax
  103e86:	48 89 c6             	mov    %rax,%rsi
  103e89:	bf db 00 00 00       	mov    $0xdb,%edi
  103e8e:	e8 3b ee ff ff       	call   102cce <set_IDT_entry>
  103e93:	b8 fa 25 10 00       	mov    $0x1025fa,%eax
  103e98:	48 89 c6             	mov    %rax,%rsi
  103e9b:	bf dc 00 00 00       	mov    $0xdc,%edi
  103ea0:	e8 29 ee ff ff       	call   102cce <set_IDT_entry>
  103ea5:	b8 0a 26 10 00       	mov    $0x10260a,%eax
  103eaa:	48 89 c6             	mov    %rax,%rsi
  103ead:	bf dd 00 00 00       	mov    $0xdd,%edi
  103eb2:	e8 17 ee ff ff       	call   102cce <set_IDT_entry>
  103eb7:	b8 1a 26 10 00       	mov    $0x10261a,%eax
  103ebc:	48 89 c6             	mov    %rax,%rsi
  103ebf:	bf de 00 00 00       	mov    $0xde,%edi
  103ec4:	e8 05 ee ff ff       	call   102cce <set_IDT_entry>
  103ec9:	b8 2a 26 10 00       	mov    $0x10262a,%eax
  103ece:	48 89 c6             	mov    %rax,%rsi
  103ed1:	bf df 00 00 00       	mov    $0xdf,%edi
  103ed6:	e8 f3 ed ff ff       	call   102cce <set_IDT_entry>
  103edb:	b8 3a 26 10 00       	mov    $0x10263a,%eax
  103ee0:	48 89 c6             	mov    %rax,%rsi
  103ee3:	bf e0 00 00 00       	mov    $0xe0,%edi
  103ee8:	e8 e1 ed ff ff       	call   102cce <set_IDT_entry>
  103eed:	b8 4a 26 10 00       	mov    $0x10264a,%eax
  103ef2:	48 89 c6             	mov    %rax,%rsi
  103ef5:	bf e1 00 00 00       	mov    $0xe1,%edi
  103efa:	e8 cf ed ff ff       	call   102cce <set_IDT_entry>
  103eff:	b8 5a 26 10 00       	mov    $0x10265a,%eax
  103f04:	48 89 c6             	mov    %rax,%rsi
  103f07:	bf e2 00 00 00       	mov    $0xe2,%edi
  103f0c:	e8 bd ed ff ff       	call   102cce <set_IDT_entry>
  103f11:	b8 6a 26 10 00       	mov    $0x10266a,%eax
  103f16:	48 89 c6             	mov    %rax,%rsi
  103f19:	bf e3 00 00 00       	mov    $0xe3,%edi
  103f1e:	e8 ab ed ff ff       	call   102cce <set_IDT_entry>
  103f23:	b8 7a 26 10 00       	mov    $0x10267a,%eax
  103f28:	48 89 c6             	mov    %rax,%rsi
  103f2b:	bf e4 00 00 00       	mov    $0xe4,%edi
  103f30:	e8 99 ed ff ff       	call   102cce <set_IDT_entry>
  103f35:	b8 8a 26 10 00       	mov    $0x10268a,%eax
  103f3a:	48 89 c6             	mov    %rax,%rsi
  103f3d:	bf e5 00 00 00       	mov    $0xe5,%edi
  103f42:	e8 87 ed ff ff       	call   102cce <set_IDT_entry>
  103f47:	b8 9a 26 10 00       	mov    $0x10269a,%eax
  103f4c:	48 89 c6             	mov    %rax,%rsi
  103f4f:	bf e6 00 00 00       	mov    $0xe6,%edi
  103f54:	e8 75 ed ff ff       	call   102cce <set_IDT_entry>
  103f59:	b8 aa 26 10 00       	mov    $0x1026aa,%eax
  103f5e:	48 89 c6             	mov    %rax,%rsi
  103f61:	bf e7 00 00 00       	mov    $0xe7,%edi
  103f66:	e8 63 ed ff ff       	call   102cce <set_IDT_entry>
  103f6b:	b8 ba 26 10 00       	mov    $0x1026ba,%eax
  103f70:	48 89 c6             	mov    %rax,%rsi
  103f73:	bf e8 00 00 00       	mov    $0xe8,%edi
  103f78:	e8 51 ed ff ff       	call   102cce <set_IDT_entry>
  103f7d:	b8 ca 26 10 00       	mov    $0x1026ca,%eax
  103f82:	48 89 c6             	mov    %rax,%rsi
  103f85:	bf e9 00 00 00       	mov    $0xe9,%edi
  103f8a:	e8 3f ed ff ff       	call   102cce <set_IDT_entry>
  103f8f:	b8 da 26 10 00       	mov    $0x1026da,%eax
  103f94:	48 89 c6             	mov    %rax,%rsi
  103f97:	bf ea 00 00 00       	mov    $0xea,%edi
  103f9c:	e8 2d ed ff ff       	call   102cce <set_IDT_entry>
  103fa1:	b8 ea 26 10 00       	mov    $0x1026ea,%eax
  103fa6:	48 89 c6             	mov    %rax,%rsi
  103fa9:	bf eb 00 00 00       	mov    $0xeb,%edi
  103fae:	e8 1b ed ff ff       	call   102cce <set_IDT_entry>
  103fb3:	b8 fa 26 10 00       	mov    $0x1026fa,%eax
  103fb8:	48 89 c6             	mov    %rax,%rsi
  103fbb:	bf ec 00 00 00       	mov    $0xec,%edi
  103fc0:	e8 09 ed ff ff       	call   102cce <set_IDT_entry>
  103fc5:	b8 0a 27 10 00       	mov    $0x10270a,%eax
  103fca:	48 89 c6             	mov    %rax,%rsi
  103fcd:	bf ed 00 00 00       	mov    $0xed,%edi
  103fd2:	e8 f7 ec ff ff       	call   102cce <set_IDT_entry>
  103fd7:	b8 1a 27 10 00       	mov    $0x10271a,%eax
  103fdc:	48 89 c6             	mov    %rax,%rsi
  103fdf:	bf ee 00 00 00       	mov    $0xee,%edi
  103fe4:	e8 e5 ec ff ff       	call   102cce <set_IDT_entry>
  103fe9:	b8 2a 27 10 00       	mov    $0x10272a,%eax
  103fee:	48 89 c6             	mov    %rax,%rsi
  103ff1:	bf ef 00 00 00       	mov    $0xef,%edi
  103ff6:	e8 d3 ec ff ff       	call   102cce <set_IDT_entry>
  103ffb:	b8 3a 27 10 00       	mov    $0x10273a,%eax
  104000:	48 89 c6             	mov    %rax,%rsi
  104003:	bf f0 00 00 00       	mov    $0xf0,%edi
  104008:	e8 c1 ec ff ff       	call   102cce <set_IDT_entry>
  10400d:	b8 4a 27 10 00       	mov    $0x10274a,%eax
  104012:	48 89 c6             	mov    %rax,%rsi
  104015:	bf f1 00 00 00       	mov    $0xf1,%edi
  10401a:	e8 af ec ff ff       	call   102cce <set_IDT_entry>
  10401f:	b8 5a 27 10 00       	mov    $0x10275a,%eax
  104024:	48 89 c6             	mov    %rax,%rsi
  104027:	bf f2 00 00 00       	mov    $0xf2,%edi
  10402c:	e8 9d ec ff ff       	call   102cce <set_IDT_entry>
  104031:	b8 6a 27 10 00       	mov    $0x10276a,%eax
  104036:	48 89 c6             	mov    %rax,%rsi
  104039:	bf f3 00 00 00       	mov    $0xf3,%edi
  10403e:	e8 8b ec ff ff       	call   102cce <set_IDT_entry>
  104043:	b8 7a 27 10 00       	mov    $0x10277a,%eax
  104048:	48 89 c6             	mov    %rax,%rsi
  10404b:	bf f4 00 00 00       	mov    $0xf4,%edi
  104050:	e8 79 ec ff ff       	call   102cce <set_IDT_entry>
  104055:	b8 8a 27 10 00       	mov    $0x10278a,%eax
  10405a:	48 89 c6             	mov    %rax,%rsi
  10405d:	bf f5 00 00 00       	mov    $0xf5,%edi
  104062:	e8 67 ec ff ff       	call   102cce <set_IDT_entry>
  104067:	b8 9a 27 10 00       	mov    $0x10279a,%eax
  10406c:	48 89 c6             	mov    %rax,%rsi
  10406f:	bf f6 00 00 00       	mov    $0xf6,%edi
  104074:	e8 55 ec ff ff       	call   102cce <set_IDT_entry>
  104079:	b8 aa 27 10 00       	mov    $0x1027aa,%eax
  10407e:	48 89 c6             	mov    %rax,%rsi
  104081:	bf f7 00 00 00       	mov    $0xf7,%edi
  104086:	e8 43 ec ff ff       	call   102cce <set_IDT_entry>
  10408b:	b8 ba 27 10 00       	mov    $0x1027ba,%eax
  104090:	48 89 c6             	mov    %rax,%rsi
  104093:	bf f8 00 00 00       	mov    $0xf8,%edi
  104098:	e8 31 ec ff ff       	call   102cce <set_IDT_entry>
  10409d:	b8 ca 27 10 00       	mov    $0x1027ca,%eax
  1040a2:	48 89 c6             	mov    %rax,%rsi
  1040a5:	bf f9 00 00 00       	mov    $0xf9,%edi
  1040aa:	e8 1f ec ff ff       	call   102cce <set_IDT_entry>
  1040af:	b8 da 27 10 00       	mov    $0x1027da,%eax
  1040b4:	48 89 c6             	mov    %rax,%rsi
  1040b7:	bf fa 00 00 00       	mov    $0xfa,%edi
  1040bc:	e8 0d ec ff ff       	call   102cce <set_IDT_entry>
  1040c1:	b8 ea 27 10 00       	mov    $0x1027ea,%eax
  1040c6:	48 89 c6             	mov    %rax,%rsi
  1040c9:	bf fb 00 00 00       	mov    $0xfb,%edi
  1040ce:	e8 fb eb ff ff       	call   102cce <set_IDT_entry>
  1040d3:	b8 fa 27 10 00       	mov    $0x1027fa,%eax
  1040d8:	48 89 c6             	mov    %rax,%rsi
  1040db:	bf fc 00 00 00       	mov    $0xfc,%edi
  1040e0:	e8 e9 eb ff ff       	call   102cce <set_IDT_entry>
  1040e5:	b8 0a 28 10 00       	mov    $0x10280a,%eax
  1040ea:	48 89 c6             	mov    %rax,%rsi
  1040ed:	bf fd 00 00 00       	mov    $0xfd,%edi
  1040f2:	e8 d7 eb ff ff       	call   102cce <set_IDT_entry>
  1040f7:	b8 1a 28 10 00       	mov    $0x10281a,%eax
  1040fc:	48 89 c6             	mov    %rax,%rsi
  1040ff:	bf fe 00 00 00       	mov    $0xfe,%edi
  104104:	e8 c5 eb ff ff       	call   102cce <set_IDT_entry>
  104109:	b8 2a 28 10 00       	mov    $0x10282a,%eax
  10410e:	48 89 c6             	mov    %rax,%rsi
  104111:	bf ff 00 00 00       	mov    $0xff,%edi
  104116:	e8 b3 eb ff ff       	call   102cce <set_IDT_entry>
  10411b:	90                   	nop
  10411c:	5d                   	pop    %rbp
  10411d:	c3                   	ret

000000000010411e <init_pools>:
  10411e:	55                   	push   %rbp
  10411f:	48 89 e5             	mov    %rsp,%rbp
  104122:	c7 05 84 8f 00 00 20 	movl   $0x20,0x8f84(%rip)        # 10d0b0 <pool32>
  104129:	00 00 00 
  10412c:	c7 05 7e 8f 00 00 00 	movl   $0x0,0x8f7e(%rip)        # 10d0b4 <pool32+0x4>
  104133:	00 00 00 
  104136:	48 c7 05 77 8f 00 00 	movq   $0x0,0x8f77(%rip)        # 10d0b8 <pool32+0x8>
  10413d:	00 00 00 00 
  104141:	c7 05 75 8f 00 00 40 	movl   $0x40,0x8f75(%rip)        # 10d0c0 <pool64>
  104148:	00 00 00 
  10414b:	c7 05 6f 8f 00 00 00 	movl   $0x0,0x8f6f(%rip)        # 10d0c4 <pool64+0x4>
  104152:	00 00 00 
  104155:	48 c7 05 68 8f 00 00 	movq   $0x0,0x8f68(%rip)        # 10d0c8 <pool64+0x8>
  10415c:	00 00 00 00 
  104160:	c7 05 66 8f 00 00 80 	movl   $0x80,0x8f66(%rip)        # 10d0d0 <pool128>
  104167:	00 00 00 
  10416a:	c7 05 60 8f 00 00 00 	movl   $0x0,0x8f60(%rip)        # 10d0d4 <pool128+0x4>
  104171:	00 00 00 
  104174:	48 c7 05 59 8f 00 00 	movq   $0x0,0x8f59(%rip)        # 10d0d8 <pool128+0x8>
  10417b:	00 00 00 00 
  10417f:	c7 05 57 8f 00 00 00 	movl   $0x100,0x8f57(%rip)        # 10d0e0 <pool256>
  104186:	01 00 00 
  104189:	c7 05 51 8f 00 00 00 	movl   $0x0,0x8f51(%rip)        # 10d0e4 <pool256+0x4>
  104190:	00 00 00 
  104193:	48 c7 05 4a 8f 00 00 	movq   $0x0,0x8f4a(%rip)        # 10d0e8 <pool256+0x8>
  10419a:	00 00 00 00 
  10419e:	c7 05 48 8f 00 00 00 	movl   $0x200,0x8f48(%rip)        # 10d0f0 <pool512>
  1041a5:	02 00 00 
  1041a8:	c7 05 42 8f 00 00 00 	movl   $0x0,0x8f42(%rip)        # 10d0f4 <pool512+0x4>
  1041af:	00 00 00 
  1041b2:	48 c7 05 3b 8f 00 00 	movq   $0x0,0x8f3b(%rip)        # 10d0f8 <pool512+0x8>
  1041b9:	00 00 00 00 
  1041bd:	c7 05 39 8f 00 00 00 	movl   $0x400,0x8f39(%rip)        # 10d100 <pool1024>
  1041c4:	04 00 00 
  1041c7:	c7 05 33 8f 00 00 00 	movl   $0x0,0x8f33(%rip)        # 10d104 <pool1024+0x4>
  1041ce:	00 00 00 
  1041d1:	48 c7 05 2c 8f 00 00 	movq   $0x0,0x8f2c(%rip)        # 10d108 <pool1024+0x8>
  1041d8:	00 00 00 00 
  1041dc:	90                   	nop
  1041dd:	5d                   	pop    %rbp
  1041de:	c3                   	ret

00000000001041df <find_best_pool>:
  1041df:	55                   	push   %rbp
  1041e0:	48 89 e5             	mov    %rsp,%rbp
  1041e3:	48 89 7d f8          	mov    %rdi,-0x8(%rbp)
  1041e7:	48 83 7d f8 20       	cmpq   $0x20,-0x8(%rbp)
  1041ec:	77 07                	ja     1041f5 <find_best_pool+0x16>
  1041ee:	b8 b0 d0 10 00       	mov    $0x10d0b0,%eax
  1041f3:	eb 46                	jmp    10423b <find_best_pool+0x5c>
  1041f5:	48 83 7d f8 40       	cmpq   $0x40,-0x8(%rbp)
  1041fa:	77 07                	ja     104203 <find_best_pool+0x24>
  1041fc:	b8 c0 d0 10 00       	mov    $0x10d0c0,%eax
  104201:	eb 38                	jmp    10423b <find_best_pool+0x5c>
  104203:	48 81 7d f8 80 00 00 	cmpq   $0x80,-0x8(%rbp)
  10420a:	00 
  10420b:	77 07                	ja     104214 <find_best_pool+0x35>
  10420d:	b8 d0 d0 10 00       	mov    $0x10d0d0,%eax
  104212:	eb 27                	jmp    10423b <find_best_pool+0x5c>
  104214:	48 81 7d f8 00 01 00 	cmpq   $0x100,-0x8(%rbp)
  10421b:	00 
  10421c:	77 07                	ja     104225 <find_best_pool+0x46>
  10421e:	b8 e0 d0 10 00       	mov    $0x10d0e0,%eax
  104223:	eb 16                	jmp    10423b <find_best_pool+0x5c>
  104225:	48 81 7d f8 00 02 00 	cmpq   $0x200,-0x8(%rbp)
  10422c:	00 
  10422d:	77 07                	ja     104236 <find_best_pool+0x57>
  10422f:	b8 f0 d0 10 00       	mov    $0x10d0f0,%eax
  104234:	eb 05                	jmp    10423b <find_best_pool+0x5c>
  104236:	b8 00 d1 10 00       	mov    $0x10d100,%eax
  10423b:	5d                   	pop    %rbp
  10423c:	c3                   	ret

000000000010423d <kmalloc>:
  10423d:	55                   	push   %rbp
  10423e:	48 89 e5             	mov    %rsp,%rbp
  104241:	48 89 7d e8          	mov    %rdi,-0x18(%rbp)
  104245:	48 8b 45 e8          	mov    -0x18(%rbp),%rax
  104249:	83 c0 10             	add    $0x10,%eax
  10424c:	89 45 fc             	mov    %eax,-0x4(%rbp)
  10424f:	48 8b 45 f0          	mov    -0x10(%rbp),%rax
  104253:	5d                   	pop    %rbp
  104254:	c3                   	ret

0000000000104255 <kfree>:
  104255:	55                   	push   %rbp
  104256:	48 89 e5             	mov    %rsp,%rbp
  104259:	48 89 7d f8          	mov    %rdi,-0x8(%rbp)
  10425d:	90                   	nop
  10425e:	5d                   	pop    %rbp
  10425f:	c3                   	ret

0000000000104260 <printRegions>:
  104260:	55                   	push   %rbp
  104261:	48 89 e5             	mov    %rsp,%rbp
  104264:	48 83 ec 10          	sub    $0x10,%rsp
  104268:	48 8b 05 79 2e 00 00 	mov    0x2e79(%rip),%rax        # 1070e8 <rlh>
  10426f:	48 8b 40 10          	mov    0x10(%rax),%rax
  104273:	48 89 45 f8          	mov    %rax,-0x8(%rbp)
  104277:	bf e8 00 10 00       	mov    $0x1000e8,%edi
  10427c:	b8 00 00 00 00       	mov    $0x0,%eax
  104281:	e8 8f 21 00 00       	call   106415 <printk>
  104286:	eb 30                	jmp    1042b8 <printRegions+0x58>
  104288:	48 8b 45 f8          	mov    -0x8(%rbp),%rax
  10428c:	48 8b 40 08          	mov    0x8(%rax),%rax
  104290:	48 89 c2             	mov    %rax,%rdx
  104293:	48 8b 45 f8          	mov    -0x8(%rbp),%rax
  104297:	48 8b 00             	mov    (%rax),%rax
  10429a:	48 89 c6             	mov    %rax,%rsi
  10429d:	bf 10 01 10 00       	mov    $0x100110,%edi
  1042a2:	b8 00 00 00 00       	mov    $0x0,%eax
  1042a7:	e8 69 21 00 00       	call   106415 <printk>
  1042ac:	48 8b 45 f8          	mov    -0x8(%rbp),%rax
  1042b0:	48 8b 40 10          	mov    0x10(%rax),%rax
  1042b4:	48 89 45 f8          	mov    %rax,-0x8(%rbp)
  1042b8:	48 83 7d f8 00       	cmpq   $0x0,-0x8(%rbp)
  1042bd:	75 c9                	jne    104288 <printRegions+0x28>
  1042bf:	bf 38 01 10 00       	mov    $0x100138,%edi
  1042c4:	b8 00 00 00 00       	mov    $0x0,%eax
  1042c9:	e8 47 21 00 00       	call   106415 <printk>
  1042ce:	90                   	nop
  1042cf:	c9                   	leave
  1042d0:	c3                   	ret

00000000001042d1 <validateRegions>:
  1042d1:	55                   	push   %rbp
  1042d2:	48 89 e5             	mov    %rsp,%rbp
  1042d5:	48 8b 05 0c 2e 00 00 	mov    0x2e0c(%rip),%rax        # 1070e8 <rlh>
  1042dc:	48 89 45 f8          	mov    %rax,-0x8(%rbp)
  1042e0:	eb 5d                	jmp    10433f <validateRegions+0x6e>
  1042e2:	48 8b 45 f8          	mov    -0x8(%rbp),%rax
  1042e6:	48 8b 40 10          	mov    0x10(%rax),%rax
  1042ea:	48 8b 40 08          	mov    0x8(%rax),%rax
  1042ee:	48 89 c1             	mov    %rax,%rcx
  1042f1:	48 8b 45 f8          	mov    -0x8(%rbp),%rax
  1042f5:	48 8b 40 10          	mov    0x10(%rax),%rax
  1042f9:	48 8b 00             	mov    (%rax),%rax
  1042fc:	48 89 c2             	mov    %rax,%rdx
  1042ff:	48 89 c8             	mov    %rcx,%rax
  104302:	48 29 d0             	sub    %rdx,%rax
  104305:	48 89 45 f0          	mov    %rax,-0x10(%rbp)
  104309:	48 81 7d f0 ff 3f 01 	cmpq   $0x13fff,-0x10(%rbp)
  104310:	00 
  104311:	76 0a                	jbe    10431d <validateRegions+0x4c>
  104313:	48 81 7d f0 00 00 ff 	cmpq   $0xffffffffffff0000,-0x10(%rbp)
  10431a:	ff 
  10431b:	76 16                	jbe    104333 <validateRegions+0x62>
  10431d:	48 8b 45 f8          	mov    -0x8(%rbp),%rax
  104321:	48 8b 40 10          	mov    0x10(%rax),%rax
  104325:	48 8b 50 10          	mov    0x10(%rax),%rdx
  104329:	48 8b 45 f8          	mov    -0x8(%rbp),%rax
  10432d:	48 89 50 10          	mov    %rdx,0x10(%rax)
  104331:	eb 0c                	jmp    10433f <validateRegions+0x6e>
  104333:	48 8b 45 f8          	mov    -0x8(%rbp),%rax
  104337:	48 8b 40 10          	mov    0x10(%rax),%rax
  10433b:	48 89 45 f8          	mov    %rax,-0x8(%rbp)
  10433f:	48 8b 45 f8          	mov    -0x8(%rbp),%rax
  104343:	48 8b 40 10          	mov    0x10(%rax),%rax
  104347:	48 85 c0             	test   %rax,%rax
  10434a:	75 96                	jne    1042e2 <validateRegions+0x11>
  10434c:	90                   	nop
  10434d:	90                   	nop
  10434e:	5d                   	pop    %rbp
  10434f:	c3                   	ret

0000000000104350 <initRegionList>:
  104350:	55                   	push   %rbp
  104351:	48 89 e5             	mov    %rsp,%rbp
  104354:	c7 45 fc 00 00 00 00 	movl   $0x0,-0x4(%rbp)
  10435b:	eb 5c                	jmp    1043b9 <initRegionList+0x69>
  10435d:	8b 45 fc             	mov    -0x4(%rbp),%eax
  104360:	48 98                	cltq
  104362:	48 c1 e0 05          	shl    $0x5,%rax
  104366:	48 05 40 d1 10 00    	add    $0x10d140,%rax
  10436c:	48 c7 00 00 00 00 00 	movq   $0x0,(%rax)
  104373:	8b 45 fc             	mov    -0x4(%rbp),%eax
  104376:	48 98                	cltq
  104378:	48 c1 e0 05          	shl    $0x5,%rax
  10437c:	48 05 48 d1 10 00    	add    $0x10d148,%rax
  104382:	48 c7 00 00 00 00 00 	movq   $0x0,(%rax)
  104389:	8b 45 fc             	mov    -0x4(%rbp),%eax
  10438c:	48 98                	cltq
  10438e:	48 c1 e0 05          	shl    $0x5,%rax
  104392:	48 05 50 d1 10 00    	add    $0x10d150,%rax
  104398:	48 c7 00 00 00 00 00 	movq   $0x0,(%rax)
  10439f:	8b 45 fc             	mov    -0x4(%rbp),%eax
  1043a2:	48 98                	cltq
  1043a4:	48 c1 e0 05          	shl    $0x5,%rax
  1043a8:	48 05 58 d1 10 00    	add    $0x10d158,%rax
  1043ae:	48 c7 00 00 00 00 00 	movq   $0x0,(%rax)
  1043b5:	83 45 fc 01          	addl   $0x1,-0x4(%rbp)
  1043b9:	81 7d fc ff 00 00 00 	cmpl   $0xff,-0x4(%rbp)
  1043c0:	7e 9b                	jle    10435d <initRegionList+0xd>
  1043c2:	90                   	nop
  1043c3:	90                   	nop
  1043c4:	5d                   	pop    %rbp
  1043c5:	c3                   	ret

00000000001043c6 <appendRegion>:
  1043c6:	55                   	push   %rbp
  1043c7:	48 89 e5             	mov    %rsp,%rbp
  1043ca:	48 89 7d e8          	mov    %rdi,-0x18(%rbp)
  1043ce:	48 89 75 e0          	mov    %rsi,-0x20(%rbp)
  1043d2:	48 8b 05 0f 2d 00 00 	mov    0x2d0f(%rip),%rax        # 1070e8 <rlh>
  1043d9:	48 89 45 f8          	mov    %rax,-0x8(%rbp)
  1043dd:	eb 0c                	jmp    1043eb <appendRegion+0x25>
  1043df:	48 8b 45 f8          	mov    -0x8(%rbp),%rax
  1043e3:	48 8b 40 10          	mov    0x10(%rax),%rax
  1043e7:	48 89 45 f8          	mov    %rax,-0x8(%rbp)
  1043eb:	48 8b 45 f8          	mov    -0x8(%rbp),%rax
  1043ef:	48 8b 40 10          	mov    0x10(%rax),%rax
  1043f3:	48 85 c0             	test   %rax,%rax
  1043f6:	75 e7                	jne    1043df <appendRegion+0x19>
  1043f8:	0f b7 05 41 ad 00 00 	movzwl 0xad41(%rip),%eax        # 10f140 <idx>
  1043ff:	83 c0 01             	add    $0x1,%eax
  104402:	66 89 05 37 ad 00 00 	mov    %ax,0xad37(%rip)        # 10f140 <idx>
  104409:	0f b7 05 30 ad 00 00 	movzwl 0xad30(%rip),%eax        # 10f140 <idx>
  104410:	0f b7 c0             	movzwl %ax,%eax
  104413:	48 98                	cltq
  104415:	48 c1 e0 05          	shl    $0x5,%rax
  104419:	48 8d 90 40 d1 10 00 	lea    0x10d140(%rax),%rdx
  104420:	48 8b 45 f8          	mov    -0x8(%rbp),%rax
  104424:	48 89 50 10          	mov    %rdx,0x10(%rax)
  104428:	48 83 7d e8 00       	cmpq   $0x0,-0x18(%rbp)
  10442d:	75 3c                	jne    10446b <appendRegion+0xa5>
  10442f:	0f b7 05 0a ad 00 00 	movzwl 0xad0a(%rip),%eax        # 10f140 <idx>
  104436:	0f b7 c0             	movzwl %ax,%eax
  104439:	48 98                	cltq
  10443b:	48 c1 e0 05          	shl    $0x5,%rax
  10443f:	48 05 40 d1 10 00    	add    $0x10d140,%rax
  104445:	48 c7 00 00 10 00 00 	movq   $0x1000,(%rax)
  10444c:	0f b7 05 ed ac 00 00 	movzwl 0xaced(%rip),%eax        # 10f140 <idx>
  104453:	0f b7 c0             	movzwl %ax,%eax
  104456:	48 98                	cltq
  104458:	48 c1 e0 05          	shl    $0x5,%rax
  10445c:	48 05 58 d1 10 00    	add    $0x10d158,%rax
  104462:	48 c7 00 00 10 00 00 	movq   $0x1000,(%rax)
  104469:	eb 3d                	jmp    1044a8 <appendRegion+0xe2>
  10446b:	0f b7 05 ce ac 00 00 	movzwl 0xacce(%rip),%eax        # 10f140 <idx>
  104472:	0f b7 c0             	movzwl %ax,%eax
  104475:	48 98                	cltq
  104477:	48 c1 e0 05          	shl    $0x5,%rax
  10447b:	48 8d 90 40 d1 10 00 	lea    0x10d140(%rax),%rdx
  104482:	48 8b 45 e8          	mov    -0x18(%rbp),%rax
  104486:	48 89 02             	mov    %rax,(%rdx)
  104489:	0f b7 05 b0 ac 00 00 	movzwl 0xacb0(%rip),%eax        # 10f140 <idx>
  104490:	0f b7 d0             	movzwl %ax,%edx
  104493:	48 8b 45 e8          	mov    -0x18(%rbp),%rax
  104497:	48 63 d2             	movslq %edx,%rdx
  10449a:	48 c1 e2 05          	shl    $0x5,%rdx
  10449e:	48 81 c2 58 d1 10 00 	add    $0x10d158,%rdx
  1044a5:	48 89 02             	mov    %rax,(%rdx)
  1044a8:	0f b7 05 91 ac 00 00 	movzwl 0xac91(%rip),%eax        # 10f140 <idx>
  1044af:	0f b7 c0             	movzwl %ax,%eax
  1044b2:	48 98                	cltq
  1044b4:	48 c1 e0 05          	shl    $0x5,%rax
  1044b8:	48 8d 90 48 d1 10 00 	lea    0x10d148(%rax),%rdx
  1044bf:	48 8b 45 e0          	mov    -0x20(%rbp),%rax
  1044c3:	48 89 02             	mov    %rax,(%rdx)
  1044c6:	90                   	nop
  1044c7:	5d                   	pop    %rbp
  1044c8:	c3                   	ret

00000000001044c9 <splitRegion>:
  1044c9:	55                   	push   %rbp
  1044ca:	48 89 e5             	mov    %rsp,%rbp
  1044cd:	48 83 ec 28          	sub    $0x28,%rsp
  1044d1:	48 89 7d d8          	mov    %rdi,-0x28(%rbp)
  1044d5:	48 8b 05 0c 2c 00 00 	mov    0x2c0c(%rip),%rax        # 1070e8 <rlh>
  1044dc:	48 8b 40 10          	mov    0x10(%rax),%rax
  1044e0:	48 89 45 f8          	mov    %rax,-0x8(%rbp)
  1044e4:	48 8b 05 fd 2b 00 00 	mov    0x2bfd(%rip),%rax        # 1070e8 <rlh>
  1044eb:	48 89 45 f0          	mov    %rax,-0x10(%rbp)
  1044ef:	48 8b 45 d8          	mov    -0x28(%rbp),%rax
  1044f3:	48 8b 40 10          	mov    0x10(%rax),%rax
  1044f7:	48 89 45 e8          	mov    %rax,-0x18(%rbp)
  1044fb:	48 8b 45 d8          	mov    -0x28(%rbp),%rax
  1044ff:	48 8b 50 20          	mov    0x20(%rax),%rdx
  104503:	48 8b 45 e8          	mov    -0x18(%rbp),%rax
  104507:	48 01 d0             	add    %rdx,%rax
  10450a:	48 89 45 e0          	mov    %rax,-0x20(%rbp)
  10450e:	48 81 65 e8 00 f0 ff 	andq   $0xfffffffffffff000,-0x18(%rbp)
  104515:	ff 
  104516:	48 8b 45 e0          	mov    -0x20(%rbp),%rax
  10451a:	48 25 00 f0 ff ff    	and    $0xfffffffffffff000,%rax
  104520:	48 05 00 10 00 00    	add    $0x1000,%rax
  104526:	48 89 45 e0          	mov    %rax,-0x20(%rbp)
  10452a:	e9 9b 00 00 00       	jmp    1045ca <splitRegion+0x101>
  10452f:	48 8b 45 f8          	mov    -0x8(%rbp),%rax
  104533:	48 8b 00             	mov    (%rax),%rax
  104536:	48 39 45 e8          	cmp    %rax,-0x18(%rbp)
  10453a:	72 45                	jb     104581 <splitRegion+0xb8>
  10453c:	48 8b 45 f8          	mov    -0x8(%rbp),%rax
  104540:	48 8b 40 08          	mov    0x8(%rax),%rax
  104544:	48 3b 45 e0          	cmp    -0x20(%rbp),%rax
  104548:	72 37                	jb     104581 <splitRegion+0xb8>
  10454a:	48 8b 45 f8          	mov    -0x8(%rbp),%rax
  10454e:	48 8b 40 08          	mov    0x8(%rax),%rax
  104552:	48 2b 45 e0          	sub    -0x20(%rbp),%rax
  104556:	48 3d 00 10 00 00    	cmp    $0x1000,%rax
  10455c:	76 17                	jbe    104575 <splitRegion+0xac>
  10455e:	48 8b 45 f8          	mov    -0x8(%rbp),%rax
  104562:	48 8b 50 08          	mov    0x8(%rax),%rdx
  104566:	48 8b 45 e0          	mov    -0x20(%rbp),%rax
  10456a:	48 89 d6             	mov    %rdx,%rsi
  10456d:	48 89 c7             	mov    %rax,%rdi
  104570:	e8 51 fe ff ff       	call   1043c6 <appendRegion>
  104575:	48 8b 55 e8          	mov    -0x18(%rbp),%rdx
  104579:	48 8b 45 f8          	mov    -0x8(%rbp),%rax
  10457d:	48 89 50 08          	mov    %rdx,0x8(%rax)
  104581:	48 8b 45 f8          	mov    -0x8(%rbp),%rax
  104585:	48 8b 40 08          	mov    0x8(%rax),%rax
  104589:	48 89 c1             	mov    %rax,%rcx
  10458c:	48 8b 45 f8          	mov    -0x8(%rbp),%rax
  104590:	48 8b 00             	mov    (%rax),%rax
  104593:	48 89 c2             	mov    %rax,%rdx
  104596:	48 89 c8             	mov    %rcx,%rax
  104599:	48 29 d0             	sub    %rdx,%rax
  10459c:	48 3d ff 0f 00 00    	cmp    $0xfff,%rax
  1045a2:	77 12                	ja     1045b6 <splitRegion+0xed>
  1045a4:	48 8b 45 f8          	mov    -0x8(%rbp),%rax
  1045a8:	48 8b 50 10          	mov    0x10(%rax),%rdx
  1045ac:	48 8b 45 f0          	mov    -0x10(%rbp),%rax
  1045b0:	48 89 50 10          	mov    %rdx,0x10(%rax)
  1045b4:	eb 08                	jmp    1045be <splitRegion+0xf5>
  1045b6:	48 8b 45 f8          	mov    -0x8(%rbp),%rax
  1045ba:	48 89 45 f0          	mov    %rax,-0x10(%rbp)
  1045be:	48 8b 45 f8          	mov    -0x8(%rbp),%rax
  1045c2:	48 8b 40 10          	mov    0x10(%rax),%rax
  1045c6:	48 89 45 f8          	mov    %rax,-0x8(%rbp)
  1045ca:	48 83 7d f8 00       	cmpq   $0x0,-0x8(%rbp)
  1045cf:	0f 85 5a ff ff ff    	jne    10452f <splitRegion+0x66>
  1045d5:	90                   	nop
  1045d6:	90                   	nop
  1045d7:	c9                   	leave
  1045d8:	c3                   	ret

00000000001045d9 <initFrameList>:
  1045d9:	55                   	push   %rbp
  1045da:	48 89 e5             	mov    %rsp,%rbp
  1045dd:	48 c7 05 68 ab 00 00 	movq   $0x0,0xab68(%rip)        # 10f150 <frame_list>
  1045e4:	00 00 00 00 
  1045e8:	48 c7 05 65 ab 00 00 	movq   $0x0,0xab65(%rip)        # 10f158 <frame_list+0x8>
  1045ef:	00 00 00 00 
  1045f3:	90                   	nop
  1045f4:	5d                   	pop    %rbp
  1045f5:	c3                   	ret

00000000001045f6 <add_bytes>:
  1045f6:	55                   	push   %rbp
  1045f7:	48 89 e5             	mov    %rsp,%rbp
  1045fa:	48 89 7d e8          	mov    %rdi,-0x18(%rbp)
  1045fe:	89 75 e4             	mov    %esi,-0x1c(%rbp)
  104601:	8b 45 e4             	mov    -0x1c(%rbp),%eax
  104604:	48 63 d0             	movslq %eax,%rdx
  104607:	48 8b 45 e8          	mov    -0x18(%rbp),%rax
  10460b:	48 01 d0             	add    %rdx,%rax
  10460e:	48 89 45 f8          	mov    %rax,-0x8(%rbp)
  104612:	48 8b 45 f8          	mov    -0x8(%rbp),%rax
  104616:	5d                   	pop    %rbp
  104617:	c3                   	ret

0000000000104618 <process_tag_entries>:
  104618:	55                   	push   %rbp
  104619:	48 89 e5             	mov    %rsp,%rbp
  10461c:	48 83 ec 68          	sub    $0x68,%rsp
  104620:	89 7d 9c             	mov    %edi,-0x64(%rbp)
  104623:	b8 00 00 00 00       	mov    $0x0,%eax
  104628:	e8 23 fd ff ff       	call   104350 <initRegionList>
  10462d:	e8 a7 ff ff ff       	call   1045d9 <initFrameList>
  104632:	8b 45 9c             	mov    -0x64(%rbp),%eax
  104635:	48 89 45 c0          	mov    %rax,-0x40(%rbp)
  104639:	48 8b 45 c0          	mov    -0x40(%rbp),%rax
  10463d:	48 89 45 b8          	mov    %rax,-0x48(%rbp)
  104641:	48 8b 45 c0          	mov    -0x40(%rbp),%rax
  104645:	be 08 00 00 00       	mov    $0x8,%esi
  10464a:	48 89 c7             	mov    %rax,%rdi
  10464d:	e8 a4 ff ff ff       	call   1045f6 <add_bytes>
  104652:	48 89 45 f0          	mov    %rax,-0x10(%rbp)
  104656:	48 8b 45 f0          	mov    -0x10(%rbp),%rax
  10465a:	48 89 45 e8          	mov    %rax,-0x18(%rbp)
  10465e:	e9 02 01 00 00       	jmp    104765 <process_tag_entries+0x14d>
  104663:	48 8b 45 e8          	mov    -0x18(%rbp),%rax
  104667:	8b 00                	mov    (%rax),%eax
  104669:	83 f8 09             	cmp    $0x9,%eax
  10466c:	0f 87 b5 00 00 00    	ja     104727 <process_tag_entries+0x10f>
  104672:	89 c0                	mov    %eax,%eax
  104674:	48 8b 04 c5 60 01 10 	mov    0x100160(,%rax,8),%rax
  10467b:	00 
  10467c:	ff e0                	jmp    *%rax
  10467e:	c7 45 e4 00 00 00 00 	movl   $0x0,-0x1c(%rbp)
  104685:	48 8b 45 e8          	mov    -0x18(%rbp),%rax
  104689:	48 89 45 a8          	mov    %rax,-0x58(%rbp)
  10468d:	48 8b 45 f0          	mov    -0x10(%rbp),%rax
  104691:	48 83 c0 10          	add    $0x10,%rax
  104695:	48 89 45 d8          	mov    %rax,-0x28(%rbp)
  104699:	eb 3c                	jmp    1046d7 <process_tag_entries+0xbf>
  10469b:	48 8b 45 d8          	mov    -0x28(%rbp),%rax
  10469f:	8b 40 10             	mov    0x10(%rax),%eax
  1046a2:	83 f8 01             	cmp    $0x1,%eax
  1046a5:	75 27                	jne    1046ce <process_tag_entries+0xb6>
  1046a7:	48 8b 45 d8          	mov    -0x28(%rbp),%rax
  1046ab:	48 8b 10             	mov    (%rax),%rdx
  1046ae:	48 8b 45 d8          	mov    -0x28(%rbp),%rax
  1046b2:	48 8b 40 08          	mov    0x8(%rax),%rax
  1046b6:	48 01 d0             	add    %rdx,%rax
  1046b9:	48 89 c2             	mov    %rax,%rdx
  1046bc:	48 8b 45 d8          	mov    -0x28(%rbp),%rax
  1046c0:	48 8b 00             	mov    (%rax),%rax
  1046c3:	48 89 d6             	mov    %rdx,%rsi
  1046c6:	48 89 c7             	mov    %rax,%rdi
  1046c9:	e8 f8 fc ff ff       	call   1043c6 <appendRegion>
  1046ce:	83 45 e4 18          	addl   $0x18,-0x1c(%rbp)
  1046d2:	48 83 45 d8 18       	addq   $0x18,-0x28(%rbp)
  1046d7:	48 8b 45 a8          	mov    -0x58(%rbp),%rax
  1046db:	8b 40 04             	mov    0x4(%rax),%eax
  1046de:	39 45 e4             	cmp    %eax,-0x1c(%rbp)
  1046e1:	72 b8                	jb     10469b <process_tag_entries+0x83>
  1046e3:	eb 43                	jmp    104728 <process_tag_entries+0x110>
  1046e5:	48 8b 45 e8          	mov    -0x18(%rbp),%rax
  1046e9:	48 89 45 b0          	mov    %rax,-0x50(%rbp)
  1046ed:	48 8b 45 f0          	mov    -0x10(%rbp),%rax
  1046f1:	48 83 c0 14          	add    $0x14,%rax
  1046f5:	48 89 45 d0          	mov    %rax,-0x30(%rbp)
  1046f9:	c7 45 cc 00 00 00 00 	movl   $0x0,-0x34(%rbp)
  104700:	eb 15                	jmp    104717 <process_tag_entries+0xff>
  104702:	48 8b 45 d0          	mov    -0x30(%rbp),%rax
  104706:	48 89 c7             	mov    %rax,%rdi
  104709:	e8 bb fd ff ff       	call   1044c9 <splitRegion>
  10470e:	48 83 45 d0 40       	addq   $0x40,-0x30(%rbp)
  104713:	83 45 cc 01          	addl   $0x1,-0x34(%rbp)
  104717:	48 8b 45 b0          	mov    -0x50(%rbp),%rax
  10471b:	8b 40 08             	mov    0x8(%rax),%eax
  10471e:	8b 55 cc             	mov    -0x34(%rbp),%edx
  104721:	39 c2                	cmp    %eax,%edx
  104723:	72 dd                	jb     104702 <process_tag_entries+0xea>
  104725:	eb 01                	jmp    104728 <process_tag_entries+0x110>
  104727:	90                   	nop
  104728:	48 8b 45 e8          	mov    -0x18(%rbp),%rax
  10472c:	8b 40 04             	mov    0x4(%rax),%eax
  10472f:	89 45 fc             	mov    %eax,-0x4(%rbp)
  104732:	8b 45 fc             	mov    -0x4(%rbp),%eax
  104735:	83 e0 07             	and    $0x7,%eax
  104738:	85 c0                	test   %eax,%eax
  10473a:	74 0c                	je     104748 <process_tag_entries+0x130>
  10473c:	8b 45 fc             	mov    -0x4(%rbp),%eax
  10473f:	83 e0 f8             	and    $0xfffffff8,%eax
  104742:	83 c0 08             	add    $0x8,%eax
  104745:	89 45 fc             	mov    %eax,-0x4(%rbp)
  104748:	8b 55 fc             	mov    -0x4(%rbp),%edx
  10474b:	48 8b 45 f0          	mov    -0x10(%rbp),%rax
  10474f:	89 d6                	mov    %edx,%esi
  104751:	48 89 c7             	mov    %rax,%rdi
  104754:	e8 9d fe ff ff       	call   1045f6 <add_bytes>
  104759:	48 89 45 f0          	mov    %rax,-0x10(%rbp)
  10475d:	48 8b 45 f0          	mov    -0x10(%rbp),%rax
  104761:	48 89 45 e8          	mov    %rax,-0x18(%rbp)
  104765:	48 8b 45 e8          	mov    -0x18(%rbp),%rax
  104769:	8b 00                	mov    (%rax),%eax
  10476b:	85 c0                	test   %eax,%eax
  10476d:	0f 85 f0 fe ff ff    	jne    104663 <process_tag_entries+0x4b>
  104773:	48 8b 45 e8          	mov    -0x18(%rbp),%rax
  104777:	8b 40 04             	mov    0x4(%rax),%eax
  10477a:	83 f8 08             	cmp    $0x8,%eax
  10477d:	0f 85 e0 fe ff ff    	jne    104663 <process_tag_entries+0x4b>
  104783:	b8 00 00 00 00       	mov    $0x0,%eax
  104788:	e8 44 fb ff ff       	call   1042d1 <validateRegions>
  10478d:	48 8b 05 54 29 00 00 	mov    0x2954(%rip),%rax        # 1070e8 <rlh>
  104794:	48 8b 40 10          	mov    0x10(%rax),%rax
  104798:	48 89 05 81 89 00 00 	mov    %rax,0x8981(%rip)        # 10d120 <cur_reg>
  10479f:	48 8b 05 7a 89 00 00 	mov    0x897a(%rip),%rax        # 10d120 <cur_reg>
  1047a6:	c9                   	leave
  1047a7:	c3                   	ret

00000000001047a8 <MMU_pf_alloc>:
  1047a8:	55                   	push   %rbp
  1047a9:	48 89 e5             	mov    %rsp,%rbp
  1047ac:	48 83 ec 10          	sub    $0x10,%rsp
  1047b0:	48 8b 05 a1 a9 00 00 	mov    0xa9a1(%rip),%rax        # 10f158 <frame_list+0x8>
  1047b7:	48 85 c0             	test   %rax,%rax
  1047ba:	75 24                	jne    1047e0 <MMU_pf_alloc+0x38>
  1047bc:	0f b6 05 7f a9 00 00 	movzbl 0xa97f(%rip),%eax        # 10f142 <all_regions_allocated>
  1047c3:	84 c0                	test   %al,%al
  1047c5:	74 19                	je     1047e0 <MMU_pf_alloc+0x38>
  1047c7:	bf b0 01 10 00       	mov    $0x1001b0,%edi
  1047cc:	b8 00 00 00 00       	mov    $0x0,%eax
  1047d1:	e8 3f 1c 00 00       	call   106415 <printk>
  1047d6:	b8 00 00 00 00       	mov    $0x0,%eax
  1047db:	e9 ca 00 00 00       	jmp    1048aa <MMU_pf_alloc+0x102>
  1047e0:	48 8b 05 71 a9 00 00 	mov    0xa971(%rip),%rax        # 10f158 <frame_list+0x8>
  1047e7:	48 85 c0             	test   %rax,%rax
  1047ea:	74 33                	je     10481f <MMU_pf_alloc+0x77>
  1047ec:	48 8b 05 5d a9 00 00 	mov    0xa95d(%rip),%rax        # 10f150 <frame_list>
  1047f3:	48 89 45 f8          	mov    %rax,-0x8(%rbp)
  1047f7:	48 8b 05 52 a9 00 00 	mov    0xa952(%rip),%rax        # 10f150 <frame_list>
  1047fe:	48 8b 00             	mov    (%rax),%rax
  104801:	48 89 05 48 a9 00 00 	mov    %rax,0xa948(%rip)        # 10f150 <frame_list>
  104808:	48 8b 05 49 a9 00 00 	mov    0xa949(%rip),%rax        # 10f158 <frame_list+0x8>
  10480f:	48 83 e8 01          	sub    $0x1,%rax
  104813:	48 89 05 3e a9 00 00 	mov    %rax,0xa93e(%rip)        # 10f158 <frame_list+0x8>
  10481a:	e9 87 00 00 00       	jmp    1048a6 <MMU_pf_alloc+0xfe>
  10481f:	48 8b 05 fa 88 00 00 	mov    0x88fa(%rip),%rax        # 10d120 <cur_reg>
  104826:	48 8b 40 18          	mov    0x18(%rax),%rax
  10482a:	48 8d 90 00 10 00 00 	lea    0x1000(%rax),%rdx
  104831:	48 8b 05 e8 88 00 00 	mov    0x88e8(%rip),%rax        # 10d120 <cur_reg>
  104838:	48 8b 40 08          	mov    0x8(%rax),%rax
  10483c:	48 39 d0             	cmp    %rdx,%rax
  10483f:	72 2e                	jb     10486f <MMU_pf_alloc+0xc7>
  104841:	48 8b 05 d8 88 00 00 	mov    0x88d8(%rip),%rax        # 10d120 <cur_reg>
  104848:	48 8b 40 18          	mov    0x18(%rax),%rax
  10484c:	48 89 45 f8          	mov    %rax,-0x8(%rbp)
  104850:	48 8b 05 c9 88 00 00 	mov    0x88c9(%rip),%rax        # 10d120 <cur_reg>
  104857:	48 8b 50 18          	mov    0x18(%rax),%rdx
  10485b:	48 8b 05 be 88 00 00 	mov    0x88be(%rip),%rax        # 10d120 <cur_reg>
  104862:	48 81 c2 00 10 00 00 	add    $0x1000,%rdx
  104869:	48 89 50 18          	mov    %rdx,0x18(%rax)
  10486d:	eb 37                	jmp    1048a6 <MMU_pf_alloc+0xfe>
  10486f:	48 8b 05 aa 88 00 00 	mov    0x88aa(%rip),%rax        # 10d120 <cur_reg>
  104876:	48 8b 40 10          	mov    0x10(%rax),%rax
  10487a:	48 85 c0             	test   %rax,%rax
  10487d:	75 0e                	jne    10488d <MMU_pf_alloc+0xe5>
  10487f:	c6 05 bc a8 00 00 01 	movb   $0x1,0xa8bc(%rip)        # 10f142 <all_regions_allocated>
  104886:	b8 00 00 00 00       	mov    $0x0,%eax
  10488b:	eb 1d                	jmp    1048aa <MMU_pf_alloc+0x102>
  10488d:	48 8b 05 8c 88 00 00 	mov    0x888c(%rip),%rax        # 10d120 <cur_reg>
  104894:	48 8b 40 10          	mov    0x10(%rax),%rax
  104898:	48 89 05 81 88 00 00 	mov    %rax,0x8881(%rip)        # 10d120 <cur_reg>
  10489f:	e8 04 ff ff ff       	call   1047a8 <MMU_pf_alloc>
  1048a4:	eb 04                	jmp    1048aa <MMU_pf_alloc+0x102>
  1048a6:	48 8b 45 f8          	mov    -0x8(%rbp),%rax
  1048aa:	c9                   	leave
  1048ab:	c3                   	ret

00000000001048ac <MMU_pf_free>:
  1048ac:	55                   	push   %rbp
  1048ad:	48 89 e5             	mov    %rsp,%rbp
  1048b0:	48 89 7d e8          	mov    %rdi,-0x18(%rbp)
  1048b4:	48 8b 45 e8          	mov    -0x18(%rbp),%rax
  1048b8:	48 89 45 f8          	mov    %rax,-0x8(%rbp)
  1048bc:	48 8b 15 8d a8 00 00 	mov    0xa88d(%rip),%rdx        # 10f150 <frame_list>
  1048c3:	48 8b 45 f8          	mov    -0x8(%rbp),%rax
  1048c7:	48 89 10             	mov    %rdx,(%rax)
  1048ca:	48 8b 45 f8          	mov    -0x8(%rbp),%rax
  1048ce:	48 89 05 7b a8 00 00 	mov    %rax,0xa87b(%rip)        # 10f150 <frame_list>
  1048d5:	48 8b 05 7c a8 00 00 	mov    0xa87c(%rip),%rax        # 10f158 <frame_list+0x8>
  1048dc:	48 83 c0 01          	add    $0x1,%rax
  1048e0:	48 89 05 71 a8 00 00 	mov    %rax,0xa871(%rip)        # 10f158 <frame_list+0x8>
  1048e7:	90                   	nop
  1048e8:	5d                   	pop    %rbp
  1048e9:	c3                   	ret

00000000001048ea <test_basic_alloc_and_free>:
  1048ea:	55                   	push   %rbp
  1048eb:	48 89 e5             	mov    %rsp,%rbp
  1048ee:	48 83 ec 20          	sub    $0x20,%rsp
  1048f2:	bf 10 02 10 00       	mov    $0x100210,%edi
  1048f7:	b8 00 00 00 00       	mov    $0x0,%eax
  1048fc:	e8 14 1b 00 00       	call   106415 <printk>
  104901:	e8 a2 fe ff ff       	call   1047a8 <MMU_pf_alloc>
  104906:	48 89 45 f8          	mov    %rax,-0x8(%rbp)
  10490a:	e8 99 fe ff ff       	call   1047a8 <MMU_pf_alloc>
  10490f:	48 89 45 f0          	mov    %rax,-0x10(%rbp)
  104913:	e8 90 fe ff ff       	call   1047a8 <MMU_pf_alloc>
  104918:	48 89 45 e8          	mov    %rax,-0x18(%rbp)
  10491c:	48 8b 45 f8          	mov    -0x8(%rbp),%rax
  104920:	48 89 c6             	mov    %rax,%rsi
  104923:	bf 3c 02 10 00       	mov    $0x10023c,%edi
  104928:	b8 00 00 00 00       	mov    $0x0,%eax
  10492d:	e8 e3 1a 00 00       	call   106415 <printk>
  104932:	48 8b 45 f0          	mov    -0x10(%rbp),%rax
  104936:	48 89 c6             	mov    %rax,%rsi
  104939:	bf 57 02 10 00       	mov    $0x100257,%edi
  10493e:	b8 00 00 00 00       	mov    $0x0,%eax
  104943:	e8 cd 1a 00 00       	call   106415 <printk>
  104948:	48 8b 45 e8          	mov    -0x18(%rbp),%rax
  10494c:	48 89 c6             	mov    %rax,%rsi
  10494f:	bf 73 02 10 00       	mov    $0x100273,%edi
  104954:	b8 00 00 00 00       	mov    $0x0,%eax
  104959:	e8 b7 1a 00 00       	call   106415 <printk>
  10495e:	bf 8e 02 10 00       	mov    $0x10028e,%edi
  104963:	b8 00 00 00 00       	mov    $0x0,%eax
  104968:	e8 a8 1a 00 00       	call   106415 <printk>
  10496d:	48 8b 45 f8          	mov    -0x8(%rbp),%rax
  104971:	48 89 c7             	mov    %rax,%rdi
  104974:	e8 33 ff ff ff       	call   1048ac <MMU_pf_free>
  104979:	bf 9f 02 10 00       	mov    $0x10029f,%edi
  10497e:	b8 00 00 00 00       	mov    $0x0,%eax
  104983:	e8 8d 1a 00 00       	call   106415 <printk>
  104988:	48 8b 45 f0          	mov    -0x10(%rbp),%rax
  10498c:	48 89 c7             	mov    %rax,%rdi
  10498f:	e8 18 ff ff ff       	call   1048ac <MMU_pf_free>
  104994:	bf b0 02 10 00       	mov    $0x1002b0,%edi
  104999:	b8 00 00 00 00       	mov    $0x0,%eax
  10499e:	e8 72 1a 00 00       	call   106415 <printk>
  1049a3:	e8 00 fe ff ff       	call   1047a8 <MMU_pf_alloc>
  1049a8:	48 89 45 f8          	mov    %rax,-0x8(%rbp)
  1049ac:	e8 f7 fd ff ff       	call   1047a8 <MMU_pf_alloc>
  1049b1:	48 89 45 f0          	mov    %rax,-0x10(%rbp)
  1049b5:	48 8b 45 f8          	mov    -0x8(%rbp),%rax
  1049b9:	48 89 c6             	mov    %rax,%rsi
  1049bc:	bf f0 02 10 00       	mov    $0x1002f0,%edi
  1049c1:	b8 00 00 00 00       	mov    $0x0,%eax
  1049c6:	e8 4a 1a 00 00       	call   106415 <printk>
  1049cb:	48 8b 45 f0          	mov    -0x10(%rbp),%rax
  1049cf:	48 89 c6             	mov    %rax,%rsi
  1049d2:	bf 20 03 10 00       	mov    $0x100320,%edi
  1049d7:	b8 00 00 00 00       	mov    $0x0,%eax
  1049dc:	e8 34 1a 00 00       	call   106415 <printk>
  1049e1:	48 8b 45 e8          	mov    -0x18(%rbp),%rax
  1049e5:	48 89 c7             	mov    %rax,%rdi
  1049e8:	e8 bf fe ff ff       	call   1048ac <MMU_pf_free>
  1049ed:	48 8b 45 f8          	mov    -0x8(%rbp),%rax
  1049f1:	48 89 c7             	mov    %rax,%rdi
  1049f4:	e8 b3 fe ff ff       	call   1048ac <MMU_pf_free>
  1049f9:	48 8b 45 f0          	mov    -0x10(%rbp),%rax
  1049fd:	48 89 c7             	mov    %rax,%rdi
  104a00:	e8 a7 fe ff ff       	call   1048ac <MMU_pf_free>
  104a05:	90                   	nop
  104a06:	c9                   	leave
  104a07:	c3                   	ret

0000000000104a08 <test_full_allocation>:
  104a08:	55                   	push   %rbp
  104a09:	48 89 e5             	mov    %rsp,%rbp
  104a0c:	48 83 ec 40          	sub    $0x40,%rsp
  104a10:	bf 4d 03 10 00       	mov    $0x10034d,%edi
  104a15:	b8 00 00 00 00       	mov    $0x0,%eax
  104a1a:	e8 f6 19 00 00       	call   106415 <printk>
  104a1f:	e8 84 fd ff ff       	call   1047a8 <MMU_pf_alloc>
  104a24:	48 89 45 f8          	mov    %rax,-0x8(%rbp)
  104a28:	eb 3b                	jmp    104a65 <test_full_allocation+0x5d>
  104a2a:	48 8b 45 f8          	mov    -0x8(%rbp),%rax
  104a2e:	48 89 45 c0          	mov    %rax,-0x40(%rbp)
  104a32:	c7 45 f4 00 00 00 00 	movl   $0x0,-0xc(%rbp)
  104a39:	eb 17                	jmp    104a52 <test_full_allocation+0x4a>
  104a3b:	48 8b 45 f8          	mov    -0x8(%rbp),%rax
  104a3f:	48 8d 50 08          	lea    0x8(%rax),%rdx
  104a43:	48 89 55 f8          	mov    %rdx,-0x8(%rbp)
  104a47:	48 8b 55 c0          	mov    -0x40(%rbp),%rdx
  104a4b:	48 89 10             	mov    %rdx,(%rax)
  104a4e:	83 45 f4 01          	addl   $0x1,-0xc(%rbp)
  104a52:	8b 45 f4             	mov    -0xc(%rbp),%eax
  104a55:	3d ff 01 00 00       	cmp    $0x1ff,%eax
  104a5a:	76 df                	jbe    104a3b <test_full_allocation+0x33>
  104a5c:	e8 47 fd ff ff       	call   1047a8 <MMU_pf_alloc>
  104a61:	48 89 45 f8          	mov    %rax,-0x8(%rbp)
  104a65:	48 83 7d f8 00       	cmpq   $0x0,-0x8(%rbp)
  104a6a:	75 be                	jne    104a2a <test_full_allocation+0x22>
  104a6c:	48 8b 05 75 26 00 00 	mov    0x2675(%rip),%rax        # 1070e8 <rlh>
  104a73:	48 8b 40 10          	mov    0x10(%rax),%rax
  104a77:	48 89 45 e8          	mov    %rax,-0x18(%rbp)
  104a7b:	e9 b7 00 00 00       	jmp    104b37 <test_full_allocation+0x12f>
  104a80:	48 8b 45 e8          	mov    -0x18(%rbp),%rax
  104a84:	48 8b 50 08          	mov    0x8(%rax),%rdx
  104a88:	48 8b 45 e8          	mov    -0x18(%rbp),%rax
  104a8c:	48 8b 00             	mov    (%rax),%rax
  104a8f:	48 89 c6             	mov    %rax,%rsi
  104a92:	bf 70 03 10 00       	mov    $0x100370,%edi
  104a97:	b8 00 00 00 00       	mov    $0x0,%eax
  104a9c:	e8 74 19 00 00       	call   106415 <printk>
  104aa1:	48 8b 45 e8          	mov    -0x18(%rbp),%rax
  104aa5:	48 8b 00             	mov    (%rax),%rax
  104aa8:	48 89 45 e0          	mov    %rax,-0x20(%rbp)
  104aac:	48 8b 45 e8          	mov    -0x18(%rbp),%rax
  104ab0:	48 8b 00             	mov    (%rax),%rax
  104ab3:	48 89 45 d8          	mov    %rax,-0x28(%rbp)
  104ab7:	48 8b 45 e8          	mov    -0x18(%rbp),%rax
  104abb:	48 8b 40 08          	mov    0x8(%rax),%rax
  104abf:	48 89 45 c8          	mov    %rax,-0x38(%rbp)
  104ac3:	48 81 65 c8 00 f0 ff 	andq   $0xfffffffffffff000,-0x38(%rbp)
  104aca:	ff 
  104acb:	eb 54                	jmp    104b21 <test_full_allocation+0x119>
  104acd:	c7 45 d4 00 00 00 00 	movl   $0x0,-0x2c(%rbp)
  104ad4:	eb 39                	jmp    104b0f <test_full_allocation+0x107>
  104ad6:	48 8b 45 e0          	mov    -0x20(%rbp),%rax
  104ada:	48 8d 50 08          	lea    0x8(%rax),%rdx
  104ade:	48 89 55 e0          	mov    %rdx,-0x20(%rbp)
  104ae2:	48 8b 00             	mov    (%rax),%rax
  104ae5:	48 39 45 d8          	cmp    %rax,-0x28(%rbp)
  104ae9:	74 20                	je     104b0b <test_full_allocation+0x103>
  104aeb:	48 8b 45 e0          	mov    -0x20(%rbp),%rax
  104aef:	48 8b 00             	mov    (%rax),%rax
  104af2:	8b 4d d4             	mov    -0x2c(%rbp),%ecx
  104af5:	48 8b 55 d8          	mov    -0x28(%rbp),%rdx
  104af9:	48 89 c6             	mov    %rax,%rsi
  104afc:	bf b8 03 10 00       	mov    $0x1003b8,%edi
  104b01:	b8 00 00 00 00       	mov    $0x0,%eax
  104b06:	e8 0a 19 00 00       	call   106415 <printk>
  104b0b:	83 45 d4 01          	addl   $0x1,-0x2c(%rbp)
  104b0f:	8b 45 d4             	mov    -0x2c(%rbp),%eax
  104b12:	3d ff 01 00 00       	cmp    $0x1ff,%eax
  104b17:	76 bd                	jbe    104ad6 <test_full_allocation+0xce>
  104b19:	48 8b 45 e0          	mov    -0x20(%rbp),%rax
  104b1d:	48 89 45 d8          	mov    %rax,-0x28(%rbp)
  104b21:	48 8b 45 d8          	mov    -0x28(%rbp),%rax
  104b25:	48 3b 45 c8          	cmp    -0x38(%rbp),%rax
  104b29:	72 a2                	jb     104acd <test_full_allocation+0xc5>
  104b2b:	48 8b 45 e8          	mov    -0x18(%rbp),%rax
  104b2f:	48 8b 40 10          	mov    0x10(%rax),%rax
  104b33:	48 89 45 e8          	mov    %rax,-0x18(%rbp)
  104b37:	48 83 7d e8 00       	cmpq   $0x0,-0x18(%rbp)
  104b3c:	0f 85 3e ff ff ff    	jne    104a80 <test_full_allocation+0x78>
  104b42:	bf 18 04 10 00       	mov    $0x100418,%edi
  104b47:	b8 00 00 00 00       	mov    $0x0,%eax
  104b4c:	e8 c4 18 00 00       	call   106415 <printk>
  104b51:	90                   	nop
  104b52:	c9                   	leave
  104b53:	c3                   	ret

0000000000104b54 <ps2_poll_read>:
  104b54:	55                   	push   %rbp
  104b55:	48 89 e5             	mov    %rsp,%rbp
  104b58:	48 83 ec 10          	sub    $0x10,%rsp
  104b5c:	bf 64 00 00 00       	mov    $0x64,%edi
  104b61:	e8 03 21 00 00       	call   106c69 <inb>
  104b66:	88 45 ff             	mov    %al,-0x1(%rbp)
  104b69:	eb 0d                	jmp    104b78 <ps2_poll_read+0x24>
  104b6b:	bf 64 00 00 00       	mov    $0x64,%edi
  104b70:	e8 f4 20 00 00       	call   106c69 <inb>
  104b75:	88 45 ff             	mov    %al,-0x1(%rbp)
  104b78:	0f be 45 ff          	movsbl -0x1(%rbp),%eax
  104b7c:	83 e0 01             	and    $0x1,%eax
  104b7f:	85 c0                	test   %eax,%eax
  104b81:	74 e8                	je     104b6b <ps2_poll_read+0x17>
  104b83:	bf 60 00 00 00       	mov    $0x60,%edi
  104b88:	e8 dc 20 00 00       	call   106c69 <inb>
  104b8d:	c9                   	leave
  104b8e:	c3                   	ret

0000000000104b8f <ps2_poll_out>:
  104b8f:	55                   	push   %rbp
  104b90:	48 89 e5             	mov    %rsp,%rbp
  104b93:	48 83 ec 10          	sub    $0x10,%rsp
  104b97:	90                   	nop
  104b98:	bf 64 00 00 00       	mov    $0x64,%edi
  104b9d:	e8 c7 20 00 00       	call   106c69 <inb>
  104ba2:	83 e0 02             	and    $0x2,%eax
  104ba5:	88 45 ff             	mov    %al,-0x1(%rbp)
  104ba8:	80 7d ff 00          	cmpb   $0x0,-0x1(%rbp)
  104bac:	75 ea                	jne    104b98 <ps2_poll_out+0x9>
  104bae:	90                   	nop
  104baf:	90                   	nop
  104bb0:	c9                   	leave
  104bb1:	c3                   	ret

0000000000104bb2 <keyboard_input_handler>:
  104bb2:	55                   	push   %rbp
  104bb3:	48 89 e5             	mov    %rsp,%rbp
  104bb6:	48 83 ec 20          	sub    $0x20,%rsp
  104bba:	89 7d ec             	mov    %edi,-0x14(%rbp)
  104bbd:	89 75 e8             	mov    %esi,-0x18(%rbp)
  104bc0:	48 89 55 e0          	mov    %rdx,-0x20(%rbp)
  104bc4:	e8 d5 00 00 00       	call   104c9e <read_kb>
  104bc9:	88 45 ff             	mov    %al,-0x1(%rbp)
  104bcc:	80 7d ff 00          	cmpb   $0x0,-0x1(%rbp)
  104bd0:	74 15                	je     104be7 <keyboard_input_handler+0x35>
  104bd2:	0f b6 45 ff          	movzbl -0x1(%rbp),%eax
  104bd6:	89 c6                	mov    %eax,%esi
  104bd8:	bf 48 04 10 00       	mov    $0x100448,%edi
  104bdd:	b8 00 00 00 00       	mov    $0x0,%eax
  104be2:	e8 2e 18 00 00       	call   106415 <printk>
  104be7:	90                   	nop
  104be8:	c9                   	leave
  104be9:	c3                   	ret

0000000000104bea <enable_kb>:
  104bea:	55                   	push   %rbp
  104beb:	48 89 e5             	mov    %rsp,%rbp
  104bee:	bf 01 00 00 00       	mov    $0x1,%edi
  104bf3:	e8 8d e1 ff ff       	call   102d85 <IRQ_clear_mask>
  104bf8:	90                   	nop
  104bf9:	5d                   	pop    %rbp
  104bfa:	c3                   	ret

0000000000104bfb <ps2_init>:
  104bfb:	55                   	push   %rbp
  104bfc:	48 89 e5             	mov    %rsp,%rbp
  104bff:	48 83 ec 10          	sub    $0x10,%rsp
  104c03:	be ad 00 00 00       	mov    $0xad,%esi
  104c08:	bf 64 00 00 00       	mov    $0x64,%edi
  104c0d:	e8 3c 20 00 00       	call   106c4e <outb>
  104c12:	be a7 00 00 00       	mov    $0xa7,%esi
  104c17:	bf 64 00 00 00       	mov    $0x64,%edi
  104c1c:	e8 2d 20 00 00       	call   106c4e <outb>
  104c21:	bf 64 00 00 00       	mov    $0x64,%edi
  104c26:	e8 3e 20 00 00       	call   106c69 <inb>
  104c2b:	88 45 ff             	mov    %al,-0x1(%rbp)
  104c2e:	0f b6 45 ff          	movzbl -0x1(%rbp),%eax
  104c32:	83 c8 21             	or     $0x21,%eax
  104c35:	83 e0 e5             	and    $0xffffffe5,%eax
  104c38:	88 45 ff             	mov    %al,-0x1(%rbp)
  104c3b:	e8 4f ff ff ff       	call   104b8f <ps2_poll_out>
  104c40:	0f b6 45 ff          	movzbl -0x1(%rbp),%eax
  104c44:	89 c6                	mov    %eax,%esi
  104c46:	bf 64 00 00 00       	mov    $0x64,%edi
  104c4b:	e8 fe 1f 00 00       	call   106c4e <outb>
  104c50:	be ff 00 00 00       	mov    $0xff,%esi
  104c55:	bf 60 00 00 00       	mov    $0x60,%edi
  104c5a:	e8 ef 1f 00 00       	call   106c4e <outb>
  104c5f:	e8 2b ff ff ff       	call   104b8f <ps2_poll_out>
  104c64:	be f1 00 00 00       	mov    $0xf1,%esi
  104c69:	bf 60 00 00 00       	mov    $0x60,%edi
  104c6e:	e8 db 1f 00 00       	call   106c4e <outb>
  104c73:	e8 17 ff ff ff       	call   104b8f <ps2_poll_out>
  104c78:	be ae 00 00 00       	mov    $0xae,%esi
  104c7d:	bf 64 00 00 00       	mov    $0x64,%edi
  104c82:	e8 c7 1f 00 00       	call   106c4e <outb>
  104c87:	ba 62 f1 10 00       	mov    $0x10f162,%edx
  104c8c:	be b2 4b 10 00       	mov    $0x104bb2,%esi
  104c91:	bf 21 00 00 00       	mov    $0x21,%edi
  104c96:	e8 c1 e1 ff ff       	call   102e5c <IRQ_set_handler>
  104c9b:	90                   	nop
  104c9c:	c9                   	leave
  104c9d:	c3                   	ret

0000000000104c9e <read_kb>:
  104c9e:	55                   	push   %rbp
  104c9f:	48 89 e5             	mov    %rsp,%rbp
  104ca2:	48 83 ec 10          	sub    $0x10,%rsp
  104ca6:	bf 60 00 00 00       	mov    $0x60,%edi
  104cab:	e8 b9 1f 00 00       	call   106c69 <inb>
  104cb0:	88 45 ff             	mov    %al,-0x1(%rbp)
  104cb3:	0f b6 45 ff          	movzbl -0x1(%rbp),%eax
  104cb7:	3d b6 00 00 00       	cmp    $0xb6,%eax
  104cbc:	0f 87 0e 08 00 00    	ja     1054d0 <read_kb+0x832>
  104cc2:	89 c0                	mov    %eax,%eax
  104cc4:	48 8b 04 c5 50 04 10 	mov    0x100450(,%rax,8),%rax
  104ccb:	00 
  104ccc:	ff e0                	jmp    *%rax
  104cce:	0f b6 05 8b a4 00 00 	movzbl 0xa48b(%rip),%eax        # 10f160 <left_shift>
  104cd5:	84 c0                	test   %al,%al
  104cd7:	75 0b                	jne    104ce4 <read_kb+0x46>
  104cd9:	0f b6 05 81 a4 00 00 	movzbl 0xa481(%rip),%eax        # 10f161 <right_shift>
  104ce0:	84 c0                	test   %al,%al
  104ce2:	74 0a                	je     104cee <read_kb+0x50>
  104ce4:	b8 41 00 00 00       	mov    $0x41,%eax
  104ce9:	e9 e7 07 00 00       	jmp    1054d5 <read_kb+0x837>
  104cee:	b8 61 00 00 00       	mov    $0x61,%eax
  104cf3:	e9 dd 07 00 00       	jmp    1054d5 <read_kb+0x837>
  104cf8:	0f b6 05 61 a4 00 00 	movzbl 0xa461(%rip),%eax        # 10f160 <left_shift>
  104cff:	84 c0                	test   %al,%al
  104d01:	75 0b                	jne    104d0e <read_kb+0x70>
  104d03:	0f b6 05 57 a4 00 00 	movzbl 0xa457(%rip),%eax        # 10f161 <right_shift>
  104d0a:	84 c0                	test   %al,%al
  104d0c:	74 0a                	je     104d18 <read_kb+0x7a>
  104d0e:	b8 42 00 00 00       	mov    $0x42,%eax
  104d13:	e9 bd 07 00 00       	jmp    1054d5 <read_kb+0x837>
  104d18:	b8 62 00 00 00       	mov    $0x62,%eax
  104d1d:	e9 b3 07 00 00       	jmp    1054d5 <read_kb+0x837>
  104d22:	0f b6 05 37 a4 00 00 	movzbl 0xa437(%rip),%eax        # 10f160 <left_shift>
  104d29:	84 c0                	test   %al,%al
  104d2b:	75 0b                	jne    104d38 <read_kb+0x9a>
  104d2d:	0f b6 05 2d a4 00 00 	movzbl 0xa42d(%rip),%eax        # 10f161 <right_shift>
  104d34:	84 c0                	test   %al,%al
  104d36:	74 0a                	je     104d42 <read_kb+0xa4>
  104d38:	b8 43 00 00 00       	mov    $0x43,%eax
  104d3d:	e9 93 07 00 00       	jmp    1054d5 <read_kb+0x837>
  104d42:	b8 63 00 00 00       	mov    $0x63,%eax
  104d47:	e9 89 07 00 00       	jmp    1054d5 <read_kb+0x837>
  104d4c:	0f b6 05 0d a4 00 00 	movzbl 0xa40d(%rip),%eax        # 10f160 <left_shift>
  104d53:	84 c0                	test   %al,%al
  104d55:	75 0b                	jne    104d62 <read_kb+0xc4>
  104d57:	0f b6 05 03 a4 00 00 	movzbl 0xa403(%rip),%eax        # 10f161 <right_shift>
  104d5e:	84 c0                	test   %al,%al
  104d60:	74 0a                	je     104d6c <read_kb+0xce>
  104d62:	b8 44 00 00 00       	mov    $0x44,%eax
  104d67:	e9 69 07 00 00       	jmp    1054d5 <read_kb+0x837>
  104d6c:	b8 64 00 00 00       	mov    $0x64,%eax
  104d71:	e9 5f 07 00 00       	jmp    1054d5 <read_kb+0x837>
  104d76:	0f b6 05 e3 a3 00 00 	movzbl 0xa3e3(%rip),%eax        # 10f160 <left_shift>
  104d7d:	84 c0                	test   %al,%al
  104d7f:	75 0b                	jne    104d8c <read_kb+0xee>
  104d81:	0f b6 05 d9 a3 00 00 	movzbl 0xa3d9(%rip),%eax        # 10f161 <right_shift>
  104d88:	84 c0                	test   %al,%al
  104d8a:	74 0a                	je     104d96 <read_kb+0xf8>
  104d8c:	b8 45 00 00 00       	mov    $0x45,%eax
  104d91:	e9 3f 07 00 00       	jmp    1054d5 <read_kb+0x837>
  104d96:	b8 65 00 00 00       	mov    $0x65,%eax
  104d9b:	e9 35 07 00 00       	jmp    1054d5 <read_kb+0x837>
  104da0:	0f b6 05 b9 a3 00 00 	movzbl 0xa3b9(%rip),%eax        # 10f160 <left_shift>
  104da7:	84 c0                	test   %al,%al
  104da9:	75 0b                	jne    104db6 <read_kb+0x118>
  104dab:	0f b6 05 af a3 00 00 	movzbl 0xa3af(%rip),%eax        # 10f161 <right_shift>
  104db2:	84 c0                	test   %al,%al
  104db4:	74 0a                	je     104dc0 <read_kb+0x122>
  104db6:	b8 46 00 00 00       	mov    $0x46,%eax
  104dbb:	e9 15 07 00 00       	jmp    1054d5 <read_kb+0x837>
  104dc0:	b8 66 00 00 00       	mov    $0x66,%eax
  104dc5:	e9 0b 07 00 00       	jmp    1054d5 <read_kb+0x837>
  104dca:	0f b6 05 8f a3 00 00 	movzbl 0xa38f(%rip),%eax        # 10f160 <left_shift>
  104dd1:	84 c0                	test   %al,%al
  104dd3:	75 0b                	jne    104de0 <read_kb+0x142>
  104dd5:	0f b6 05 85 a3 00 00 	movzbl 0xa385(%rip),%eax        # 10f161 <right_shift>
  104ddc:	84 c0                	test   %al,%al
  104dde:	74 0a                	je     104dea <read_kb+0x14c>
  104de0:	b8 47 00 00 00       	mov    $0x47,%eax
  104de5:	e9 eb 06 00 00       	jmp    1054d5 <read_kb+0x837>
  104dea:	b8 67 00 00 00       	mov    $0x67,%eax
  104def:	e9 e1 06 00 00       	jmp    1054d5 <read_kb+0x837>
  104df4:	0f b6 05 65 a3 00 00 	movzbl 0xa365(%rip),%eax        # 10f160 <left_shift>
  104dfb:	84 c0                	test   %al,%al
  104dfd:	75 0b                	jne    104e0a <read_kb+0x16c>
  104dff:	0f b6 05 5b a3 00 00 	movzbl 0xa35b(%rip),%eax        # 10f161 <right_shift>
  104e06:	84 c0                	test   %al,%al
  104e08:	74 0a                	je     104e14 <read_kb+0x176>
  104e0a:	b8 48 00 00 00       	mov    $0x48,%eax
  104e0f:	e9 c1 06 00 00       	jmp    1054d5 <read_kb+0x837>
  104e14:	b8 68 00 00 00       	mov    $0x68,%eax
  104e19:	e9 b7 06 00 00       	jmp    1054d5 <read_kb+0x837>
  104e1e:	0f b6 05 3b a3 00 00 	movzbl 0xa33b(%rip),%eax        # 10f160 <left_shift>
  104e25:	84 c0                	test   %al,%al
  104e27:	75 0b                	jne    104e34 <read_kb+0x196>
  104e29:	0f b6 05 31 a3 00 00 	movzbl 0xa331(%rip),%eax        # 10f161 <right_shift>
  104e30:	84 c0                	test   %al,%al
  104e32:	74 0a                	je     104e3e <read_kb+0x1a0>
  104e34:	b8 49 00 00 00       	mov    $0x49,%eax
  104e39:	e9 97 06 00 00       	jmp    1054d5 <read_kb+0x837>
  104e3e:	b8 69 00 00 00       	mov    $0x69,%eax
  104e43:	e9 8d 06 00 00       	jmp    1054d5 <read_kb+0x837>
  104e48:	0f b6 05 11 a3 00 00 	movzbl 0xa311(%rip),%eax        # 10f160 <left_shift>
  104e4f:	84 c0                	test   %al,%al
  104e51:	75 0b                	jne    104e5e <read_kb+0x1c0>
  104e53:	0f b6 05 07 a3 00 00 	movzbl 0xa307(%rip),%eax        # 10f161 <right_shift>
  104e5a:	84 c0                	test   %al,%al
  104e5c:	74 0a                	je     104e68 <read_kb+0x1ca>
  104e5e:	b8 4a 00 00 00       	mov    $0x4a,%eax
  104e63:	e9 6d 06 00 00       	jmp    1054d5 <read_kb+0x837>
  104e68:	b8 6a 00 00 00       	mov    $0x6a,%eax
  104e6d:	e9 63 06 00 00       	jmp    1054d5 <read_kb+0x837>
  104e72:	0f b6 05 e7 a2 00 00 	movzbl 0xa2e7(%rip),%eax        # 10f160 <left_shift>
  104e79:	84 c0                	test   %al,%al
  104e7b:	75 0b                	jne    104e88 <read_kb+0x1ea>
  104e7d:	0f b6 05 dd a2 00 00 	movzbl 0xa2dd(%rip),%eax        # 10f161 <right_shift>
  104e84:	84 c0                	test   %al,%al
  104e86:	74 0a                	je     104e92 <read_kb+0x1f4>
  104e88:	b8 4b 00 00 00       	mov    $0x4b,%eax
  104e8d:	e9 43 06 00 00       	jmp    1054d5 <read_kb+0x837>
  104e92:	b8 6b 00 00 00       	mov    $0x6b,%eax
  104e97:	e9 39 06 00 00       	jmp    1054d5 <read_kb+0x837>
  104e9c:	0f b6 05 bd a2 00 00 	movzbl 0xa2bd(%rip),%eax        # 10f160 <left_shift>
  104ea3:	84 c0                	test   %al,%al
  104ea5:	75 0b                	jne    104eb2 <read_kb+0x214>
  104ea7:	0f b6 05 b3 a2 00 00 	movzbl 0xa2b3(%rip),%eax        # 10f161 <right_shift>
  104eae:	84 c0                	test   %al,%al
  104eb0:	74 0a                	je     104ebc <read_kb+0x21e>
  104eb2:	b8 4c 00 00 00       	mov    $0x4c,%eax
  104eb7:	e9 19 06 00 00       	jmp    1054d5 <read_kb+0x837>
  104ebc:	b8 6c 00 00 00       	mov    $0x6c,%eax
  104ec1:	e9 0f 06 00 00       	jmp    1054d5 <read_kb+0x837>
  104ec6:	0f b6 05 93 a2 00 00 	movzbl 0xa293(%rip),%eax        # 10f160 <left_shift>
  104ecd:	84 c0                	test   %al,%al
  104ecf:	75 0b                	jne    104edc <read_kb+0x23e>
  104ed1:	0f b6 05 89 a2 00 00 	movzbl 0xa289(%rip),%eax        # 10f161 <right_shift>
  104ed8:	84 c0                	test   %al,%al
  104eda:	74 0a                	je     104ee6 <read_kb+0x248>
  104edc:	b8 4d 00 00 00       	mov    $0x4d,%eax
  104ee1:	e9 ef 05 00 00       	jmp    1054d5 <read_kb+0x837>
  104ee6:	b8 6d 00 00 00       	mov    $0x6d,%eax
  104eeb:	e9 e5 05 00 00       	jmp    1054d5 <read_kb+0x837>
  104ef0:	0f b6 05 69 a2 00 00 	movzbl 0xa269(%rip),%eax        # 10f160 <left_shift>
  104ef7:	84 c0                	test   %al,%al
  104ef9:	75 0b                	jne    104f06 <read_kb+0x268>
  104efb:	0f b6 05 5f a2 00 00 	movzbl 0xa25f(%rip),%eax        # 10f161 <right_shift>
  104f02:	84 c0                	test   %al,%al
  104f04:	74 0a                	je     104f10 <read_kb+0x272>
  104f06:	b8 4e 00 00 00       	mov    $0x4e,%eax
  104f0b:	e9 c5 05 00 00       	jmp    1054d5 <read_kb+0x837>
  104f10:	b8 6e 00 00 00       	mov    $0x6e,%eax
  104f15:	e9 bb 05 00 00       	jmp    1054d5 <read_kb+0x837>
  104f1a:	0f b6 05 3f a2 00 00 	movzbl 0xa23f(%rip),%eax        # 10f160 <left_shift>
  104f21:	84 c0                	test   %al,%al
  104f23:	75 0b                	jne    104f30 <read_kb+0x292>
  104f25:	0f b6 05 35 a2 00 00 	movzbl 0xa235(%rip),%eax        # 10f161 <right_shift>
  104f2c:	84 c0                	test   %al,%al
  104f2e:	74 0a                	je     104f3a <read_kb+0x29c>
  104f30:	b8 4f 00 00 00       	mov    $0x4f,%eax
  104f35:	e9 9b 05 00 00       	jmp    1054d5 <read_kb+0x837>
  104f3a:	b8 6f 00 00 00       	mov    $0x6f,%eax
  104f3f:	e9 91 05 00 00       	jmp    1054d5 <read_kb+0x837>
  104f44:	0f b6 05 15 a2 00 00 	movzbl 0xa215(%rip),%eax        # 10f160 <left_shift>
  104f4b:	84 c0                	test   %al,%al
  104f4d:	75 0b                	jne    104f5a <read_kb+0x2bc>
  104f4f:	0f b6 05 0b a2 00 00 	movzbl 0xa20b(%rip),%eax        # 10f161 <right_shift>
  104f56:	84 c0                	test   %al,%al
  104f58:	74 0a                	je     104f64 <read_kb+0x2c6>
  104f5a:	b8 50 00 00 00       	mov    $0x50,%eax
  104f5f:	e9 71 05 00 00       	jmp    1054d5 <read_kb+0x837>
  104f64:	b8 70 00 00 00       	mov    $0x70,%eax
  104f69:	e9 67 05 00 00       	jmp    1054d5 <read_kb+0x837>
  104f6e:	0f b6 05 eb a1 00 00 	movzbl 0xa1eb(%rip),%eax        # 10f160 <left_shift>
  104f75:	84 c0                	test   %al,%al
  104f77:	75 0b                	jne    104f84 <read_kb+0x2e6>
  104f79:	0f b6 05 e1 a1 00 00 	movzbl 0xa1e1(%rip),%eax        # 10f161 <right_shift>
  104f80:	84 c0                	test   %al,%al
  104f82:	74 0a                	je     104f8e <read_kb+0x2f0>
  104f84:	b8 51 00 00 00       	mov    $0x51,%eax
  104f89:	e9 47 05 00 00       	jmp    1054d5 <read_kb+0x837>
  104f8e:	b8 71 00 00 00       	mov    $0x71,%eax
  104f93:	e9 3d 05 00 00       	jmp    1054d5 <read_kb+0x837>
  104f98:	0f b6 05 c1 a1 00 00 	movzbl 0xa1c1(%rip),%eax        # 10f160 <left_shift>
  104f9f:	84 c0                	test   %al,%al
  104fa1:	75 0b                	jne    104fae <read_kb+0x310>
  104fa3:	0f b6 05 b7 a1 00 00 	movzbl 0xa1b7(%rip),%eax        # 10f161 <right_shift>
  104faa:	84 c0                	test   %al,%al
  104fac:	74 0a                	je     104fb8 <read_kb+0x31a>
  104fae:	b8 52 00 00 00       	mov    $0x52,%eax
  104fb3:	e9 1d 05 00 00       	jmp    1054d5 <read_kb+0x837>
  104fb8:	b8 72 00 00 00       	mov    $0x72,%eax
  104fbd:	e9 13 05 00 00       	jmp    1054d5 <read_kb+0x837>
  104fc2:	0f b6 05 97 a1 00 00 	movzbl 0xa197(%rip),%eax        # 10f160 <left_shift>
  104fc9:	84 c0                	test   %al,%al
  104fcb:	75 0b                	jne    104fd8 <read_kb+0x33a>
  104fcd:	0f b6 05 8d a1 00 00 	movzbl 0xa18d(%rip),%eax        # 10f161 <right_shift>
  104fd4:	84 c0                	test   %al,%al
  104fd6:	74 0a                	je     104fe2 <read_kb+0x344>
  104fd8:	b8 53 00 00 00       	mov    $0x53,%eax
  104fdd:	e9 f3 04 00 00       	jmp    1054d5 <read_kb+0x837>
  104fe2:	b8 73 00 00 00       	mov    $0x73,%eax
  104fe7:	e9 e9 04 00 00       	jmp    1054d5 <read_kb+0x837>
  104fec:	0f b6 05 6d a1 00 00 	movzbl 0xa16d(%rip),%eax        # 10f160 <left_shift>
  104ff3:	84 c0                	test   %al,%al
  104ff5:	75 0b                	jne    105002 <read_kb+0x364>
  104ff7:	0f b6 05 63 a1 00 00 	movzbl 0xa163(%rip),%eax        # 10f161 <right_shift>
  104ffe:	84 c0                	test   %al,%al
  105000:	74 0a                	je     10500c <read_kb+0x36e>
  105002:	b8 54 00 00 00       	mov    $0x54,%eax
  105007:	e9 c9 04 00 00       	jmp    1054d5 <read_kb+0x837>
  10500c:	b8 74 00 00 00       	mov    $0x74,%eax
  105011:	e9 bf 04 00 00       	jmp    1054d5 <read_kb+0x837>
  105016:	0f b6 05 43 a1 00 00 	movzbl 0xa143(%rip),%eax        # 10f160 <left_shift>
  10501d:	84 c0                	test   %al,%al
  10501f:	75 0b                	jne    10502c <read_kb+0x38e>
  105021:	0f b6 05 39 a1 00 00 	movzbl 0xa139(%rip),%eax        # 10f161 <right_shift>
  105028:	84 c0                	test   %al,%al
  10502a:	74 0a                	je     105036 <read_kb+0x398>
  10502c:	b8 55 00 00 00       	mov    $0x55,%eax
  105031:	e9 9f 04 00 00       	jmp    1054d5 <read_kb+0x837>
  105036:	b8 75 00 00 00       	mov    $0x75,%eax
  10503b:	e9 95 04 00 00       	jmp    1054d5 <read_kb+0x837>
  105040:	0f b6 05 19 a1 00 00 	movzbl 0xa119(%rip),%eax        # 10f160 <left_shift>
  105047:	84 c0                	test   %al,%al
  105049:	75 0b                	jne    105056 <read_kb+0x3b8>
  10504b:	0f b6 05 0f a1 00 00 	movzbl 0xa10f(%rip),%eax        # 10f161 <right_shift>
  105052:	84 c0                	test   %al,%al
  105054:	74 0a                	je     105060 <read_kb+0x3c2>
  105056:	b8 56 00 00 00       	mov    $0x56,%eax
  10505b:	e9 75 04 00 00       	jmp    1054d5 <read_kb+0x837>
  105060:	b8 76 00 00 00       	mov    $0x76,%eax
  105065:	e9 6b 04 00 00       	jmp    1054d5 <read_kb+0x837>
  10506a:	0f b6 05 ef a0 00 00 	movzbl 0xa0ef(%rip),%eax        # 10f160 <left_shift>
  105071:	84 c0                	test   %al,%al
  105073:	75 0b                	jne    105080 <read_kb+0x3e2>
  105075:	0f b6 05 e5 a0 00 00 	movzbl 0xa0e5(%rip),%eax        # 10f161 <right_shift>
  10507c:	84 c0                	test   %al,%al
  10507e:	74 0a                	je     10508a <read_kb+0x3ec>
  105080:	b8 57 00 00 00       	mov    $0x57,%eax
  105085:	e9 4b 04 00 00       	jmp    1054d5 <read_kb+0x837>
  10508a:	b8 77 00 00 00       	mov    $0x77,%eax
  10508f:	e9 41 04 00 00       	jmp    1054d5 <read_kb+0x837>
  105094:	0f b6 05 c5 a0 00 00 	movzbl 0xa0c5(%rip),%eax        # 10f160 <left_shift>
  10509b:	84 c0                	test   %al,%al
  10509d:	75 0b                	jne    1050aa <read_kb+0x40c>
  10509f:	0f b6 05 bb a0 00 00 	movzbl 0xa0bb(%rip),%eax        # 10f161 <right_shift>
  1050a6:	84 c0                	test   %al,%al
  1050a8:	74 0a                	je     1050b4 <read_kb+0x416>
  1050aa:	b8 58 00 00 00       	mov    $0x58,%eax
  1050af:	e9 21 04 00 00       	jmp    1054d5 <read_kb+0x837>
  1050b4:	b8 78 00 00 00       	mov    $0x78,%eax
  1050b9:	e9 17 04 00 00       	jmp    1054d5 <read_kb+0x837>
  1050be:	0f b6 05 9b a0 00 00 	movzbl 0xa09b(%rip),%eax        # 10f160 <left_shift>
  1050c5:	84 c0                	test   %al,%al
  1050c7:	75 0b                	jne    1050d4 <read_kb+0x436>
  1050c9:	0f b6 05 91 a0 00 00 	movzbl 0xa091(%rip),%eax        # 10f161 <right_shift>
  1050d0:	84 c0                	test   %al,%al
  1050d2:	74 0a                	je     1050de <read_kb+0x440>
  1050d4:	b8 59 00 00 00       	mov    $0x59,%eax
  1050d9:	e9 f7 03 00 00       	jmp    1054d5 <read_kb+0x837>
  1050de:	b8 79 00 00 00       	mov    $0x79,%eax
  1050e3:	e9 ed 03 00 00       	jmp    1054d5 <read_kb+0x837>
  1050e8:	0f b6 05 71 a0 00 00 	movzbl 0xa071(%rip),%eax        # 10f160 <left_shift>
  1050ef:	84 c0                	test   %al,%al
  1050f1:	75 0b                	jne    1050fe <read_kb+0x460>
  1050f3:	0f b6 05 67 a0 00 00 	movzbl 0xa067(%rip),%eax        # 10f161 <right_shift>
  1050fa:	84 c0                	test   %al,%al
  1050fc:	74 0a                	je     105108 <read_kb+0x46a>
  1050fe:	b8 5a 00 00 00       	mov    $0x5a,%eax
  105103:	e9 cd 03 00 00       	jmp    1054d5 <read_kb+0x837>
  105108:	b8 7a 00 00 00       	mov    $0x7a,%eax
  10510d:	e9 c3 03 00 00       	jmp    1054d5 <read_kb+0x837>
  105112:	0f b6 05 47 a0 00 00 	movzbl 0xa047(%rip),%eax        # 10f160 <left_shift>
  105119:	84 c0                	test   %al,%al
  10511b:	75 0b                	jne    105128 <read_kb+0x48a>
  10511d:	0f b6 05 3d a0 00 00 	movzbl 0xa03d(%rip),%eax        # 10f161 <right_shift>
  105124:	84 c0                	test   %al,%al
  105126:	74 0a                	je     105132 <read_kb+0x494>
  105128:	b8 21 00 00 00       	mov    $0x21,%eax
  10512d:	e9 a3 03 00 00       	jmp    1054d5 <read_kb+0x837>
  105132:	b8 31 00 00 00       	mov    $0x31,%eax
  105137:	e9 99 03 00 00       	jmp    1054d5 <read_kb+0x837>
  10513c:	0f b6 05 1d a0 00 00 	movzbl 0xa01d(%rip),%eax        # 10f160 <left_shift>
  105143:	84 c0                	test   %al,%al
  105145:	75 0b                	jne    105152 <read_kb+0x4b4>
  105147:	0f b6 05 13 a0 00 00 	movzbl 0xa013(%rip),%eax        # 10f161 <right_shift>
  10514e:	84 c0                	test   %al,%al
  105150:	74 0a                	je     10515c <read_kb+0x4be>
  105152:	b8 40 00 00 00       	mov    $0x40,%eax
  105157:	e9 79 03 00 00       	jmp    1054d5 <read_kb+0x837>
  10515c:	b8 32 00 00 00       	mov    $0x32,%eax
  105161:	e9 6f 03 00 00       	jmp    1054d5 <read_kb+0x837>
  105166:	0f b6 05 f3 9f 00 00 	movzbl 0x9ff3(%rip),%eax        # 10f160 <left_shift>
  10516d:	84 c0                	test   %al,%al
  10516f:	75 0b                	jne    10517c <read_kb+0x4de>
  105171:	0f b6 05 e9 9f 00 00 	movzbl 0x9fe9(%rip),%eax        # 10f161 <right_shift>
  105178:	84 c0                	test   %al,%al
  10517a:	74 0a                	je     105186 <read_kb+0x4e8>
  10517c:	b8 23 00 00 00       	mov    $0x23,%eax
  105181:	e9 4f 03 00 00       	jmp    1054d5 <read_kb+0x837>
  105186:	b8 33 00 00 00       	mov    $0x33,%eax
  10518b:	e9 45 03 00 00       	jmp    1054d5 <read_kb+0x837>
  105190:	0f b6 05 c9 9f 00 00 	movzbl 0x9fc9(%rip),%eax        # 10f160 <left_shift>
  105197:	84 c0                	test   %al,%al
  105199:	75 0b                	jne    1051a6 <read_kb+0x508>
  10519b:	0f b6 05 bf 9f 00 00 	movzbl 0x9fbf(%rip),%eax        # 10f161 <right_shift>
  1051a2:	84 c0                	test   %al,%al
  1051a4:	74 0a                	je     1051b0 <read_kb+0x512>
  1051a6:	b8 24 00 00 00       	mov    $0x24,%eax
  1051ab:	e9 25 03 00 00       	jmp    1054d5 <read_kb+0x837>
  1051b0:	b8 34 00 00 00       	mov    $0x34,%eax
  1051b5:	e9 1b 03 00 00       	jmp    1054d5 <read_kb+0x837>
  1051ba:	0f b6 05 9f 9f 00 00 	movzbl 0x9f9f(%rip),%eax        # 10f160 <left_shift>
  1051c1:	84 c0                	test   %al,%al
  1051c3:	75 0b                	jne    1051d0 <read_kb+0x532>
  1051c5:	0f b6 05 95 9f 00 00 	movzbl 0x9f95(%rip),%eax        # 10f161 <right_shift>
  1051cc:	84 c0                	test   %al,%al
  1051ce:	74 0a                	je     1051da <read_kb+0x53c>
  1051d0:	b8 25 00 00 00       	mov    $0x25,%eax
  1051d5:	e9 fb 02 00 00       	jmp    1054d5 <read_kb+0x837>
  1051da:	b8 35 00 00 00       	mov    $0x35,%eax
  1051df:	e9 f1 02 00 00       	jmp    1054d5 <read_kb+0x837>
  1051e4:	0f b6 05 75 9f 00 00 	movzbl 0x9f75(%rip),%eax        # 10f160 <left_shift>
  1051eb:	84 c0                	test   %al,%al
  1051ed:	75 0b                	jne    1051fa <read_kb+0x55c>
  1051ef:	0f b6 05 6b 9f 00 00 	movzbl 0x9f6b(%rip),%eax        # 10f161 <right_shift>
  1051f6:	84 c0                	test   %al,%al
  1051f8:	74 0a                	je     105204 <read_kb+0x566>
  1051fa:	b8 5e 00 00 00       	mov    $0x5e,%eax
  1051ff:	e9 d1 02 00 00       	jmp    1054d5 <read_kb+0x837>
  105204:	b8 36 00 00 00       	mov    $0x36,%eax
  105209:	e9 c7 02 00 00       	jmp    1054d5 <read_kb+0x837>
  10520e:	0f b6 05 4b 9f 00 00 	movzbl 0x9f4b(%rip),%eax        # 10f160 <left_shift>
  105215:	84 c0                	test   %al,%al
  105217:	75 0b                	jne    105224 <read_kb+0x586>
  105219:	0f b6 05 41 9f 00 00 	movzbl 0x9f41(%rip),%eax        # 10f161 <right_shift>
  105220:	84 c0                	test   %al,%al
  105222:	74 0a                	je     10522e <read_kb+0x590>
  105224:	b8 26 00 00 00       	mov    $0x26,%eax
  105229:	e9 a7 02 00 00       	jmp    1054d5 <read_kb+0x837>
  10522e:	b8 37 00 00 00       	mov    $0x37,%eax
  105233:	e9 9d 02 00 00       	jmp    1054d5 <read_kb+0x837>
  105238:	0f b6 05 21 9f 00 00 	movzbl 0x9f21(%rip),%eax        # 10f160 <left_shift>
  10523f:	84 c0                	test   %al,%al
  105241:	75 0b                	jne    10524e <read_kb+0x5b0>
  105243:	0f b6 05 17 9f 00 00 	movzbl 0x9f17(%rip),%eax        # 10f161 <right_shift>
  10524a:	84 c0                	test   %al,%al
  10524c:	74 0a                	je     105258 <read_kb+0x5ba>
  10524e:	b8 2a 00 00 00       	mov    $0x2a,%eax
  105253:	e9 7d 02 00 00       	jmp    1054d5 <read_kb+0x837>
  105258:	b8 38 00 00 00       	mov    $0x38,%eax
  10525d:	e9 73 02 00 00       	jmp    1054d5 <read_kb+0x837>
  105262:	0f b6 05 f7 9e 00 00 	movzbl 0x9ef7(%rip),%eax        # 10f160 <left_shift>
  105269:	84 c0                	test   %al,%al
  10526b:	75 0b                	jne    105278 <read_kb+0x5da>
  10526d:	0f b6 05 ed 9e 00 00 	movzbl 0x9eed(%rip),%eax        # 10f161 <right_shift>
  105274:	84 c0                	test   %al,%al
  105276:	74 0a                	je     105282 <read_kb+0x5e4>
  105278:	b8 28 00 00 00       	mov    $0x28,%eax
  10527d:	e9 53 02 00 00       	jmp    1054d5 <read_kb+0x837>
  105282:	b8 39 00 00 00       	mov    $0x39,%eax
  105287:	e9 49 02 00 00       	jmp    1054d5 <read_kb+0x837>
  10528c:	0f b6 05 cd 9e 00 00 	movzbl 0x9ecd(%rip),%eax        # 10f160 <left_shift>
  105293:	84 c0                	test   %al,%al
  105295:	75 0b                	jne    1052a2 <read_kb+0x604>
  105297:	0f b6 05 c3 9e 00 00 	movzbl 0x9ec3(%rip),%eax        # 10f161 <right_shift>
  10529e:	84 c0                	test   %al,%al
  1052a0:	74 0a                	je     1052ac <read_kb+0x60e>
  1052a2:	b8 29 00 00 00       	mov    $0x29,%eax
  1052a7:	e9 29 02 00 00       	jmp    1054d5 <read_kb+0x837>
  1052ac:	b8 30 00 00 00       	mov    $0x30,%eax
  1052b1:	e9 1f 02 00 00       	jmp    1054d5 <read_kb+0x837>
  1052b6:	0f b6 05 a3 9e 00 00 	movzbl 0x9ea3(%rip),%eax        # 10f160 <left_shift>
  1052bd:	84 c0                	test   %al,%al
  1052bf:	75 0b                	jne    1052cc <read_kb+0x62e>
  1052c1:	0f b6 05 99 9e 00 00 	movzbl 0x9e99(%rip),%eax        # 10f161 <right_shift>
  1052c8:	84 c0                	test   %al,%al
  1052ca:	74 0a                	je     1052d6 <read_kb+0x638>
  1052cc:	b8 5f 00 00 00       	mov    $0x5f,%eax
  1052d1:	e9 ff 01 00 00       	jmp    1054d5 <read_kb+0x837>
  1052d6:	b8 2d 00 00 00       	mov    $0x2d,%eax
  1052db:	e9 f5 01 00 00       	jmp    1054d5 <read_kb+0x837>
  1052e0:	0f b6 05 79 9e 00 00 	movzbl 0x9e79(%rip),%eax        # 10f160 <left_shift>
  1052e7:	84 c0                	test   %al,%al
  1052e9:	75 0b                	jne    1052f6 <read_kb+0x658>
  1052eb:	0f b6 05 6f 9e 00 00 	movzbl 0x9e6f(%rip),%eax        # 10f161 <right_shift>
  1052f2:	84 c0                	test   %al,%al
  1052f4:	74 0a                	je     105300 <read_kb+0x662>
  1052f6:	b8 2b 00 00 00       	mov    $0x2b,%eax
  1052fb:	e9 d5 01 00 00       	jmp    1054d5 <read_kb+0x837>
  105300:	b8 3d 00 00 00       	mov    $0x3d,%eax
  105305:	e9 cb 01 00 00       	jmp    1054d5 <read_kb+0x837>
  10530a:	0f b6 05 4f 9e 00 00 	movzbl 0x9e4f(%rip),%eax        # 10f160 <left_shift>
  105311:	84 c0                	test   %al,%al
  105313:	75 0b                	jne    105320 <read_kb+0x682>
  105315:	0f b6 05 45 9e 00 00 	movzbl 0x9e45(%rip),%eax        # 10f161 <right_shift>
  10531c:	84 c0                	test   %al,%al
  10531e:	74 0a                	je     10532a <read_kb+0x68c>
  105320:	b8 7b 00 00 00       	mov    $0x7b,%eax
  105325:	e9 ab 01 00 00       	jmp    1054d5 <read_kb+0x837>
  10532a:	b8 5b 00 00 00       	mov    $0x5b,%eax
  10532f:	e9 a1 01 00 00       	jmp    1054d5 <read_kb+0x837>
  105334:	0f b6 05 25 9e 00 00 	movzbl 0x9e25(%rip),%eax        # 10f160 <left_shift>
  10533b:	84 c0                	test   %al,%al
  10533d:	75 0b                	jne    10534a <read_kb+0x6ac>
  10533f:	0f b6 05 1b 9e 00 00 	movzbl 0x9e1b(%rip),%eax        # 10f161 <right_shift>
  105346:	84 c0                	test   %al,%al
  105348:	74 0a                	je     105354 <read_kb+0x6b6>
  10534a:	b8 7d 00 00 00       	mov    $0x7d,%eax
  10534f:	e9 81 01 00 00       	jmp    1054d5 <read_kb+0x837>
  105354:	b8 5d 00 00 00       	mov    $0x5d,%eax
  105359:	e9 77 01 00 00       	jmp    1054d5 <read_kb+0x837>
  10535e:	0f b6 05 fb 9d 00 00 	movzbl 0x9dfb(%rip),%eax        # 10f160 <left_shift>
  105365:	84 c0                	test   %al,%al
  105367:	75 0b                	jne    105374 <read_kb+0x6d6>
  105369:	0f b6 05 f1 9d 00 00 	movzbl 0x9df1(%rip),%eax        # 10f161 <right_shift>
  105370:	84 c0                	test   %al,%al
  105372:	74 0a                	je     10537e <read_kb+0x6e0>
  105374:	b8 3a 00 00 00       	mov    $0x3a,%eax
  105379:	e9 57 01 00 00       	jmp    1054d5 <read_kb+0x837>
  10537e:	b8 3b 00 00 00       	mov    $0x3b,%eax
  105383:	e9 4d 01 00 00       	jmp    1054d5 <read_kb+0x837>
  105388:	0f b6 05 d1 9d 00 00 	movzbl 0x9dd1(%rip),%eax        # 10f160 <left_shift>
  10538f:	84 c0                	test   %al,%al
  105391:	75 0b                	jne    10539e <read_kb+0x700>
  105393:	0f b6 05 c7 9d 00 00 	movzbl 0x9dc7(%rip),%eax        # 10f161 <right_shift>
  10539a:	84 c0                	test   %al,%al
  10539c:	74 0a                	je     1053a8 <read_kb+0x70a>
  10539e:	b8 22 00 00 00       	mov    $0x22,%eax
  1053a3:	e9 2d 01 00 00       	jmp    1054d5 <read_kb+0x837>
  1053a8:	b8 27 00 00 00       	mov    $0x27,%eax
  1053ad:	e9 23 01 00 00       	jmp    1054d5 <read_kb+0x837>
  1053b2:	0f b6 05 a7 9d 00 00 	movzbl 0x9da7(%rip),%eax        # 10f160 <left_shift>
  1053b9:	84 c0                	test   %al,%al
  1053bb:	75 0b                	jne    1053c8 <read_kb+0x72a>
  1053bd:	0f b6 05 9d 9d 00 00 	movzbl 0x9d9d(%rip),%eax        # 10f161 <right_shift>
  1053c4:	84 c0                	test   %al,%al
  1053c6:	74 0a                	je     1053d2 <read_kb+0x734>
  1053c8:	b8 7e 00 00 00       	mov    $0x7e,%eax
  1053cd:	e9 03 01 00 00       	jmp    1054d5 <read_kb+0x837>
  1053d2:	b8 60 00 00 00       	mov    $0x60,%eax
  1053d7:	e9 f9 00 00 00       	jmp    1054d5 <read_kb+0x837>
  1053dc:	0f b6 05 7d 9d 00 00 	movzbl 0x9d7d(%rip),%eax        # 10f160 <left_shift>
  1053e3:	84 c0                	test   %al,%al
  1053e5:	75 0b                	jne    1053f2 <read_kb+0x754>
  1053e7:	0f b6 05 73 9d 00 00 	movzbl 0x9d73(%rip),%eax        # 10f161 <right_shift>
  1053ee:	84 c0                	test   %al,%al
  1053f0:	74 0a                	je     1053fc <read_kb+0x75e>
  1053f2:	b8 3c 00 00 00       	mov    $0x3c,%eax
  1053f7:	e9 d9 00 00 00       	jmp    1054d5 <read_kb+0x837>
  1053fc:	b8 2c 00 00 00       	mov    $0x2c,%eax
  105401:	e9 cf 00 00 00       	jmp    1054d5 <read_kb+0x837>
  105406:	0f b6 05 53 9d 00 00 	movzbl 0x9d53(%rip),%eax        # 10f160 <left_shift>
  10540d:	84 c0                	test   %al,%al
  10540f:	75 0b                	jne    10541c <read_kb+0x77e>
  105411:	0f b6 05 49 9d 00 00 	movzbl 0x9d49(%rip),%eax        # 10f161 <right_shift>
  105418:	84 c0                	test   %al,%al
  10541a:	74 0a                	je     105426 <read_kb+0x788>
  10541c:	b8 3e 00 00 00       	mov    $0x3e,%eax
  105421:	e9 af 00 00 00       	jmp    1054d5 <read_kb+0x837>
  105426:	b8 2e 00 00 00       	mov    $0x2e,%eax
  10542b:	e9 a5 00 00 00       	jmp    1054d5 <read_kb+0x837>
  105430:	0f b6 05 29 9d 00 00 	movzbl 0x9d29(%rip),%eax        # 10f160 <left_shift>
  105437:	84 c0                	test   %al,%al
  105439:	75 0b                	jne    105446 <read_kb+0x7a8>
  10543b:	0f b6 05 1f 9d 00 00 	movzbl 0x9d1f(%rip),%eax        # 10f161 <right_shift>
  105442:	84 c0                	test   %al,%al
  105444:	74 0a                	je     105450 <read_kb+0x7b2>
  105446:	b8 3f 00 00 00       	mov    $0x3f,%eax
  10544b:	e9 85 00 00 00       	jmp    1054d5 <read_kb+0x837>
  105450:	b8 2f 00 00 00       	mov    $0x2f,%eax
  105455:	eb 7e                	jmp    1054d5 <read_kb+0x837>
  105457:	0f b6 05 02 9d 00 00 	movzbl 0x9d02(%rip),%eax        # 10f160 <left_shift>
  10545e:	84 c0                	test   %al,%al
  105460:	75 0b                	jne    10546d <read_kb+0x7cf>
  105462:	0f b6 05 f8 9c 00 00 	movzbl 0x9cf8(%rip),%eax        # 10f161 <right_shift>
  105469:	84 c0                	test   %al,%al
  10546b:	74 07                	je     105474 <read_kb+0x7d6>
  10546d:	b8 7c 00 00 00       	mov    $0x7c,%eax
  105472:	eb 61                	jmp    1054d5 <read_kb+0x837>
  105474:	b8 5c 00 00 00       	mov    $0x5c,%eax
  105479:	eb 5a                	jmp    1054d5 <read_kb+0x837>
  10547b:	b8 08 00 00 00       	mov    $0x8,%eax
  105480:	eb 53                	jmp    1054d5 <read_kb+0x837>
  105482:	b8 20 00 00 00       	mov    $0x20,%eax
  105487:	eb 4c                	jmp    1054d5 <read_kb+0x837>
  105489:	0f b6 05 d0 9c 00 00 	movzbl 0x9cd0(%rip),%eax        # 10f160 <left_shift>
  105490:	84 c0                	test   %al,%al
  105492:	75 0b                	jne    10549f <read_kb+0x801>
  105494:	0f b6 05 c6 9c 00 00 	movzbl 0x9cc6(%rip),%eax        # 10f161 <right_shift>
  10549b:	84 c0                	test   %al,%al
  10549d:	74 07                	je     1054a6 <read_kb+0x808>
  10549f:	b8 0a 00 00 00       	mov    $0xa,%eax
  1054a4:	eb 2f                	jmp    1054d5 <read_kb+0x837>
  1054a6:	b8 0d 00 00 00       	mov    $0xd,%eax
  1054ab:	eb 28                	jmp    1054d5 <read_kb+0x837>
  1054ad:	c6 05 ac 9c 00 00 01 	movb   $0x1,0x9cac(%rip)        # 10f160 <left_shift>
  1054b4:	eb 1a                	jmp    1054d0 <read_kb+0x832>
  1054b6:	c6 05 a3 9c 00 00 00 	movb   $0x0,0x9ca3(%rip)        # 10f160 <left_shift>
  1054bd:	eb 11                	jmp    1054d0 <read_kb+0x832>
  1054bf:	c6 05 9b 9c 00 00 01 	movb   $0x1,0x9c9b(%rip)        # 10f161 <right_shift>
  1054c6:	eb 08                	jmp    1054d0 <read_kb+0x832>
  1054c8:	c6 05 92 9c 00 00 00 	movb   $0x0,0x9c92(%rip)        # 10f161 <right_shift>
  1054cf:	90                   	nop
  1054d0:	b8 00 00 00 00       	mov    $0x0,%eax
  1054d5:	c9                   	leave
  1054d6:	c3                   	ret

00000000001054d7 <create_new_table>:
  1054d7:	55                   	push   %rbp
  1054d8:	48 89 e5             	mov    %rsp,%rbp
  1054db:	48 83 ec 20          	sub    $0x20,%rsp
  1054df:	48 89 7d e8          	mov    %rdi,-0x18(%rbp)
  1054e3:	48 8b 45 e8          	mov    -0x18(%rbp),%rax
  1054e7:	48 89 45 f8          	mov    %rax,-0x8(%rbp)
  1054eb:	e8 b8 f2 ff ff       	call   1047a8 <MMU_pf_alloc>
  1054f0:	48 89 45 f0          	mov    %rax,-0x10(%rbp)
  1054f4:	48 8b 45 f0          	mov    -0x10(%rbp),%rax
  1054f8:	48 c1 e8 0c          	shr    $0xc,%rax
  1054fc:	48 89 c2             	mov    %rax,%rdx
  1054ff:	48 b8 ff ff ff ff ff 	movabs $0xffffffffff,%rax
  105506:	00 00 00 
  105509:	48 89 d1             	mov    %rdx,%rcx
  10550c:	48 21 c1             	and    %rax,%rcx
  10550f:	48 8b 45 f8          	mov    -0x8(%rbp),%rax
  105513:	48 ba ff ff ff ff ff 	movabs $0xffffffffff,%rdx
  10551a:	00 00 00 
  10551d:	48 21 ca             	and    %rcx,%rdx
  105520:	48 c1 e2 0c          	shl    $0xc,%rdx
  105524:	48 8b 08             	mov    (%rax),%rcx
  105527:	48 be ff 0f 00 00 00 	movabs $0xfff0000000000fff,%rsi
  10552e:	00 f0 ff 
  105531:	48 21 f1             	and    %rsi,%rcx
  105534:	48 09 ca             	or     %rcx,%rdx
  105537:	48 89 10             	mov    %rdx,(%rax)
  10553a:	48 8b 45 f8          	mov    -0x8(%rbp),%rax
  10553e:	0f b6 10             	movzbl (%rax),%edx
  105541:	83 ca 01             	or     $0x1,%edx
  105544:	88 10                	mov    %dl,(%rax)
  105546:	48 8b 45 f8          	mov    -0x8(%rbp),%rax
  10554a:	0f b6 50 01          	movzbl 0x1(%rax),%edx
  10554e:	83 e2 f1             	and    $0xfffffff1,%edx
  105551:	83 ca 02             	or     $0x2,%edx
  105554:	88 50 01             	mov    %dl,0x1(%rax)
  105557:	48 8b 45 f8          	mov    -0x8(%rbp),%rax
  10555b:	0f b6 10             	movzbl (%rax),%edx
  10555e:	83 ca 02             	or     $0x2,%edx
  105561:	88 10                	mov    %dl,(%rax)
  105563:	48 8b 45 f0          	mov    -0x10(%rbp),%rax
  105567:	ba 00 10 00 00       	mov    $0x1000,%edx
  10556c:	be 00 00 00 00       	mov    $0x0,%esi
  105571:	48 89 c7             	mov    %rax,%rdi
  105574:	e8 0a 17 00 00       	call   106c83 <memset>
  105579:	48 8b 45 f0          	mov    -0x10(%rbp),%rax
  10557d:	c9                   	leave
  10557e:	c3                   	ret

000000000010557f <virtual_to_physical>:
  10557f:	55                   	push   %rbp
  105580:	48 89 e5             	mov    %rsp,%rbp
  105583:	48 89 7d b8          	mov    %rdi,-0x48(%rbp)
  105587:	48 89 75 b0          	mov    %rsi,-0x50(%rbp)
  10558b:	48 8b 45 b8          	mov    -0x48(%rbp),%rax
  10558f:	48 c1 e8 27          	shr    $0x27,%rax
  105593:	25 ff 01 00 00       	and    $0x1ff,%eax
  105598:	48 89 45 f8          	mov    %rax,-0x8(%rbp)
  10559c:	48 8b 45 f8          	mov    -0x8(%rbp),%rax
  1055a0:	48 8d 14 c5 00 00 00 	lea    0x0(,%rax,8),%rdx
  1055a7:	00 
  1055a8:	48 8b 45 b0          	mov    -0x50(%rbp),%rax
  1055ac:	48 01 d0             	add    %rdx,%rax
  1055af:	48 89 45 f0          	mov    %rax,-0x10(%rbp)
  1055b3:	48 8b 45 f0          	mov    -0x10(%rbp),%rax
  1055b7:	0f b6 00             	movzbl (%rax),%eax
  1055ba:	83 e0 01             	and    $0x1,%eax
  1055bd:	84 c0                	test   %al,%al
  1055bf:	75 0a                	jne    1055cb <virtual_to_physical+0x4c>
  1055c1:	b8 00 00 00 00       	mov    $0x0,%eax
  1055c6:	e9 7c 01 00 00       	jmp    105747 <virtual_to_physical+0x1c8>
  1055cb:	48 8b 45 b8          	mov    -0x48(%rbp),%rax
  1055cf:	48 c1 e8 1e          	shr    $0x1e,%rax
  1055d3:	25 ff 01 00 00       	and    $0x1ff,%eax
  1055d8:	48 89 45 e8          	mov    %rax,-0x18(%rbp)
  1055dc:	48 8b 45 f0          	mov    -0x10(%rbp),%rax
  1055e0:	48 8b 00             	mov    (%rax),%rax
  1055e3:	48 c1 e8 0c          	shr    $0xc,%rax
  1055e7:	48 ba ff ff ff ff ff 	movabs $0xffffffffff,%rdx
  1055ee:	00 00 00 
  1055f1:	48 21 d0             	and    %rdx,%rax
  1055f4:	48 c1 e0 0c          	shl    $0xc,%rax
  1055f8:	48 ba ff ff ff ff ff 	movabs $0xffffffffff,%rdx
  1055ff:	00 00 00 
  105602:	48 21 d0             	and    %rdx,%rax
  105605:	48 89 c2             	mov    %rax,%rdx
  105608:	48 b8 00 f0 ff ff ff 	movabs $0xffffffffff000,%rax
  10560f:	ff 0f 00 
  105612:	48 21 d0             	and    %rdx,%rax
  105615:	48 89 45 e0          	mov    %rax,-0x20(%rbp)
  105619:	48 8b 45 e8          	mov    -0x18(%rbp),%rax
  10561d:	48 c1 e0 03          	shl    $0x3,%rax
  105621:	48 01 45 e0          	add    %rax,-0x20(%rbp)
  105625:	48 8b 45 e0          	mov    -0x20(%rbp),%rax
  105629:	0f b6 00             	movzbl (%rax),%eax
  10562c:	83 e0 01             	and    $0x1,%eax
  10562f:	84 c0                	test   %al,%al
  105631:	75 0a                	jne    10563d <virtual_to_physical+0xbe>
  105633:	b8 00 00 00 00       	mov    $0x0,%eax
  105638:	e9 0a 01 00 00       	jmp    105747 <virtual_to_physical+0x1c8>
  10563d:	48 8b 45 b8          	mov    -0x48(%rbp),%rax
  105641:	48 c1 e8 15          	shr    $0x15,%rax
  105645:	25 ff 01 00 00       	and    $0x1ff,%eax
  10564a:	48 89 45 d8          	mov    %rax,-0x28(%rbp)
  10564e:	48 8b 45 e0          	mov    -0x20(%rbp),%rax
  105652:	48 8b 00             	mov    (%rax),%rax
  105655:	48 c1 e8 0c          	shr    $0xc,%rax
  105659:	48 ba ff ff ff ff ff 	movabs $0xffffffffff,%rdx
  105660:	00 00 00 
  105663:	48 21 d0             	and    %rdx,%rax
  105666:	48 c1 e0 0c          	shl    $0xc,%rax
  10566a:	48 ba ff ff ff ff ff 	movabs $0xffffffffff,%rdx
  105671:	00 00 00 
  105674:	48 21 d0             	and    %rdx,%rax
  105677:	48 89 c2             	mov    %rax,%rdx
  10567a:	48 b8 00 f0 ff ff ff 	movabs $0xffffffffff000,%rax
  105681:	ff 0f 00 
  105684:	48 21 d0             	and    %rdx,%rax
  105687:	48 89 45 d0          	mov    %rax,-0x30(%rbp)
  10568b:	48 8b 45 d8          	mov    -0x28(%rbp),%rax
  10568f:	48 c1 e0 03          	shl    $0x3,%rax
  105693:	48 01 45 d0          	add    %rax,-0x30(%rbp)
  105697:	48 8b 45 d0          	mov    -0x30(%rbp),%rax
  10569b:	0f b6 00             	movzbl (%rax),%eax
  10569e:	83 e0 01             	and    $0x1,%eax
  1056a1:	84 c0                	test   %al,%al
  1056a3:	75 0a                	jne    1056af <virtual_to_physical+0x130>
  1056a5:	b8 00 00 00 00       	mov    $0x0,%eax
  1056aa:	e9 98 00 00 00       	jmp    105747 <virtual_to_physical+0x1c8>
  1056af:	48 8b 45 b8          	mov    -0x48(%rbp),%rax
  1056b3:	48 c1 e8 0c          	shr    $0xc,%rax
  1056b7:	25 ff 01 00 00       	and    $0x1ff,%eax
  1056bc:	48 89 45 c8          	mov    %rax,-0x38(%rbp)
  1056c0:	48 8b 45 d0          	mov    -0x30(%rbp),%rax
  1056c4:	48 8b 00             	mov    (%rax),%rax
  1056c7:	48 c1 e8 0c          	shr    $0xc,%rax
  1056cb:	48 ba ff ff ff ff ff 	movabs $0xffffffffff,%rdx
  1056d2:	00 00 00 
  1056d5:	48 21 d0             	and    %rdx,%rax
  1056d8:	48 c1 e0 0c          	shl    $0xc,%rax
  1056dc:	48 ba ff ff ff ff ff 	movabs $0xffffffffff,%rdx
  1056e3:	00 00 00 
  1056e6:	48 21 d0             	and    %rdx,%rax
  1056e9:	48 89 c2             	mov    %rax,%rdx
  1056ec:	48 b8 00 f0 ff ff ff 	movabs $0xffffffffff000,%rax
  1056f3:	ff 0f 00 
  1056f6:	48 21 d0             	and    %rdx,%rax
  1056f9:	48 89 45 c0          	mov    %rax,-0x40(%rbp)
