
build/.img/boot/kernel.bin:     file format elf64-x86-64


Disassembly of section .text:

0000000000101880 <start>:
  101880:	bc 40 b0 10 00       	mov    $0x10b040,%esp
  101885:	e8 48 00 00 00       	call   1018d2 <check_multiboot>
  10188a:	89 df                	mov    %ebx,%edi
  10188c:	e8 4d 00 00 00       	call   1018de <check_cpuid>
  101891:	e8 60 00 00 00       	call   1018f6 <check_long_mode>
  101896:	e8 7d 00 00 00       	call   101918 <set_up_page_tables>
  10189b:	e8 b4 00 00 00       	call   101954 <enable_paging>
  1018a0:	0f 01 15 48 00 10 00 	lgdt   0x100048(%rip)        # 2018ef <cursor+0xf272f>
  1018a7:	ea                   	(bad)
  1018a8:	90                   	nop
  1018a9:	29 10                	sub    %edx,(%rax)
  1018ab:	00 08                	add    %cl,(%rax)
	...

00000000001018ae <error>:
  1018ae:	c7 05 00 80 0b 00 45 	movl   $0x4f524f45,0xb8000(%rip)        # 1b98b8 <cursor+0xaa6f8>
  1018b5:	4f 52 4f 
  1018b8:	c7 05 04 80 0b 00 52 	movl   $0x4f3a4f52,0xb8004(%rip)        # 1b98c6 <cursor+0xaa706>
  1018bf:	4f 3a 4f 
  1018c2:	c7 05 08 80 0b 00 20 	movl   $0x4f204f20,0xb8008(%rip)        # 1b98d4 <cursor+0xaa714>
  1018c9:	4f 20 4f 
  1018cc:	a2                   	.byte 0xa2
  1018cd:	0a                   	.byte 0xa
  1018ce:	80 0b 00             	orb    $0x0,(%rbx)
  1018d1:	f4                   	hlt

00000000001018d2 <check_multiboot>:
  1018d2:	3d 89 62 d7 36       	cmp    $0x36d76289,%eax
  1018d7:	75 01                	jne    1018da <check_multiboot.no_multiboot>
  1018d9:	c3                   	ret

00000000001018da <check_multiboot.no_multiboot>:
  1018da:	b0 30                	mov    $0x30,%al
  1018dc:	eb d0                	jmp    1018ae <error>

00000000001018de <check_cpuid>:
  1018de:	9c                   	pushf
  1018df:	58                   	pop    %rax
  1018e0:	89 c1                	mov    %eax,%ecx
  1018e2:	35 00 00 20 00       	xor    $0x200000,%eax
  1018e7:	50                   	push   %rax
  1018e8:	9d                   	popf
  1018e9:	9c                   	pushf
  1018ea:	58                   	pop    %rax
  1018eb:	51                   	push   %rcx
  1018ec:	9d                   	popf
  1018ed:	39 c8                	cmp    %ecx,%eax
  1018ef:	74 01                	je     1018f2 <check_cpuid.no_cpuid>
  1018f1:	c3                   	ret

00000000001018f2 <check_cpuid.no_cpuid>:
  1018f2:	b0 31                	mov    $0x31,%al
  1018f4:	eb b8                	jmp    1018ae <error>

00000000001018f6 <check_long_mode>:
  1018f6:	b8 00 00 00 80       	mov    $0x80000000,%eax
  1018fb:	0f a2                	cpuid
  1018fd:	3d 01 00 00 80       	cmp    $0x80000001,%eax
  101902:	72 10                	jb     101914 <check_long_mode.no_long_mode>
  101904:	b8 01 00 00 80       	mov    $0x80000001,%eax
  101909:	0f a2                	cpuid
  10190b:	f7 c2 00 00 00 20    	test   $0x20000000,%edx
  101911:	74 01                	je     101914 <check_long_mode.no_long_mode>
  101913:	c3                   	ret

0000000000101914 <check_long_mode.no_long_mode>:
  101914:	b0 32                	mov    $0x32,%al
  101916:	eb 96                	jmp    1018ae <error>

0000000000101918 <set_up_page_tables>:
  101918:	b8 00 90 10 00       	mov    $0x109000,%eax
  10191d:	83 c8 03             	or     $0x3,%eax
  101920:	a3 00 80 10 00 b8 00 	movabs %eax,0x10a000b800108000
  101927:	a0 10 
  101929:	00 83 c8 03 a3 00    	add    %al,0xa303c8(%rbx)
  10192f:	90                   	nop
  101930:	10 00                	adc    %al,(%rax)
  101932:	b9 00 00 00 00       	mov    $0x0,%ecx

0000000000101937 <set_up_page_tables.map_p2_table>:
  101937:	b8 00 00 20 00       	mov    $0x200000,%eax
  10193c:	f7 e1                	mul    %ecx
  10193e:	0d 83 00 00 00       	or     $0x83,%eax
  101943:	89 04 cd 00 a0 10 00 	mov    %eax,0x10a000(,%rcx,8)
  10194a:	41 81 f9 00 02 00 00 	cmp    $0x200,%r9d
  101951:	75 e4                	jne    101937 <set_up_page_tables.map_p2_table>
  101953:	c3                   	ret

0000000000101954 <enable_paging>:
  101954:	b8 00 80 10 00       	mov    $0x108000,%eax
  101959:	0f 22 d8             	mov    %rax,%cr3
  10195c:	0f 20 e0             	mov    %cr4,%rax
  10195f:	83 c8 20             	or     $0x20,%eax
  101962:	0f 22 e0             	mov    %rax,%cr4
  101965:	b9 80 00 00 c0       	mov    $0xc0000080,%ecx
  10196a:	0f 32                	rdmsr
  10196c:	0d 00 01 00 00       	or     $0x100,%eax
  101971:	0f 30                	wrmsr
  101973:	0f 20 c0             	mov    %cr0,%rax
  101976:	0d 00 00 00 80       	or     $0x80000000,%eax
  10197b:	0f 22 c0             	mov    %rax,%cr0
  10197e:	c3                   	ret
  10197f:	90                   	nop

0000000000101980 <glue>:
  101980:	50                   	push   %rax
  101981:	51                   	push   %rcx
  101982:	52                   	push   %rdx
  101983:	56                   	push   %rsi
  101984:	41 50                	push   %r8
  101986:	41 51                	push   %r9
  101988:	41 52                	push   %r10
  10198a:	41 53                	push   %r11
  10198c:	e8 c2 11 00 00       	call   102b53 <irq_dispatch>
  101991:	41 5b                	pop    %r11
  101993:	41 5a                	pop    %r10
  101995:	41 59                	pop    %r9
  101997:	41 58                	pop    %r8
  101999:	5e                   	pop    %rsi
  10199a:	5a                   	pop    %rdx
  10199b:	59                   	pop    %rcx
  10199c:	58                   	pop    %rax
  10199d:	5e                   	pop    %rsi
  10199e:	5f                   	pop    %rdi
  10199f:	48 83 c4 08          	add    $0x8,%rsp
  1019a3:	48 cf                	iretq

00000000001019a5 <irq_entry_0>:
  1019a5:	57                   	push   %rdi
  1019a6:	57                   	push   %rdi
  1019a7:	56                   	push   %rsi
  1019a8:	bf 00 00 00 00       	mov    $0x0,%edi
  1019ad:	0f 20 d6             	mov    %cr2,%rsi
  1019b0:	eb ce                	jmp    101980 <glue>

00000000001019b2 <irq_entry_1>:
  1019b2:	57                   	push   %rdi
  1019b3:	57                   	push   %rdi
  1019b4:	56                   	push   %rsi
  1019b5:	bf 01 00 00 00       	mov    $0x1,%edi
  1019ba:	0f 20 d6             	mov    %cr2,%rsi
  1019bd:	eb c1                	jmp    101980 <glue>

00000000001019bf <irq_entry_2>:
  1019bf:	57                   	push   %rdi
  1019c0:	57                   	push   %rdi
  1019c1:	56                   	push   %rsi
  1019c2:	bf 02 00 00 00       	mov    $0x2,%edi
  1019c7:	0f 20 d6             	mov    %cr2,%rsi
  1019ca:	eb b4                	jmp    101980 <glue>

00000000001019cc <irq_entry_3>:
  1019cc:	57                   	push   %rdi
  1019cd:	57                   	push   %rdi
  1019ce:	56                   	push   %rsi
  1019cf:	bf 03 00 00 00       	mov    $0x3,%edi
  1019d4:	0f 20 d6             	mov    %cr2,%rsi
  1019d7:	eb a7                	jmp    101980 <glue>

00000000001019d9 <irq_entry_4>:
  1019d9:	57                   	push   %rdi
  1019da:	57                   	push   %rdi
  1019db:	56                   	push   %rsi
  1019dc:	bf 04 00 00 00       	mov    $0x4,%edi
  1019e1:	0f 20 d6             	mov    %cr2,%rsi
  1019e4:	eb 9a                	jmp    101980 <glue>

00000000001019e6 <irq_entry_5>:
  1019e6:	57                   	push   %rdi
  1019e7:	57                   	push   %rdi
  1019e8:	56                   	push   %rsi
  1019e9:	bf 05 00 00 00       	mov    $0x5,%edi
  1019ee:	0f 20 d6             	mov    %cr2,%rsi
  1019f1:	eb 8d                	jmp    101980 <glue>

00000000001019f3 <irq_entry_6>:
  1019f3:	57                   	push   %rdi
  1019f4:	57                   	push   %rdi
  1019f5:	56                   	push   %rsi
  1019f6:	bf 06 00 00 00       	mov    $0x6,%edi
  1019fb:	0f 20 d6             	mov    %cr2,%rsi
  1019fe:	eb 80                	jmp    101980 <glue>

0000000000101a00 <irq_entry_7>:
  101a00:	57                   	push   %rdi
  101a01:	57                   	push   %rdi
  101a02:	56                   	push   %rsi
  101a03:	bf 07 00 00 00       	mov    $0x7,%edi
  101a08:	0f 20 d6             	mov    %cr2,%rsi
  101a0b:	e9 70 ff ff ff       	jmp    101980 <glue>

0000000000101a10 <irq_entry_8>:
  101a10:	57                   	push   %rdi
  101a11:	56                   	push   %rsi
  101a12:	bf 08 00 00 00       	mov    $0x8,%edi
  101a17:	0f 20 d6             	mov    %cr2,%rsi
  101a1a:	e9 61 ff ff ff       	jmp    101980 <glue>

0000000000101a1f <irq_entry_9>:
  101a1f:	57                   	push   %rdi
  101a20:	57                   	push   %rdi
  101a21:	56                   	push   %rsi
  101a22:	bf 09 00 00 00       	mov    $0x9,%edi
  101a27:	0f 20 d6             	mov    %cr2,%rsi
  101a2a:	e9 51 ff ff ff       	jmp    101980 <glue>

0000000000101a2f <irq_entry_10>:
  101a2f:	57                   	push   %rdi
  101a30:	56                   	push   %rsi
  101a31:	bf 0a 00 00 00       	mov    $0xa,%edi
  101a36:	0f 20 d6             	mov    %cr2,%rsi
  101a39:	e9 42 ff ff ff       	jmp    101980 <glue>

0000000000101a3e <irq_entry_11>:
  101a3e:	57                   	push   %rdi
  101a3f:	56                   	push   %rsi
  101a40:	bf 0b 00 00 00       	mov    $0xb,%edi
  101a45:	0f 20 d6             	mov    %cr2,%rsi
  101a48:	e9 33 ff ff ff       	jmp    101980 <glue>

0000000000101a4d <irq_entry_12>:
  101a4d:	57                   	push   %rdi
  101a4e:	56                   	push   %rsi
  101a4f:	bf 0c 00 00 00       	mov    $0xc,%edi
  101a54:	0f 20 d6             	mov    %cr2,%rsi
  101a57:	e9 24 ff ff ff       	jmp    101980 <glue>

0000000000101a5c <irq_entry_13>:
  101a5c:	57                   	push   %rdi
  101a5d:	56                   	push   %rsi
  101a5e:	bf 0d 00 00 00       	mov    $0xd,%edi
  101a63:	0f 20 d6             	mov    %cr2,%rsi
  101a66:	e9 15 ff ff ff       	jmp    101980 <glue>

0000000000101a6b <irq_entry_14>:
  101a6b:	57                   	push   %rdi
  101a6c:	56                   	push   %rsi
  101a6d:	bf 0e 00 00 00       	mov    $0xe,%edi
  101a72:	0f 20 d6             	mov    %cr2,%rsi
  101a75:	e9 06 ff ff ff       	jmp    101980 <glue>

0000000000101a7a <irq_entry_15>:
  101a7a:	57                   	push   %rdi
  101a7b:	57                   	push   %rdi
  101a7c:	56                   	push   %rsi
  101a7d:	bf 0f 00 00 00       	mov    $0xf,%edi
  101a82:	0f 20 d6             	mov    %cr2,%rsi
  101a85:	e9 f6 fe ff ff       	jmp    101980 <glue>

0000000000101a8a <irq_entry_16>:
  101a8a:	57                   	push   %rdi
  101a8b:	57                   	push   %rdi
  101a8c:	56                   	push   %rsi
  101a8d:	bf 10 00 00 00       	mov    $0x10,%edi
  101a92:	0f 20 d6             	mov    %cr2,%rsi
  101a95:	e9 e6 fe ff ff       	jmp    101980 <glue>

0000000000101a9a <irq_entry_17>:
  101a9a:	57                   	push   %rdi
  101a9b:	57                   	push   %rdi
  101a9c:	56                   	push   %rsi
  101a9d:	bf 11 00 00 00       	mov    $0x11,%edi
  101aa2:	0f 20 d6             	mov    %cr2,%rsi
  101aa5:	e9 d6 fe ff ff       	jmp    101980 <glue>

0000000000101aaa <irq_entry_18>:
  101aaa:	57                   	push   %rdi
  101aab:	57                   	push   %rdi
  101aac:	56                   	push   %rsi
  101aad:	bf 12 00 00 00       	mov    $0x12,%edi
  101ab2:	0f 20 d6             	mov    %cr2,%rsi
  101ab5:	e9 c6 fe ff ff       	jmp    101980 <glue>

0000000000101aba <irq_entry_19>:
  101aba:	57                   	push   %rdi
  101abb:	57                   	push   %rdi
  101abc:	56                   	push   %rsi
  101abd:	bf 13 00 00 00       	mov    $0x13,%edi
  101ac2:	0f 20 d6             	mov    %cr2,%rsi
  101ac5:	e9 b6 fe ff ff       	jmp    101980 <glue>

0000000000101aca <irq_entry_20>:
  101aca:	57                   	push   %rdi
  101acb:	57                   	push   %rdi
  101acc:	56                   	push   %rsi
  101acd:	bf 14 00 00 00       	mov    $0x14,%edi
  101ad2:	0f 20 d6             	mov    %cr2,%rsi
  101ad5:	e9 a6 fe ff ff       	jmp    101980 <glue>

0000000000101ada <irq_entry_21>:
  101ada:	57                   	push   %rdi
  101adb:	57                   	push   %rdi
  101adc:	56                   	push   %rsi
  101add:	bf 15 00 00 00       	mov    $0x15,%edi
  101ae2:	0f 20 d6             	mov    %cr2,%rsi
  101ae5:	e9 96 fe ff ff       	jmp    101980 <glue>

0000000000101aea <irq_entry_22>:
  101aea:	57                   	push   %rdi
  101aeb:	57                   	push   %rdi
  101aec:	56                   	push   %rsi
  101aed:	bf 16 00 00 00       	mov    $0x16,%edi
  101af2:	0f 20 d6             	mov    %cr2,%rsi
  101af5:	e9 86 fe ff ff       	jmp    101980 <glue>

0000000000101afa <irq_entry_23>:
  101afa:	57                   	push   %rdi
  101afb:	57                   	push   %rdi
  101afc:	56                   	push   %rsi
  101afd:	bf 17 00 00 00       	mov    $0x17,%edi
  101b02:	0f 20 d6             	mov    %cr2,%rsi
  101b05:	e9 76 fe ff ff       	jmp    101980 <glue>

0000000000101b0a <irq_entry_24>:
  101b0a:	57                   	push   %rdi
  101b0b:	57                   	push   %rdi
  101b0c:	56                   	push   %rsi
  101b0d:	bf 18 00 00 00       	mov    $0x18,%edi
  101b12:	0f 20 d6             	mov    %cr2,%rsi
  101b15:	e9 66 fe ff ff       	jmp    101980 <glue>

0000000000101b1a <irq_entry_25>:
  101b1a:	57                   	push   %rdi
  101b1b:	57                   	push   %rdi
  101b1c:	56                   	push   %rsi
  101b1d:	bf 19 00 00 00       	mov    $0x19,%edi
  101b22:	0f 20 d6             	mov    %cr2,%rsi
  101b25:	e9 56 fe ff ff       	jmp    101980 <glue>

0000000000101b2a <irq_entry_26>:
  101b2a:	57                   	push   %rdi
  101b2b:	57                   	push   %rdi
  101b2c:	56                   	push   %rsi
  101b2d:	bf 1a 00 00 00       	mov    $0x1a,%edi
  101b32:	0f 20 d6             	mov    %cr2,%rsi
  101b35:	e9 46 fe ff ff       	jmp    101980 <glue>

0000000000101b3a <irq_entry_27>:
  101b3a:	57                   	push   %rdi
  101b3b:	57                   	push   %rdi
  101b3c:	56                   	push   %rsi
  101b3d:	bf 1b 00 00 00       	mov    $0x1b,%edi
  101b42:	0f 20 d6             	mov    %cr2,%rsi
  101b45:	e9 36 fe ff ff       	jmp    101980 <glue>

0000000000101b4a <irq_entry_28>:
  101b4a:	57                   	push   %rdi
  101b4b:	57                   	push   %rdi
  101b4c:	56                   	push   %rsi
  101b4d:	bf 1c 00 00 00       	mov    $0x1c,%edi
  101b52:	0f 20 d6             	mov    %cr2,%rsi
  101b55:	e9 26 fe ff ff       	jmp    101980 <glue>

0000000000101b5a <irq_entry_29>:
  101b5a:	57                   	push   %rdi
  101b5b:	57                   	push   %rdi
  101b5c:	56                   	push   %rsi
  101b5d:	bf 1d 00 00 00       	mov    $0x1d,%edi
  101b62:	0f 20 d6             	mov    %cr2,%rsi
  101b65:	e9 16 fe ff ff       	jmp    101980 <glue>

0000000000101b6a <irq_entry_30>:
  101b6a:	57                   	push   %rdi
  101b6b:	57                   	push   %rdi
  101b6c:	56                   	push   %rsi
  101b6d:	bf 1e 00 00 00       	mov    $0x1e,%edi
  101b72:	0f 20 d6             	mov    %cr2,%rsi
  101b75:	e9 06 fe ff ff       	jmp    101980 <glue>

0000000000101b7a <irq_entry_31>:
  101b7a:	57                   	push   %rdi
  101b7b:	57                   	push   %rdi
  101b7c:	56                   	push   %rsi
  101b7d:	bf 1f 00 00 00       	mov    $0x1f,%edi
  101b82:	0f 20 d6             	mov    %cr2,%rsi
  101b85:	e9 f6 fd ff ff       	jmp    101980 <glue>

0000000000101b8a <irq_entry_32>:
  101b8a:	57                   	push   %rdi
  101b8b:	57                   	push   %rdi
  101b8c:	56                   	push   %rsi
  101b8d:	bf 20 00 00 00       	mov    $0x20,%edi
  101b92:	0f 20 d6             	mov    %cr2,%rsi
  101b95:	e9 e6 fd ff ff       	jmp    101980 <glue>

0000000000101b9a <irq_entry_33>:
  101b9a:	57                   	push   %rdi
  101b9b:	57                   	push   %rdi
  101b9c:	56                   	push   %rsi
  101b9d:	bf 21 00 00 00       	mov    $0x21,%edi
  101ba2:	0f 20 d6             	mov    %cr2,%rsi
  101ba5:	e9 d6 fd ff ff       	jmp    101980 <glue>

0000000000101baa <irq_entry_34>:
  101baa:	57                   	push   %rdi
  101bab:	57                   	push   %rdi
  101bac:	56                   	push   %rsi
  101bad:	bf 22 00 00 00       	mov    $0x22,%edi
  101bb2:	0f 20 d6             	mov    %cr2,%rsi
  101bb5:	e9 c6 fd ff ff       	jmp    101980 <glue>

0000000000101bba <irq_entry_35>:
  101bba:	57                   	push   %rdi
  101bbb:	57                   	push   %rdi
  101bbc:	56                   	push   %rsi
  101bbd:	bf 23 00 00 00       	mov    $0x23,%edi
  101bc2:	0f 20 d6             	mov    %cr2,%rsi
  101bc5:	e9 b6 fd ff ff       	jmp    101980 <glue>

0000000000101bca <irq_entry_36>:
  101bca:	57                   	push   %rdi
  101bcb:	57                   	push   %rdi
  101bcc:	56                   	push   %rsi
  101bcd:	bf 24 00 00 00       	mov    $0x24,%edi
  101bd2:	0f 20 d6             	mov    %cr2,%rsi
  101bd5:	e9 a6 fd ff ff       	jmp    101980 <glue>

0000000000101bda <irq_entry_37>:
  101bda:	57                   	push   %rdi
  101bdb:	57                   	push   %rdi
  101bdc:	56                   	push   %rsi
  101bdd:	bf 25 00 00 00       	mov    $0x25,%edi
  101be2:	0f 20 d6             	mov    %cr2,%rsi
  101be5:	e9 96 fd ff ff       	jmp    101980 <glue>

0000000000101bea <irq_entry_38>:
  101bea:	57                   	push   %rdi
  101beb:	57                   	push   %rdi
  101bec:	56                   	push   %rsi
  101bed:	bf 26 00 00 00       	mov    $0x26,%edi
  101bf2:	0f 20 d6             	mov    %cr2,%rsi
  101bf5:	e9 86 fd ff ff       	jmp    101980 <glue>

0000000000101bfa <irq_entry_39>:
  101bfa:	57                   	push   %rdi
  101bfb:	57                   	push   %rdi
  101bfc:	56                   	push   %rsi
  101bfd:	bf 27 00 00 00       	mov    $0x27,%edi
  101c02:	0f 20 d6             	mov    %cr2,%rsi
  101c05:	e9 76 fd ff ff       	jmp    101980 <glue>

0000000000101c0a <irq_entry_40>:
  101c0a:	57                   	push   %rdi
  101c0b:	57                   	push   %rdi
  101c0c:	56                   	push   %rsi
  101c0d:	bf 28 00 00 00       	mov    $0x28,%edi
  101c12:	0f 20 d6             	mov    %cr2,%rsi
  101c15:	e9 66 fd ff ff       	jmp    101980 <glue>

0000000000101c1a <irq_entry_41>:
  101c1a:	57                   	push   %rdi
  101c1b:	57                   	push   %rdi
  101c1c:	56                   	push   %rsi
  101c1d:	bf 29 00 00 00       	mov    $0x29,%edi
  101c22:	0f 20 d6             	mov    %cr2,%rsi
  101c25:	e9 56 fd ff ff       	jmp    101980 <glue>

0000000000101c2a <irq_entry_42>:
  101c2a:	57                   	push   %rdi
  101c2b:	57                   	push   %rdi
  101c2c:	56                   	push   %rsi
  101c2d:	bf 2a 00 00 00       	mov    $0x2a,%edi
  101c32:	0f 20 d6             	mov    %cr2,%rsi
  101c35:	e9 46 fd ff ff       	jmp    101980 <glue>

0000000000101c3a <irq_entry_43>:
  101c3a:	57                   	push   %rdi
  101c3b:	57                   	push   %rdi
  101c3c:	56                   	push   %rsi
  101c3d:	bf 2b 00 00 00       	mov    $0x2b,%edi
  101c42:	0f 20 d6             	mov    %cr2,%rsi
  101c45:	e9 36 fd ff ff       	jmp    101980 <glue>

0000000000101c4a <irq_entry_44>:
  101c4a:	57                   	push   %rdi
  101c4b:	57                   	push   %rdi
  101c4c:	56                   	push   %rsi
  101c4d:	bf 2c 00 00 00       	mov    $0x2c,%edi
  101c52:	0f 20 d6             	mov    %cr2,%rsi
  101c55:	e9 26 fd ff ff       	jmp    101980 <glue>

0000000000101c5a <irq_entry_45>:
  101c5a:	57                   	push   %rdi
  101c5b:	57                   	push   %rdi
  101c5c:	56                   	push   %rsi
  101c5d:	bf 2d 00 00 00       	mov    $0x2d,%edi
  101c62:	0f 20 d6             	mov    %cr2,%rsi
  101c65:	e9 16 fd ff ff       	jmp    101980 <glue>

0000000000101c6a <irq_entry_46>:
  101c6a:	57                   	push   %rdi
  101c6b:	57                   	push   %rdi
  101c6c:	56                   	push   %rsi
  101c6d:	bf 2e 00 00 00       	mov    $0x2e,%edi
  101c72:	0f 20 d6             	mov    %cr2,%rsi
  101c75:	e9 06 fd ff ff       	jmp    101980 <glue>

0000000000101c7a <irq_entry_47>:
  101c7a:	57                   	push   %rdi
  101c7b:	57                   	push   %rdi
  101c7c:	56                   	push   %rsi
  101c7d:	bf 2f 00 00 00       	mov    $0x2f,%edi
  101c82:	0f 20 d6             	mov    %cr2,%rsi
  101c85:	e9 f6 fc ff ff       	jmp    101980 <glue>

0000000000101c8a <irq_entry_48>:
  101c8a:	57                   	push   %rdi
  101c8b:	57                   	push   %rdi
  101c8c:	56                   	push   %rsi
  101c8d:	bf 30 00 00 00       	mov    $0x30,%edi
  101c92:	0f 20 d6             	mov    %cr2,%rsi
  101c95:	e9 e6 fc ff ff       	jmp    101980 <glue>

0000000000101c9a <irq_entry_49>:
  101c9a:	57                   	push   %rdi
  101c9b:	57                   	push   %rdi
  101c9c:	56                   	push   %rsi
  101c9d:	bf 31 00 00 00       	mov    $0x31,%edi
  101ca2:	0f 20 d6             	mov    %cr2,%rsi
  101ca5:	e9 d6 fc ff ff       	jmp    101980 <glue>

0000000000101caa <irq_entry_50>:
  101caa:	57                   	push   %rdi
  101cab:	57                   	push   %rdi
  101cac:	56                   	push   %rsi
  101cad:	bf 32 00 00 00       	mov    $0x32,%edi
  101cb2:	0f 20 d6             	mov    %cr2,%rsi
  101cb5:	e9 c6 fc ff ff       	jmp    101980 <glue>

0000000000101cba <irq_entry_51>:
  101cba:	57                   	push   %rdi
  101cbb:	57                   	push   %rdi
  101cbc:	56                   	push   %rsi
  101cbd:	bf 33 00 00 00       	mov    $0x33,%edi
  101cc2:	0f 20 d6             	mov    %cr2,%rsi
  101cc5:	e9 b6 fc ff ff       	jmp    101980 <glue>

0000000000101cca <irq_entry_52>:
  101cca:	57                   	push   %rdi
  101ccb:	57                   	push   %rdi
  101ccc:	56                   	push   %rsi
  101ccd:	bf 34 00 00 00       	mov    $0x34,%edi
  101cd2:	0f 20 d6             	mov    %cr2,%rsi
  101cd5:	e9 a6 fc ff ff       	jmp    101980 <glue>

0000000000101cda <irq_entry_53>:
  101cda:	57                   	push   %rdi
  101cdb:	57                   	push   %rdi
  101cdc:	56                   	push   %rsi
  101cdd:	bf 35 00 00 00       	mov    $0x35,%edi
  101ce2:	0f 20 d6             	mov    %cr2,%rsi
  101ce5:	e9 96 fc ff ff       	jmp    101980 <glue>

0000000000101cea <irq_entry_54>:
  101cea:	57                   	push   %rdi
  101ceb:	57                   	push   %rdi
  101cec:	56                   	push   %rsi
  101ced:	bf 36 00 00 00       	mov    $0x36,%edi
  101cf2:	0f 20 d6             	mov    %cr2,%rsi
  101cf5:	e9 86 fc ff ff       	jmp    101980 <glue>

0000000000101cfa <irq_entry_55>:
  101cfa:	57                   	push   %rdi
  101cfb:	57                   	push   %rdi
  101cfc:	56                   	push   %rsi
  101cfd:	bf 37 00 00 00       	mov    $0x37,%edi
  101d02:	0f 20 d6             	mov    %cr2,%rsi
  101d05:	e9 76 fc ff ff       	jmp    101980 <glue>

0000000000101d0a <irq_entry_56>:
  101d0a:	57                   	push   %rdi
  101d0b:	57                   	push   %rdi
  101d0c:	56                   	push   %rsi
  101d0d:	bf 38 00 00 00       	mov    $0x38,%edi
  101d12:	0f 20 d6             	mov    %cr2,%rsi
  101d15:	e9 66 fc ff ff       	jmp    101980 <glue>

0000000000101d1a <irq_entry_57>:
  101d1a:	57                   	push   %rdi
  101d1b:	57                   	push   %rdi
  101d1c:	56                   	push   %rsi
  101d1d:	bf 39 00 00 00       	mov    $0x39,%edi
  101d22:	0f 20 d6             	mov    %cr2,%rsi
  101d25:	e9 56 fc ff ff       	jmp    101980 <glue>

0000000000101d2a <irq_entry_58>:
  101d2a:	57                   	push   %rdi
  101d2b:	57                   	push   %rdi
  101d2c:	56                   	push   %rsi
  101d2d:	bf 3a 00 00 00       	mov    $0x3a,%edi
  101d32:	0f 20 d6             	mov    %cr2,%rsi
  101d35:	e9 46 fc ff ff       	jmp    101980 <glue>

0000000000101d3a <irq_entry_59>:
  101d3a:	57                   	push   %rdi
  101d3b:	57                   	push   %rdi
  101d3c:	56                   	push   %rsi
  101d3d:	bf 3b 00 00 00       	mov    $0x3b,%edi
  101d42:	0f 20 d6             	mov    %cr2,%rsi
  101d45:	e9 36 fc ff ff       	jmp    101980 <glue>

0000000000101d4a <irq_entry_60>:
  101d4a:	57                   	push   %rdi
  101d4b:	57                   	push   %rdi
  101d4c:	56                   	push   %rsi
  101d4d:	bf 3c 00 00 00       	mov    $0x3c,%edi
  101d52:	0f 20 d6             	mov    %cr2,%rsi
  101d55:	e9 26 fc ff ff       	jmp    101980 <glue>

0000000000101d5a <irq_entry_61>:
  101d5a:	57                   	push   %rdi
  101d5b:	57                   	push   %rdi
  101d5c:	56                   	push   %rsi
  101d5d:	bf 3d 00 00 00       	mov    $0x3d,%edi
  101d62:	0f 20 d6             	mov    %cr2,%rsi
  101d65:	e9 16 fc ff ff       	jmp    101980 <glue>

0000000000101d6a <irq_entry_62>:
  101d6a:	57                   	push   %rdi
  101d6b:	57                   	push   %rdi
  101d6c:	56                   	push   %rsi
  101d6d:	bf 3e 00 00 00       	mov    $0x3e,%edi
  101d72:	0f 20 d6             	mov    %cr2,%rsi
  101d75:	e9 06 fc ff ff       	jmp    101980 <glue>

0000000000101d7a <irq_entry_63>:
  101d7a:	57                   	push   %rdi
  101d7b:	57                   	push   %rdi
  101d7c:	56                   	push   %rsi
  101d7d:	bf 3f 00 00 00       	mov    $0x3f,%edi
  101d82:	0f 20 d6             	mov    %cr2,%rsi
  101d85:	e9 f6 fb ff ff       	jmp    101980 <glue>

0000000000101d8a <irq_entry_64>:
  101d8a:	57                   	push   %rdi
  101d8b:	57                   	push   %rdi
  101d8c:	56                   	push   %rsi
  101d8d:	bf 40 00 00 00       	mov    $0x40,%edi
  101d92:	0f 20 d6             	mov    %cr2,%rsi
  101d95:	e9 e6 fb ff ff       	jmp    101980 <glue>

0000000000101d9a <irq_entry_65>:
  101d9a:	57                   	push   %rdi
  101d9b:	57                   	push   %rdi
  101d9c:	56                   	push   %rsi
  101d9d:	bf 41 00 00 00       	mov    $0x41,%edi
  101da2:	0f 20 d6             	mov    %cr2,%rsi
  101da5:	e9 d6 fb ff ff       	jmp    101980 <glue>

0000000000101daa <irq_entry_66>:
  101daa:	57                   	push   %rdi
  101dab:	57                   	push   %rdi
  101dac:	56                   	push   %rsi
  101dad:	bf 42 00 00 00       	mov    $0x42,%edi
  101db2:	0f 20 d6             	mov    %cr2,%rsi
  101db5:	e9 c6 fb ff ff       	jmp    101980 <glue>

0000000000101dba <irq_entry_67>:
  101dba:	57                   	push   %rdi
  101dbb:	57                   	push   %rdi
  101dbc:	56                   	push   %rsi
  101dbd:	bf 43 00 00 00       	mov    $0x43,%edi
  101dc2:	0f 20 d6             	mov    %cr2,%rsi
  101dc5:	e9 b6 fb ff ff       	jmp    101980 <glue>

0000000000101dca <irq_entry_68>:
  101dca:	57                   	push   %rdi
  101dcb:	57                   	push   %rdi
  101dcc:	56                   	push   %rsi
  101dcd:	bf 44 00 00 00       	mov    $0x44,%edi
  101dd2:	0f 20 d6             	mov    %cr2,%rsi
  101dd5:	e9 a6 fb ff ff       	jmp    101980 <glue>

0000000000101dda <irq_entry_69>:
  101dda:	57                   	push   %rdi
  101ddb:	57                   	push   %rdi
  101ddc:	56                   	push   %rsi
  101ddd:	bf 45 00 00 00       	mov    $0x45,%edi
  101de2:	0f 20 d6             	mov    %cr2,%rsi
  101de5:	e9 96 fb ff ff       	jmp    101980 <glue>

0000000000101dea <irq_entry_70>:
  101dea:	57                   	push   %rdi
  101deb:	57                   	push   %rdi
  101dec:	56                   	push   %rsi
  101ded:	bf 46 00 00 00       	mov    $0x46,%edi
  101df2:	0f 20 d6             	mov    %cr2,%rsi
  101df5:	e9 86 fb ff ff       	jmp    101980 <glue>

0000000000101dfa <irq_entry_71>:
  101dfa:	57                   	push   %rdi
  101dfb:	57                   	push   %rdi
  101dfc:	56                   	push   %rsi
  101dfd:	bf 47 00 00 00       	mov    $0x47,%edi
  101e02:	0f 20 d6             	mov    %cr2,%rsi
  101e05:	e9 76 fb ff ff       	jmp    101980 <glue>

0000000000101e0a <irq_entry_72>:
  101e0a:	57                   	push   %rdi
  101e0b:	57                   	push   %rdi
  101e0c:	56                   	push   %rsi
  101e0d:	bf 48 00 00 00       	mov    $0x48,%edi
  101e12:	0f 20 d6             	mov    %cr2,%rsi
  101e15:	e9 66 fb ff ff       	jmp    101980 <glue>

0000000000101e1a <irq_entry_73>:
  101e1a:	57                   	push   %rdi
  101e1b:	57                   	push   %rdi
  101e1c:	56                   	push   %rsi
  101e1d:	bf 49 00 00 00       	mov    $0x49,%edi
  101e22:	0f 20 d6             	mov    %cr2,%rsi
  101e25:	e9 56 fb ff ff       	jmp    101980 <glue>

0000000000101e2a <irq_entry_74>:
  101e2a:	57                   	push   %rdi
  101e2b:	57                   	push   %rdi
  101e2c:	56                   	push   %rsi
  101e2d:	bf 4a 00 00 00       	mov    $0x4a,%edi
  101e32:	0f 20 d6             	mov    %cr2,%rsi
  101e35:	e9 46 fb ff ff       	jmp    101980 <glue>

0000000000101e3a <irq_entry_75>:
  101e3a:	57                   	push   %rdi
  101e3b:	57                   	push   %rdi
  101e3c:	56                   	push   %rsi
  101e3d:	bf 4b 00 00 00       	mov    $0x4b,%edi
  101e42:	0f 20 d6             	mov    %cr2,%rsi
  101e45:	e9 36 fb ff ff       	jmp    101980 <glue>

0000000000101e4a <irq_entry_76>:
  101e4a:	57                   	push   %rdi
  101e4b:	57                   	push   %rdi
  101e4c:	56                   	push   %rsi
  101e4d:	bf 4c 00 00 00       	mov    $0x4c,%edi
  101e52:	0f 20 d6             	mov    %cr2,%rsi
  101e55:	e9 26 fb ff ff       	jmp    101980 <glue>

0000000000101e5a <irq_entry_77>:
  101e5a:	57                   	push   %rdi
  101e5b:	57                   	push   %rdi
  101e5c:	56                   	push   %rsi
  101e5d:	bf 4d 00 00 00       	mov    $0x4d,%edi
  101e62:	0f 20 d6             	mov    %cr2,%rsi
  101e65:	e9 16 fb ff ff       	jmp    101980 <glue>

0000000000101e6a <irq_entry_78>:
  101e6a:	57                   	push   %rdi
  101e6b:	57                   	push   %rdi
  101e6c:	56                   	push   %rsi
  101e6d:	bf 4e 00 00 00       	mov    $0x4e,%edi
  101e72:	0f 20 d6             	mov    %cr2,%rsi
  101e75:	e9 06 fb ff ff       	jmp    101980 <glue>

0000000000101e7a <irq_entry_79>:
  101e7a:	57                   	push   %rdi
  101e7b:	57                   	push   %rdi
  101e7c:	56                   	push   %rsi
  101e7d:	bf 4f 00 00 00       	mov    $0x4f,%edi
  101e82:	0f 20 d6             	mov    %cr2,%rsi
  101e85:	e9 f6 fa ff ff       	jmp    101980 <glue>

0000000000101e8a <irq_entry_80>:
  101e8a:	57                   	push   %rdi
  101e8b:	57                   	push   %rdi
  101e8c:	56                   	push   %rsi
  101e8d:	bf 50 00 00 00       	mov    $0x50,%edi
  101e92:	0f 20 d6             	mov    %cr2,%rsi
  101e95:	e9 e6 fa ff ff       	jmp    101980 <glue>

0000000000101e9a <irq_entry_81>:
  101e9a:	57                   	push   %rdi
  101e9b:	57                   	push   %rdi
  101e9c:	56                   	push   %rsi
  101e9d:	bf 51 00 00 00       	mov    $0x51,%edi
  101ea2:	0f 20 d6             	mov    %cr2,%rsi
  101ea5:	e9 d6 fa ff ff       	jmp    101980 <glue>

0000000000101eaa <irq_entry_82>:
  101eaa:	57                   	push   %rdi
  101eab:	57                   	push   %rdi
  101eac:	56                   	push   %rsi
  101ead:	bf 52 00 00 00       	mov    $0x52,%edi
  101eb2:	0f 20 d6             	mov    %cr2,%rsi
  101eb5:	e9 c6 fa ff ff       	jmp    101980 <glue>

0000000000101eba <irq_entry_83>:
  101eba:	57                   	push   %rdi
  101ebb:	57                   	push   %rdi
  101ebc:	56                   	push   %rsi
  101ebd:	bf 53 00 00 00       	mov    $0x53,%edi
  101ec2:	0f 20 d6             	mov    %cr2,%rsi
  101ec5:	e9 b6 fa ff ff       	jmp    101980 <glue>

0000000000101eca <irq_entry_84>:
  101eca:	57                   	push   %rdi
  101ecb:	57                   	push   %rdi
  101ecc:	56                   	push   %rsi
  101ecd:	bf 54 00 00 00       	mov    $0x54,%edi
  101ed2:	0f 20 d6             	mov    %cr2,%rsi
  101ed5:	e9 a6 fa ff ff       	jmp    101980 <glue>

0000000000101eda <irq_entry_85>:
  101eda:	57                   	push   %rdi
  101edb:	57                   	push   %rdi
  101edc:	56                   	push   %rsi
  101edd:	bf 55 00 00 00       	mov    $0x55,%edi
  101ee2:	0f 20 d6             	mov    %cr2,%rsi
  101ee5:	e9 96 fa ff ff       	jmp    101980 <glue>

0000000000101eea <irq_entry_86>:
  101eea:	57                   	push   %rdi
  101eeb:	57                   	push   %rdi
  101eec:	56                   	push   %rsi
  101eed:	bf 56 00 00 00       	mov    $0x56,%edi
  101ef2:	0f 20 d6             	mov    %cr2,%rsi
  101ef5:	e9 86 fa ff ff       	jmp    101980 <glue>

0000000000101efa <irq_entry_87>:
  101efa:	57                   	push   %rdi
  101efb:	57                   	push   %rdi
  101efc:	56                   	push   %rsi
  101efd:	bf 57 00 00 00       	mov    $0x57,%edi
  101f02:	0f 20 d6             	mov    %cr2,%rsi
  101f05:	e9 76 fa ff ff       	jmp    101980 <glue>

0000000000101f0a <irq_entry_88>:
  101f0a:	57                   	push   %rdi
  101f0b:	57                   	push   %rdi
  101f0c:	56                   	push   %rsi
  101f0d:	bf 58 00 00 00       	mov    $0x58,%edi
  101f12:	0f 20 d6             	mov    %cr2,%rsi
  101f15:	e9 66 fa ff ff       	jmp    101980 <glue>

0000000000101f1a <irq_entry_89>:
  101f1a:	57                   	push   %rdi
  101f1b:	57                   	push   %rdi
  101f1c:	56                   	push   %rsi
  101f1d:	bf 59 00 00 00       	mov    $0x59,%edi
  101f22:	0f 20 d6             	mov    %cr2,%rsi
  101f25:	e9 56 fa ff ff       	jmp    101980 <glue>

0000000000101f2a <irq_entry_90>:
  101f2a:	57                   	push   %rdi
  101f2b:	57                   	push   %rdi
  101f2c:	56                   	push   %rsi
  101f2d:	bf 5a 00 00 00       	mov    $0x5a,%edi
  101f32:	0f 20 d6             	mov    %cr2,%rsi
  101f35:	e9 46 fa ff ff       	jmp    101980 <glue>

0000000000101f3a <irq_entry_91>:
  101f3a:	57                   	push   %rdi
  101f3b:	57                   	push   %rdi
  101f3c:	56                   	push   %rsi
  101f3d:	bf 5b 00 00 00       	mov    $0x5b,%edi
  101f42:	0f 20 d6             	mov    %cr2,%rsi
  101f45:	e9 36 fa ff ff       	jmp    101980 <glue>

0000000000101f4a <irq_entry_92>:
  101f4a:	57                   	push   %rdi
  101f4b:	57                   	push   %rdi
  101f4c:	56                   	push   %rsi
  101f4d:	bf 5c 00 00 00       	mov    $0x5c,%edi
  101f52:	0f 20 d6             	mov    %cr2,%rsi
  101f55:	e9 26 fa ff ff       	jmp    101980 <glue>

0000000000101f5a <irq_entry_93>:
  101f5a:	57                   	push   %rdi
  101f5b:	57                   	push   %rdi
  101f5c:	56                   	push   %rsi
  101f5d:	bf 5d 00 00 00       	mov    $0x5d,%edi
  101f62:	0f 20 d6             	mov    %cr2,%rsi
  101f65:	e9 16 fa ff ff       	jmp    101980 <glue>

0000000000101f6a <irq_entry_94>:
  101f6a:	57                   	push   %rdi
  101f6b:	57                   	push   %rdi
  101f6c:	56                   	push   %rsi
  101f6d:	bf 5e 00 00 00       	mov    $0x5e,%edi
  101f72:	0f 20 d6             	mov    %cr2,%rsi
  101f75:	e9 06 fa ff ff       	jmp    101980 <glue>

0000000000101f7a <irq_entry_95>:
  101f7a:	57                   	push   %rdi
  101f7b:	57                   	push   %rdi
  101f7c:	56                   	push   %rsi
  101f7d:	bf 5f 00 00 00       	mov    $0x5f,%edi
  101f82:	0f 20 d6             	mov    %cr2,%rsi
  101f85:	e9 f6 f9 ff ff       	jmp    101980 <glue>

0000000000101f8a <irq_entry_96>:
  101f8a:	57                   	push   %rdi
  101f8b:	57                   	push   %rdi
  101f8c:	56                   	push   %rsi
  101f8d:	bf 60 00 00 00       	mov    $0x60,%edi
  101f92:	0f 20 d6             	mov    %cr2,%rsi
  101f95:	e9 e6 f9 ff ff       	jmp    101980 <glue>

0000000000101f9a <irq_entry_97>:
  101f9a:	57                   	push   %rdi
  101f9b:	57                   	push   %rdi
  101f9c:	56                   	push   %rsi
  101f9d:	bf 61 00 00 00       	mov    $0x61,%edi
  101fa2:	0f 20 d6             	mov    %cr2,%rsi
  101fa5:	e9 d6 f9 ff ff       	jmp    101980 <glue>

0000000000101faa <irq_entry_98>:
  101faa:	57                   	push   %rdi
  101fab:	57                   	push   %rdi
  101fac:	56                   	push   %rsi
  101fad:	bf 62 00 00 00       	mov    $0x62,%edi
  101fb2:	0f 20 d6             	mov    %cr2,%rsi
  101fb5:	e9 c6 f9 ff ff       	jmp    101980 <glue>

0000000000101fba <irq_entry_99>:
  101fba:	57                   	push   %rdi
  101fbb:	57                   	push   %rdi
  101fbc:	56                   	push   %rsi
  101fbd:	bf 63 00 00 00       	mov    $0x63,%edi
  101fc2:	0f 20 d6             	mov    %cr2,%rsi
  101fc5:	e9 b6 f9 ff ff       	jmp    101980 <glue>

0000000000101fca <irq_entry_100>:
  101fca:	57                   	push   %rdi
  101fcb:	57                   	push   %rdi
  101fcc:	56                   	push   %rsi
  101fcd:	bf 64 00 00 00       	mov    $0x64,%edi
  101fd2:	0f 20 d6             	mov    %cr2,%rsi
  101fd5:	e9 a6 f9 ff ff       	jmp    101980 <glue>

0000000000101fda <irq_entry_101>:
  101fda:	57                   	push   %rdi
  101fdb:	57                   	push   %rdi
  101fdc:	56                   	push   %rsi
  101fdd:	bf 65 00 00 00       	mov    $0x65,%edi
  101fe2:	0f 20 d6             	mov    %cr2,%rsi
  101fe5:	e9 96 f9 ff ff       	jmp    101980 <glue>

0000000000101fea <irq_entry_102>:
  101fea:	57                   	push   %rdi
  101feb:	57                   	push   %rdi
  101fec:	56                   	push   %rsi
  101fed:	bf 66 00 00 00       	mov    $0x66,%edi
  101ff2:	0f 20 d6             	mov    %cr2,%rsi
  101ff5:	e9 86 f9 ff ff       	jmp    101980 <glue>

0000000000101ffa <irq_entry_103>:
  101ffa:	57                   	push   %rdi
  101ffb:	57                   	push   %rdi
  101ffc:	56                   	push   %rsi
  101ffd:	bf 67 00 00 00       	mov    $0x67,%edi
  102002:	0f 20 d6             	mov    %cr2,%rsi
  102005:	e9 76 f9 ff ff       	jmp    101980 <glue>

000000000010200a <irq_entry_104>:
  10200a:	57                   	push   %rdi
  10200b:	57                   	push   %rdi
  10200c:	56                   	push   %rsi
  10200d:	bf 68 00 00 00       	mov    $0x68,%edi
  102012:	0f 20 d6             	mov    %cr2,%rsi
  102015:	e9 66 f9 ff ff       	jmp    101980 <glue>

000000000010201a <irq_entry_105>:
  10201a:	57                   	push   %rdi
  10201b:	57                   	push   %rdi
  10201c:	56                   	push   %rsi
  10201d:	bf 69 00 00 00       	mov    $0x69,%edi
  102022:	0f 20 d6             	mov    %cr2,%rsi
  102025:	e9 56 f9 ff ff       	jmp    101980 <glue>

000000000010202a <irq_entry_106>:
  10202a:	57                   	push   %rdi
  10202b:	57                   	push   %rdi
  10202c:	56                   	push   %rsi
  10202d:	bf 6a 00 00 00       	mov    $0x6a,%edi
  102032:	0f 20 d6             	mov    %cr2,%rsi
  102035:	e9 46 f9 ff ff       	jmp    101980 <glue>

000000000010203a <irq_entry_107>:
  10203a:	57                   	push   %rdi
  10203b:	57                   	push   %rdi
  10203c:	56                   	push   %rsi
  10203d:	bf 6b 00 00 00       	mov    $0x6b,%edi
  102042:	0f 20 d6             	mov    %cr2,%rsi
  102045:	e9 36 f9 ff ff       	jmp    101980 <glue>

000000000010204a <irq_entry_108>:
  10204a:	57                   	push   %rdi
  10204b:	57                   	push   %rdi
  10204c:	56                   	push   %rsi
  10204d:	bf 6c 00 00 00       	mov    $0x6c,%edi
  102052:	0f 20 d6             	mov    %cr2,%rsi
  102055:	e9 26 f9 ff ff       	jmp    101980 <glue>

000000000010205a <irq_entry_109>:
  10205a:	57                   	push   %rdi
  10205b:	57                   	push   %rdi
  10205c:	56                   	push   %rsi
  10205d:	bf 6d 00 00 00       	mov    $0x6d,%edi
  102062:	0f 20 d6             	mov    %cr2,%rsi
  102065:	e9 16 f9 ff ff       	jmp    101980 <glue>

000000000010206a <irq_entry_110>:
  10206a:	57                   	push   %rdi
  10206b:	57                   	push   %rdi
  10206c:	56                   	push   %rsi
  10206d:	bf 6e 00 00 00       	mov    $0x6e,%edi
  102072:	0f 20 d6             	mov    %cr2,%rsi
  102075:	e9 06 f9 ff ff       	jmp    101980 <glue>

000000000010207a <irq_entry_111>:
  10207a:	57                   	push   %rdi
  10207b:	57                   	push   %rdi
  10207c:	56                   	push   %rsi
  10207d:	bf 6f 00 00 00       	mov    $0x6f,%edi
  102082:	0f 20 d6             	mov    %cr2,%rsi
  102085:	e9 f6 f8 ff ff       	jmp    101980 <glue>

000000000010208a <irq_entry_112>:
  10208a:	57                   	push   %rdi
  10208b:	57                   	push   %rdi
  10208c:	56                   	push   %rsi
  10208d:	bf 70 00 00 00       	mov    $0x70,%edi
  102092:	0f 20 d6             	mov    %cr2,%rsi
  102095:	e9 e6 f8 ff ff       	jmp    101980 <glue>

000000000010209a <irq_entry_113>:
  10209a:	57                   	push   %rdi
  10209b:	57                   	push   %rdi
  10209c:	56                   	push   %rsi
  10209d:	bf 71 00 00 00       	mov    $0x71,%edi
  1020a2:	0f 20 d6             	mov    %cr2,%rsi
  1020a5:	e9 d6 f8 ff ff       	jmp    101980 <glue>

00000000001020aa <irq_entry_114>:
  1020aa:	57                   	push   %rdi
  1020ab:	57                   	push   %rdi
  1020ac:	56                   	push   %rsi
  1020ad:	bf 72 00 00 00       	mov    $0x72,%edi
  1020b2:	0f 20 d6             	mov    %cr2,%rsi
  1020b5:	e9 c6 f8 ff ff       	jmp    101980 <glue>

00000000001020ba <irq_entry_115>:
  1020ba:	57                   	push   %rdi
  1020bb:	57                   	push   %rdi
  1020bc:	56                   	push   %rsi
  1020bd:	bf 73 00 00 00       	mov    $0x73,%edi
  1020c2:	0f 20 d6             	mov    %cr2,%rsi
  1020c5:	e9 b6 f8 ff ff       	jmp    101980 <glue>

00000000001020ca <irq_entry_116>:
  1020ca:	57                   	push   %rdi
  1020cb:	57                   	push   %rdi
  1020cc:	56                   	push   %rsi
  1020cd:	bf 74 00 00 00       	mov    $0x74,%edi
  1020d2:	0f 20 d6             	mov    %cr2,%rsi
  1020d5:	e9 a6 f8 ff ff       	jmp    101980 <glue>

00000000001020da <irq_entry_117>:
  1020da:	57                   	push   %rdi
  1020db:	57                   	push   %rdi
  1020dc:	56                   	push   %rsi
  1020dd:	bf 75 00 00 00       	mov    $0x75,%edi
  1020e2:	0f 20 d6             	mov    %cr2,%rsi
  1020e5:	e9 96 f8 ff ff       	jmp    101980 <glue>

00000000001020ea <irq_entry_118>:
  1020ea:	57                   	push   %rdi
  1020eb:	57                   	push   %rdi
  1020ec:	56                   	push   %rsi
  1020ed:	bf 76 00 00 00       	mov    $0x76,%edi
  1020f2:	0f 20 d6             	mov    %cr2,%rsi
  1020f5:	e9 86 f8 ff ff       	jmp    101980 <glue>

00000000001020fa <irq_entry_119>:
  1020fa:	57                   	push   %rdi
  1020fb:	57                   	push   %rdi
  1020fc:	56                   	push   %rsi
  1020fd:	bf 77 00 00 00       	mov    $0x77,%edi
  102102:	0f 20 d6             	mov    %cr2,%rsi
  102105:	e9 76 f8 ff ff       	jmp    101980 <glue>

000000000010210a <irq_entry_120>:
  10210a:	57                   	push   %rdi
  10210b:	57                   	push   %rdi
  10210c:	56                   	push   %rsi
  10210d:	bf 78 00 00 00       	mov    $0x78,%edi
  102112:	0f 20 d6             	mov    %cr2,%rsi
  102115:	e9 66 f8 ff ff       	jmp    101980 <glue>

000000000010211a <irq_entry_121>:
  10211a:	57                   	push   %rdi
  10211b:	57                   	push   %rdi
  10211c:	56                   	push   %rsi
  10211d:	bf 79 00 00 00       	mov    $0x79,%edi
  102122:	0f 20 d6             	mov    %cr2,%rsi
  102125:	e9 56 f8 ff ff       	jmp    101980 <glue>

000000000010212a <irq_entry_122>:
  10212a:	57                   	push   %rdi
  10212b:	57                   	push   %rdi
  10212c:	56                   	push   %rsi
  10212d:	bf 7a 00 00 00       	mov    $0x7a,%edi
  102132:	0f 20 d6             	mov    %cr2,%rsi
  102135:	e9 46 f8 ff ff       	jmp    101980 <glue>

000000000010213a <irq_entry_123>:
  10213a:	57                   	push   %rdi
  10213b:	57                   	push   %rdi
  10213c:	56                   	push   %rsi
  10213d:	bf 7b 00 00 00       	mov    $0x7b,%edi
  102142:	0f 20 d6             	mov    %cr2,%rsi
  102145:	e9 36 f8 ff ff       	jmp    101980 <glue>

000000000010214a <irq_entry_124>:
  10214a:	57                   	push   %rdi
  10214b:	57                   	push   %rdi
  10214c:	56                   	push   %rsi
  10214d:	bf 7c 00 00 00       	mov    $0x7c,%edi
  102152:	0f 20 d6             	mov    %cr2,%rsi
  102155:	e9 26 f8 ff ff       	jmp    101980 <glue>

000000000010215a <irq_entry_125>:
  10215a:	57                   	push   %rdi
  10215b:	57                   	push   %rdi
  10215c:	56                   	push   %rsi
  10215d:	bf 7d 00 00 00       	mov    $0x7d,%edi
  102162:	0f 20 d6             	mov    %cr2,%rsi
  102165:	e9 16 f8 ff ff       	jmp    101980 <glue>

000000000010216a <irq_entry_126>:
  10216a:	57                   	push   %rdi
  10216b:	57                   	push   %rdi
  10216c:	56                   	push   %rsi
  10216d:	bf 7e 00 00 00       	mov    $0x7e,%edi
  102172:	0f 20 d6             	mov    %cr2,%rsi
  102175:	e9 06 f8 ff ff       	jmp    101980 <glue>

000000000010217a <irq_entry_127>:
  10217a:	57                   	push   %rdi
  10217b:	57                   	push   %rdi
  10217c:	56                   	push   %rsi
  10217d:	bf 7f 00 00 00       	mov    $0x7f,%edi
  102182:	0f 20 d6             	mov    %cr2,%rsi
  102185:	e9 f6 f7 ff ff       	jmp    101980 <glue>

000000000010218a <irq_entry_128>:
  10218a:	57                   	push   %rdi
  10218b:	57                   	push   %rdi
  10218c:	56                   	push   %rsi
  10218d:	bf 80 00 00 00       	mov    $0x80,%edi
  102192:	0f 20 d6             	mov    %cr2,%rsi
  102195:	e9 e6 f7 ff ff       	jmp    101980 <glue>

000000000010219a <irq_entry_129>:
  10219a:	57                   	push   %rdi
  10219b:	57                   	push   %rdi
  10219c:	56                   	push   %rsi
  10219d:	bf 81 00 00 00       	mov    $0x81,%edi
  1021a2:	0f 20 d6             	mov    %cr2,%rsi
  1021a5:	e9 d6 f7 ff ff       	jmp    101980 <glue>

00000000001021aa <irq_entry_130>:
  1021aa:	57                   	push   %rdi
  1021ab:	57                   	push   %rdi
  1021ac:	56                   	push   %rsi
  1021ad:	bf 82 00 00 00       	mov    $0x82,%edi
  1021b2:	0f 20 d6             	mov    %cr2,%rsi
  1021b5:	e9 c6 f7 ff ff       	jmp    101980 <glue>

00000000001021ba <irq_entry_131>:
  1021ba:	57                   	push   %rdi
  1021bb:	57                   	push   %rdi
  1021bc:	56                   	push   %rsi
  1021bd:	bf 83 00 00 00       	mov    $0x83,%edi
  1021c2:	0f 20 d6             	mov    %cr2,%rsi
  1021c5:	e9 b6 f7 ff ff       	jmp    101980 <glue>

00000000001021ca <irq_entry_132>:
  1021ca:	57                   	push   %rdi
  1021cb:	57                   	push   %rdi
  1021cc:	56                   	push   %rsi
  1021cd:	bf 84 00 00 00       	mov    $0x84,%edi
  1021d2:	0f 20 d6             	mov    %cr2,%rsi
  1021d5:	e9 a6 f7 ff ff       	jmp    101980 <glue>

00000000001021da <irq_entry_133>:
  1021da:	57                   	push   %rdi
  1021db:	57                   	push   %rdi
  1021dc:	56                   	push   %rsi
  1021dd:	bf 85 00 00 00       	mov    $0x85,%edi
  1021e2:	0f 20 d6             	mov    %cr2,%rsi
  1021e5:	e9 96 f7 ff ff       	jmp    101980 <glue>

00000000001021ea <irq_entry_134>:
  1021ea:	57                   	push   %rdi
  1021eb:	57                   	push   %rdi
  1021ec:	56                   	push   %rsi
  1021ed:	bf 86 00 00 00       	mov    $0x86,%edi
  1021f2:	0f 20 d6             	mov    %cr2,%rsi
  1021f5:	e9 86 f7 ff ff       	jmp    101980 <glue>

00000000001021fa <irq_entry_135>:
  1021fa:	57                   	push   %rdi
  1021fb:	57                   	push   %rdi
  1021fc:	56                   	push   %rsi
  1021fd:	bf 87 00 00 00       	mov    $0x87,%edi
  102202:	0f 20 d6             	mov    %cr2,%rsi
  102205:	e9 76 f7 ff ff       	jmp    101980 <glue>

000000000010220a <irq_entry_136>:
  10220a:	57                   	push   %rdi
  10220b:	57                   	push   %rdi
  10220c:	56                   	push   %rsi
  10220d:	bf 88 00 00 00       	mov    $0x88,%edi
  102212:	0f 20 d6             	mov    %cr2,%rsi
  102215:	e9 66 f7 ff ff       	jmp    101980 <glue>

000000000010221a <irq_entry_137>:
  10221a:	57                   	push   %rdi
  10221b:	57                   	push   %rdi
  10221c:	56                   	push   %rsi
  10221d:	bf 89 00 00 00       	mov    $0x89,%edi
  102222:	0f 20 d6             	mov    %cr2,%rsi
  102225:	e9 56 f7 ff ff       	jmp    101980 <glue>

000000000010222a <irq_entry_138>:
  10222a:	57                   	push   %rdi
  10222b:	57                   	push   %rdi
  10222c:	56                   	push   %rsi
  10222d:	bf 8a 00 00 00       	mov    $0x8a,%edi
  102232:	0f 20 d6             	mov    %cr2,%rsi
  102235:	e9 46 f7 ff ff       	jmp    101980 <glue>

000000000010223a <irq_entry_139>:
  10223a:	57                   	push   %rdi
  10223b:	57                   	push   %rdi
  10223c:	56                   	push   %rsi
  10223d:	bf 8b 00 00 00       	mov    $0x8b,%edi
  102242:	0f 20 d6             	mov    %cr2,%rsi
  102245:	e9 36 f7 ff ff       	jmp    101980 <glue>

000000000010224a <irq_entry_140>:
  10224a:	57                   	push   %rdi
  10224b:	57                   	push   %rdi
  10224c:	56                   	push   %rsi
  10224d:	bf 8c 00 00 00       	mov    $0x8c,%edi
  102252:	0f 20 d6             	mov    %cr2,%rsi
  102255:	e9 26 f7 ff ff       	jmp    101980 <glue>

000000000010225a <irq_entry_141>:
  10225a:	57                   	push   %rdi
  10225b:	57                   	push   %rdi
  10225c:	56                   	push   %rsi
  10225d:	bf 8d 00 00 00       	mov    $0x8d,%edi
  102262:	0f 20 d6             	mov    %cr2,%rsi
  102265:	e9 16 f7 ff ff       	jmp    101980 <glue>

000000000010226a <irq_entry_142>:
  10226a:	57                   	push   %rdi
  10226b:	57                   	push   %rdi
  10226c:	56                   	push   %rsi
  10226d:	bf 8e 00 00 00       	mov    $0x8e,%edi
  102272:	0f 20 d6             	mov    %cr2,%rsi
  102275:	e9 06 f7 ff ff       	jmp    101980 <glue>

000000000010227a <irq_entry_143>:
  10227a:	57                   	push   %rdi
  10227b:	57                   	push   %rdi
  10227c:	56                   	push   %rsi
  10227d:	bf 8f 00 00 00       	mov    $0x8f,%edi
  102282:	0f 20 d6             	mov    %cr2,%rsi
  102285:	e9 f6 f6 ff ff       	jmp    101980 <glue>

000000000010228a <irq_entry_144>:
  10228a:	57                   	push   %rdi
  10228b:	57                   	push   %rdi
  10228c:	56                   	push   %rsi
  10228d:	bf 90 00 00 00       	mov    $0x90,%edi
  102292:	0f 20 d6             	mov    %cr2,%rsi
  102295:	e9 e6 f6 ff ff       	jmp    101980 <glue>

000000000010229a <irq_entry_145>:
  10229a:	57                   	push   %rdi
  10229b:	57                   	push   %rdi
  10229c:	56                   	push   %rsi
  10229d:	bf 91 00 00 00       	mov    $0x91,%edi
  1022a2:	0f 20 d6             	mov    %cr2,%rsi
  1022a5:	e9 d6 f6 ff ff       	jmp    101980 <glue>

00000000001022aa <irq_entry_146>:
  1022aa:	57                   	push   %rdi
  1022ab:	57                   	push   %rdi
  1022ac:	56                   	push   %rsi
  1022ad:	bf 92 00 00 00       	mov    $0x92,%edi
  1022b2:	0f 20 d6             	mov    %cr2,%rsi
  1022b5:	e9 c6 f6 ff ff       	jmp    101980 <glue>

00000000001022ba <irq_entry_147>:
  1022ba:	57                   	push   %rdi
  1022bb:	57                   	push   %rdi
  1022bc:	56                   	push   %rsi
  1022bd:	bf 93 00 00 00       	mov    $0x93,%edi
  1022c2:	0f 20 d6             	mov    %cr2,%rsi
  1022c5:	e9 b6 f6 ff ff       	jmp    101980 <glue>

00000000001022ca <irq_entry_148>:
  1022ca:	57                   	push   %rdi
  1022cb:	57                   	push   %rdi
  1022cc:	56                   	push   %rsi
  1022cd:	bf 94 00 00 00       	mov    $0x94,%edi
  1022d2:	0f 20 d6             	mov    %cr2,%rsi
  1022d5:	e9 a6 f6 ff ff       	jmp    101980 <glue>

00000000001022da <irq_entry_149>:
  1022da:	57                   	push   %rdi
  1022db:	57                   	push   %rdi
  1022dc:	56                   	push   %rsi
  1022dd:	bf 95 00 00 00       	mov    $0x95,%edi
  1022e2:	0f 20 d6             	mov    %cr2,%rsi
  1022e5:	e9 96 f6 ff ff       	jmp    101980 <glue>

00000000001022ea <irq_entry_150>:
  1022ea:	57                   	push   %rdi
  1022eb:	57                   	push   %rdi
  1022ec:	56                   	push   %rsi
  1022ed:	bf 96 00 00 00       	mov    $0x96,%edi
  1022f2:	0f 20 d6             	mov    %cr2,%rsi
  1022f5:	e9 86 f6 ff ff       	jmp    101980 <glue>

00000000001022fa <irq_entry_151>:
  1022fa:	57                   	push   %rdi
  1022fb:	57                   	push   %rdi
  1022fc:	56                   	push   %rsi
  1022fd:	bf 97 00 00 00       	mov    $0x97,%edi
  102302:	0f 20 d6             	mov    %cr2,%rsi
  102305:	e9 76 f6 ff ff       	jmp    101980 <glue>

000000000010230a <irq_entry_152>:
  10230a:	57                   	push   %rdi
  10230b:	57                   	push   %rdi
  10230c:	56                   	push   %rsi
  10230d:	bf 98 00 00 00       	mov    $0x98,%edi
  102312:	0f 20 d6             	mov    %cr2,%rsi
  102315:	e9 66 f6 ff ff       	jmp    101980 <glue>

000000000010231a <irq_entry_153>:
  10231a:	57                   	push   %rdi
  10231b:	57                   	push   %rdi
  10231c:	56                   	push   %rsi
  10231d:	bf 99 00 00 00       	mov    $0x99,%edi
  102322:	0f 20 d6             	mov    %cr2,%rsi
  102325:	e9 56 f6 ff ff       	jmp    101980 <glue>

000000000010232a <irq_entry_154>:
  10232a:	57                   	push   %rdi
  10232b:	57                   	push   %rdi
  10232c:	56                   	push   %rsi
  10232d:	bf 9a 00 00 00       	mov    $0x9a,%edi
  102332:	0f 20 d6             	mov    %cr2,%rsi
  102335:	e9 46 f6 ff ff       	jmp    101980 <glue>

000000000010233a <irq_entry_155>:
  10233a:	57                   	push   %rdi
  10233b:	57                   	push   %rdi
  10233c:	56                   	push   %rsi
  10233d:	bf 9b 00 00 00       	mov    $0x9b,%edi
  102342:	0f 20 d6             	mov    %cr2,%rsi
  102345:	e9 36 f6 ff ff       	jmp    101980 <glue>

000000000010234a <irq_entry_156>:
  10234a:	57                   	push   %rdi
  10234b:	57                   	push   %rdi
  10234c:	56                   	push   %rsi
  10234d:	bf 9c 00 00 00       	mov    $0x9c,%edi
  102352:	0f 20 d6             	mov    %cr2,%rsi
  102355:	e9 26 f6 ff ff       	jmp    101980 <glue>

000000000010235a <irq_entry_157>:
  10235a:	57                   	push   %rdi
  10235b:	57                   	push   %rdi
  10235c:	56                   	push   %rsi
  10235d:	bf 9d 00 00 00       	mov    $0x9d,%edi
  102362:	0f 20 d6             	mov    %cr2,%rsi
  102365:	e9 16 f6 ff ff       	jmp    101980 <glue>

000000000010236a <irq_entry_158>:
  10236a:	57                   	push   %rdi
  10236b:	57                   	push   %rdi
  10236c:	56                   	push   %rsi
  10236d:	bf 9e 00 00 00       	mov    $0x9e,%edi
  102372:	0f 20 d6             	mov    %cr2,%rsi
  102375:	e9 06 f6 ff ff       	jmp    101980 <glue>

000000000010237a <irq_entry_159>:
  10237a:	57                   	push   %rdi
  10237b:	57                   	push   %rdi
  10237c:	56                   	push   %rsi
  10237d:	bf 9f 00 00 00       	mov    $0x9f,%edi
  102382:	0f 20 d6             	mov    %cr2,%rsi
  102385:	e9 f6 f5 ff ff       	jmp    101980 <glue>

000000000010238a <irq_entry_160>:
  10238a:	57                   	push   %rdi
  10238b:	57                   	push   %rdi
  10238c:	56                   	push   %rsi
  10238d:	bf a0 00 00 00       	mov    $0xa0,%edi
  102392:	0f 20 d6             	mov    %cr2,%rsi
  102395:	e9 e6 f5 ff ff       	jmp    101980 <glue>

000000000010239a <irq_entry_161>:
  10239a:	57                   	push   %rdi
  10239b:	57                   	push   %rdi
  10239c:	56                   	push   %rsi
  10239d:	bf a1 00 00 00       	mov    $0xa1,%edi
  1023a2:	0f 20 d6             	mov    %cr2,%rsi
  1023a5:	e9 d6 f5 ff ff       	jmp    101980 <glue>

00000000001023aa <irq_entry_162>:
  1023aa:	57                   	push   %rdi
  1023ab:	57                   	push   %rdi
  1023ac:	56                   	push   %rsi
  1023ad:	bf a2 00 00 00       	mov    $0xa2,%edi
  1023b2:	0f 20 d6             	mov    %cr2,%rsi
  1023b5:	e9 c6 f5 ff ff       	jmp    101980 <glue>

00000000001023ba <irq_entry_163>:
  1023ba:	57                   	push   %rdi
  1023bb:	57                   	push   %rdi
  1023bc:	56                   	push   %rsi
  1023bd:	bf a3 00 00 00       	mov    $0xa3,%edi
  1023c2:	0f 20 d6             	mov    %cr2,%rsi
  1023c5:	e9 b6 f5 ff ff       	jmp    101980 <glue>

00000000001023ca <irq_entry_164>:
  1023ca:	57                   	push   %rdi
  1023cb:	57                   	push   %rdi
  1023cc:	56                   	push   %rsi
  1023cd:	bf a4 00 00 00       	mov    $0xa4,%edi
  1023d2:	0f 20 d6             	mov    %cr2,%rsi
  1023d5:	e9 a6 f5 ff ff       	jmp    101980 <glue>

00000000001023da <irq_entry_165>:
  1023da:	57                   	push   %rdi
  1023db:	57                   	push   %rdi
  1023dc:	56                   	push   %rsi
  1023dd:	bf a5 00 00 00       	mov    $0xa5,%edi
  1023e2:	0f 20 d6             	mov    %cr2,%rsi
  1023e5:	e9 96 f5 ff ff       	jmp    101980 <glue>

00000000001023ea <irq_entry_166>:
  1023ea:	57                   	push   %rdi
  1023eb:	57                   	push   %rdi
  1023ec:	56                   	push   %rsi
  1023ed:	bf a6 00 00 00       	mov    $0xa6,%edi
  1023f2:	0f 20 d6             	mov    %cr2,%rsi
  1023f5:	e9 86 f5 ff ff       	jmp    101980 <glue>

00000000001023fa <irq_entry_167>:
  1023fa:	57                   	push   %rdi
  1023fb:	57                   	push   %rdi
  1023fc:	56                   	push   %rsi
  1023fd:	bf a7 00 00 00       	mov    $0xa7,%edi
  102402:	0f 20 d6             	mov    %cr2,%rsi
  102405:	e9 76 f5 ff ff       	jmp    101980 <glue>

000000000010240a <irq_entry_168>:
  10240a:	57                   	push   %rdi
  10240b:	57                   	push   %rdi
  10240c:	56                   	push   %rsi
  10240d:	bf a8 00 00 00       	mov    $0xa8,%edi
  102412:	0f 20 d6             	mov    %cr2,%rsi
  102415:	e9 66 f5 ff ff       	jmp    101980 <glue>

000000000010241a <irq_entry_169>:
  10241a:	57                   	push   %rdi
  10241b:	57                   	push   %rdi
  10241c:	56                   	push   %rsi
  10241d:	bf a9 00 00 00       	mov    $0xa9,%edi
  102422:	0f 20 d6             	mov    %cr2,%rsi
  102425:	e9 56 f5 ff ff       	jmp    101980 <glue>

000000000010242a <irq_entry_170>:
  10242a:	57                   	push   %rdi
  10242b:	57                   	push   %rdi
  10242c:	56                   	push   %rsi
  10242d:	bf aa 00 00 00       	mov    $0xaa,%edi
  102432:	0f 20 d6             	mov    %cr2,%rsi
  102435:	e9 46 f5 ff ff       	jmp    101980 <glue>

000000000010243a <irq_entry_171>:
  10243a:	57                   	push   %rdi
  10243b:	57                   	push   %rdi
  10243c:	56                   	push   %rsi
  10243d:	bf ab 00 00 00       	mov    $0xab,%edi
  102442:	0f 20 d6             	mov    %cr2,%rsi
  102445:	e9 36 f5 ff ff       	jmp    101980 <glue>

000000000010244a <irq_entry_172>:
  10244a:	57                   	push   %rdi
  10244b:	57                   	push   %rdi
  10244c:	56                   	push   %rsi
  10244d:	bf ac 00 00 00       	mov    $0xac,%edi
  102452:	0f 20 d6             	mov    %cr2,%rsi
  102455:	e9 26 f5 ff ff       	jmp    101980 <glue>

000000000010245a <irq_entry_173>:
  10245a:	57                   	push   %rdi
  10245b:	57                   	push   %rdi
  10245c:	56                   	push   %rsi
  10245d:	bf ad 00 00 00       	mov    $0xad,%edi
  102462:	0f 20 d6             	mov    %cr2,%rsi
  102465:	e9 16 f5 ff ff       	jmp    101980 <glue>

000000000010246a <irq_entry_174>:
  10246a:	57                   	push   %rdi
  10246b:	57                   	push   %rdi
  10246c:	56                   	push   %rsi
  10246d:	bf ae 00 00 00       	mov    $0xae,%edi
  102472:	0f 20 d6             	mov    %cr2,%rsi
  102475:	e9 06 f5 ff ff       	jmp    101980 <glue>

000000000010247a <irq_entry_175>:
  10247a:	57                   	push   %rdi
  10247b:	57                   	push   %rdi
  10247c:	56                   	push   %rsi
  10247d:	bf af 00 00 00       	mov    $0xaf,%edi
  102482:	0f 20 d6             	mov    %cr2,%rsi
  102485:	e9 f6 f4 ff ff       	jmp    101980 <glue>

000000000010248a <irq_entry_176>:
  10248a:	57                   	push   %rdi
  10248b:	57                   	push   %rdi
  10248c:	56                   	push   %rsi
  10248d:	bf b0 00 00 00       	mov    $0xb0,%edi
  102492:	0f 20 d6             	mov    %cr2,%rsi
  102495:	e9 e6 f4 ff ff       	jmp    101980 <glue>

000000000010249a <irq_entry_177>:
  10249a:	57                   	push   %rdi
  10249b:	57                   	push   %rdi
  10249c:	56                   	push   %rsi
  10249d:	bf b1 00 00 00       	mov    $0xb1,%edi
  1024a2:	0f 20 d6             	mov    %cr2,%rsi
  1024a5:	e9 d6 f4 ff ff       	jmp    101980 <glue>

00000000001024aa <irq_entry_178>:
  1024aa:	57                   	push   %rdi
  1024ab:	57                   	push   %rdi
  1024ac:	56                   	push   %rsi
  1024ad:	bf b2 00 00 00       	mov    $0xb2,%edi
  1024b2:	0f 20 d6             	mov    %cr2,%rsi
  1024b5:	e9 c6 f4 ff ff       	jmp    101980 <glue>

00000000001024ba <irq_entry_179>:
  1024ba:	57                   	push   %rdi
  1024bb:	57                   	push   %rdi
  1024bc:	56                   	push   %rsi
  1024bd:	bf b3 00 00 00       	mov    $0xb3,%edi
  1024c2:	0f 20 d6             	mov    %cr2,%rsi
  1024c5:	e9 b6 f4 ff ff       	jmp    101980 <glue>

00000000001024ca <irq_entry_180>:
  1024ca:	57                   	push   %rdi
  1024cb:	57                   	push   %rdi
  1024cc:	56                   	push   %rsi
  1024cd:	bf b4 00 00 00       	mov    $0xb4,%edi
  1024d2:	0f 20 d6             	mov    %cr2,%rsi
  1024d5:	e9 a6 f4 ff ff       	jmp    101980 <glue>

00000000001024da <irq_entry_181>:
  1024da:	57                   	push   %rdi
  1024db:	57                   	push   %rdi
  1024dc:	56                   	push   %rsi
  1024dd:	bf b5 00 00 00       	mov    $0xb5,%edi
  1024e2:	0f 20 d6             	mov    %cr2,%rsi
  1024e5:	e9 96 f4 ff ff       	jmp    101980 <glue>

00000000001024ea <irq_entry_182>:
  1024ea:	57                   	push   %rdi
  1024eb:	57                   	push   %rdi
  1024ec:	56                   	push   %rsi
  1024ed:	bf b6 00 00 00       	mov    $0xb6,%edi
  1024f2:	0f 20 d6             	mov    %cr2,%rsi
  1024f5:	e9 86 f4 ff ff       	jmp    101980 <glue>

00000000001024fa <irq_entry_183>:
  1024fa:	57                   	push   %rdi
  1024fb:	57                   	push   %rdi
  1024fc:	56                   	push   %rsi
  1024fd:	bf b7 00 00 00       	mov    $0xb7,%edi
  102502:	0f 20 d6             	mov    %cr2,%rsi
  102505:	e9 76 f4 ff ff       	jmp    101980 <glue>

000000000010250a <irq_entry_184>:
  10250a:	57                   	push   %rdi
  10250b:	57                   	push   %rdi
  10250c:	56                   	push   %rsi
  10250d:	bf b8 00 00 00       	mov    $0xb8,%edi
  102512:	0f 20 d6             	mov    %cr2,%rsi
  102515:	e9 66 f4 ff ff       	jmp    101980 <glue>

000000000010251a <irq_entry_185>:
  10251a:	57                   	push   %rdi
  10251b:	57                   	push   %rdi
  10251c:	56                   	push   %rsi
  10251d:	bf b9 00 00 00       	mov    $0xb9,%edi
  102522:	0f 20 d6             	mov    %cr2,%rsi
  102525:	e9 56 f4 ff ff       	jmp    101980 <glue>

000000000010252a <irq_entry_186>:
  10252a:	57                   	push   %rdi
  10252b:	57                   	push   %rdi
  10252c:	56                   	push   %rsi
  10252d:	bf ba 00 00 00       	mov    $0xba,%edi
  102532:	0f 20 d6             	mov    %cr2,%rsi
  102535:	e9 46 f4 ff ff       	jmp    101980 <glue>

000000000010253a <irq_entry_187>:
  10253a:	57                   	push   %rdi
  10253b:	57                   	push   %rdi
  10253c:	56                   	push   %rsi
  10253d:	bf bb 00 00 00       	mov    $0xbb,%edi
  102542:	0f 20 d6             	mov    %cr2,%rsi
  102545:	e9 36 f4 ff ff       	jmp    101980 <glue>

000000000010254a <irq_entry_188>:
  10254a:	57                   	push   %rdi
  10254b:	57                   	push   %rdi
  10254c:	56                   	push   %rsi
  10254d:	bf bc 00 00 00       	mov    $0xbc,%edi
  102552:	0f 20 d6             	mov    %cr2,%rsi
  102555:	e9 26 f4 ff ff       	jmp    101980 <glue>

000000000010255a <irq_entry_189>:
  10255a:	57                   	push   %rdi
  10255b:	57                   	push   %rdi
  10255c:	56                   	push   %rsi
  10255d:	bf bd 00 00 00       	mov    $0xbd,%edi
  102562:	0f 20 d6             	mov    %cr2,%rsi
  102565:	e9 16 f4 ff ff       	jmp    101980 <glue>

000000000010256a <irq_entry_190>:
  10256a:	57                   	push   %rdi
  10256b:	57                   	push   %rdi
  10256c:	56                   	push   %rsi
  10256d:	bf be 00 00 00       	mov    $0xbe,%edi
  102572:	0f 20 d6             	mov    %cr2,%rsi
  102575:	e9 06 f4 ff ff       	jmp    101980 <glue>

000000000010257a <irq_entry_191>:
  10257a:	57                   	push   %rdi
  10257b:	57                   	push   %rdi
  10257c:	56                   	push   %rsi
  10257d:	bf bf 00 00 00       	mov    $0xbf,%edi
  102582:	0f 20 d6             	mov    %cr2,%rsi
  102585:	e9 f6 f3 ff ff       	jmp    101980 <glue>

000000000010258a <irq_entry_192>:
  10258a:	57                   	push   %rdi
  10258b:	57                   	push   %rdi
  10258c:	56                   	push   %rsi
  10258d:	bf c0 00 00 00       	mov    $0xc0,%edi
  102592:	0f 20 d6             	mov    %cr2,%rsi
  102595:	e9 e6 f3 ff ff       	jmp    101980 <glue>

000000000010259a <irq_entry_193>:
  10259a:	57                   	push   %rdi
  10259b:	57                   	push   %rdi
  10259c:	56                   	push   %rsi
  10259d:	bf c1 00 00 00       	mov    $0xc1,%edi
  1025a2:	0f 20 d6             	mov    %cr2,%rsi
  1025a5:	e9 d6 f3 ff ff       	jmp    101980 <glue>

00000000001025aa <irq_entry_194>:
  1025aa:	57                   	push   %rdi
  1025ab:	57                   	push   %rdi
  1025ac:	56                   	push   %rsi
  1025ad:	bf c2 00 00 00       	mov    $0xc2,%edi
  1025b2:	0f 20 d6             	mov    %cr2,%rsi
  1025b5:	e9 c6 f3 ff ff       	jmp    101980 <glue>

00000000001025ba <irq_entry_195>:
  1025ba:	57                   	push   %rdi
  1025bb:	57                   	push   %rdi
  1025bc:	56                   	push   %rsi
  1025bd:	bf c3 00 00 00       	mov    $0xc3,%edi
  1025c2:	0f 20 d6             	mov    %cr2,%rsi
  1025c5:	e9 b6 f3 ff ff       	jmp    101980 <glue>

00000000001025ca <irq_entry_196>:
  1025ca:	57                   	push   %rdi
  1025cb:	57                   	push   %rdi
  1025cc:	56                   	push   %rsi
  1025cd:	bf c4 00 00 00       	mov    $0xc4,%edi
  1025d2:	0f 20 d6             	mov    %cr2,%rsi
  1025d5:	e9 a6 f3 ff ff       	jmp    101980 <glue>

00000000001025da <irq_entry_197>:
  1025da:	57                   	push   %rdi
  1025db:	57                   	push   %rdi
  1025dc:	56                   	push   %rsi
  1025dd:	bf c5 00 00 00       	mov    $0xc5,%edi
  1025e2:	0f 20 d6             	mov    %cr2,%rsi
  1025e5:	e9 96 f3 ff ff       	jmp    101980 <glue>

00000000001025ea <irq_entry_198>:
  1025ea:	57                   	push   %rdi
  1025eb:	57                   	push   %rdi
  1025ec:	56                   	push   %rsi
  1025ed:	bf c6 00 00 00       	mov    $0xc6,%edi
  1025f2:	0f 20 d6             	mov    %cr2,%rsi
  1025f5:	e9 86 f3 ff ff       	jmp    101980 <glue>

00000000001025fa <irq_entry_199>:
  1025fa:	57                   	push   %rdi
  1025fb:	57                   	push   %rdi
  1025fc:	56                   	push   %rsi
  1025fd:	bf c7 00 00 00       	mov    $0xc7,%edi
  102602:	0f 20 d6             	mov    %cr2,%rsi
  102605:	e9 76 f3 ff ff       	jmp    101980 <glue>

000000000010260a <irq_entry_200>:
  10260a:	57                   	push   %rdi
  10260b:	57                   	push   %rdi
  10260c:	56                   	push   %rsi
  10260d:	bf c8 00 00 00       	mov    $0xc8,%edi
  102612:	0f 20 d6             	mov    %cr2,%rsi
  102615:	e9 66 f3 ff ff       	jmp    101980 <glue>

000000000010261a <irq_entry_201>:
  10261a:	57                   	push   %rdi
  10261b:	57                   	push   %rdi
  10261c:	56                   	push   %rsi
  10261d:	bf c9 00 00 00       	mov    $0xc9,%edi
  102622:	0f 20 d6             	mov    %cr2,%rsi
  102625:	e9 56 f3 ff ff       	jmp    101980 <glue>

000000000010262a <irq_entry_202>:
  10262a:	57                   	push   %rdi
  10262b:	57                   	push   %rdi
  10262c:	56                   	push   %rsi
  10262d:	bf ca 00 00 00       	mov    $0xca,%edi
  102632:	0f 20 d6             	mov    %cr2,%rsi
  102635:	e9 46 f3 ff ff       	jmp    101980 <glue>

000000000010263a <irq_entry_203>:
  10263a:	57                   	push   %rdi
  10263b:	57                   	push   %rdi
  10263c:	56                   	push   %rsi
  10263d:	bf cb 00 00 00       	mov    $0xcb,%edi
  102642:	0f 20 d6             	mov    %cr2,%rsi
  102645:	e9 36 f3 ff ff       	jmp    101980 <glue>

000000000010264a <irq_entry_204>:
  10264a:	57                   	push   %rdi
  10264b:	57                   	push   %rdi
  10264c:	56                   	push   %rsi
  10264d:	bf cc 00 00 00       	mov    $0xcc,%edi
  102652:	0f 20 d6             	mov    %cr2,%rsi
  102655:	e9 26 f3 ff ff       	jmp    101980 <glue>

000000000010265a <irq_entry_205>:
  10265a:	57                   	push   %rdi
  10265b:	57                   	push   %rdi
  10265c:	56                   	push   %rsi
  10265d:	bf cd 00 00 00       	mov    $0xcd,%edi
  102662:	0f 20 d6             	mov    %cr2,%rsi
  102665:	e9 16 f3 ff ff       	jmp    101980 <glue>

000000000010266a <irq_entry_206>:
  10266a:	57                   	push   %rdi
  10266b:	57                   	push   %rdi
  10266c:	56                   	push   %rsi
  10266d:	bf ce 00 00 00       	mov    $0xce,%edi
  102672:	0f 20 d6             	mov    %cr2,%rsi
  102675:	e9 06 f3 ff ff       	jmp    101980 <glue>

000000000010267a <irq_entry_207>:
  10267a:	57                   	push   %rdi
  10267b:	57                   	push   %rdi
  10267c:	56                   	push   %rsi
  10267d:	bf cf 00 00 00       	mov    $0xcf,%edi
  102682:	0f 20 d6             	mov    %cr2,%rsi
  102685:	e9 f6 f2 ff ff       	jmp    101980 <glue>

000000000010268a <irq_entry_208>:
  10268a:	57                   	push   %rdi
  10268b:	57                   	push   %rdi
  10268c:	56                   	push   %rsi
  10268d:	bf d0 00 00 00       	mov    $0xd0,%edi
  102692:	0f 20 d6             	mov    %cr2,%rsi
  102695:	e9 e6 f2 ff ff       	jmp    101980 <glue>

000000000010269a <irq_entry_209>:
  10269a:	57                   	push   %rdi
  10269b:	57                   	push   %rdi
  10269c:	56                   	push   %rsi
  10269d:	bf d1 00 00 00       	mov    $0xd1,%edi
  1026a2:	0f 20 d6             	mov    %cr2,%rsi
  1026a5:	e9 d6 f2 ff ff       	jmp    101980 <glue>

00000000001026aa <irq_entry_210>:
  1026aa:	57                   	push   %rdi
  1026ab:	57                   	push   %rdi
  1026ac:	56                   	push   %rsi
  1026ad:	bf d2 00 00 00       	mov    $0xd2,%edi
  1026b2:	0f 20 d6             	mov    %cr2,%rsi
  1026b5:	e9 c6 f2 ff ff       	jmp    101980 <glue>

00000000001026ba <irq_entry_211>:
  1026ba:	57                   	push   %rdi
  1026bb:	57                   	push   %rdi
  1026bc:	56                   	push   %rsi
  1026bd:	bf d3 00 00 00       	mov    $0xd3,%edi
  1026c2:	0f 20 d6             	mov    %cr2,%rsi
  1026c5:	e9 b6 f2 ff ff       	jmp    101980 <glue>

00000000001026ca <irq_entry_212>:
  1026ca:	57                   	push   %rdi
  1026cb:	57                   	push   %rdi
  1026cc:	56                   	push   %rsi
  1026cd:	bf d4 00 00 00       	mov    $0xd4,%edi
  1026d2:	0f 20 d6             	mov    %cr2,%rsi
  1026d5:	e9 a6 f2 ff ff       	jmp    101980 <glue>

00000000001026da <irq_entry_213>:
  1026da:	57                   	push   %rdi
  1026db:	57                   	push   %rdi
  1026dc:	56                   	push   %rsi
  1026dd:	bf d5 00 00 00       	mov    $0xd5,%edi
  1026e2:	0f 20 d6             	mov    %cr2,%rsi
  1026e5:	e9 96 f2 ff ff       	jmp    101980 <glue>

00000000001026ea <irq_entry_214>:
  1026ea:	57                   	push   %rdi
  1026eb:	57                   	push   %rdi
  1026ec:	56                   	push   %rsi
  1026ed:	bf d6 00 00 00       	mov    $0xd6,%edi
  1026f2:	0f 20 d6             	mov    %cr2,%rsi
  1026f5:	e9 86 f2 ff ff       	jmp    101980 <glue>

00000000001026fa <irq_entry_215>:
  1026fa:	57                   	push   %rdi
  1026fb:	57                   	push   %rdi
  1026fc:	56                   	push   %rsi
  1026fd:	bf d7 00 00 00       	mov    $0xd7,%edi
  102702:	0f 20 d6             	mov    %cr2,%rsi
  102705:	e9 76 f2 ff ff       	jmp    101980 <glue>

000000000010270a <irq_entry_216>:
  10270a:	57                   	push   %rdi
  10270b:	57                   	push   %rdi
  10270c:	56                   	push   %rsi
  10270d:	bf d8 00 00 00       	mov    $0xd8,%edi
  102712:	0f 20 d6             	mov    %cr2,%rsi
  102715:	e9 66 f2 ff ff       	jmp    101980 <glue>

000000000010271a <irq_entry_217>:
  10271a:	57                   	push   %rdi
  10271b:	57                   	push   %rdi
  10271c:	56                   	push   %rsi
  10271d:	bf d9 00 00 00       	mov    $0xd9,%edi
  102722:	0f 20 d6             	mov    %cr2,%rsi
  102725:	e9 56 f2 ff ff       	jmp    101980 <glue>

000000000010272a <irq_entry_218>:
  10272a:	57                   	push   %rdi
  10272b:	57                   	push   %rdi
  10272c:	56                   	push   %rsi
  10272d:	bf da 00 00 00       	mov    $0xda,%edi
  102732:	0f 20 d6             	mov    %cr2,%rsi
  102735:	e9 46 f2 ff ff       	jmp    101980 <glue>

000000000010273a <irq_entry_219>:
  10273a:	57                   	push   %rdi
  10273b:	57                   	push   %rdi
  10273c:	56                   	push   %rsi
  10273d:	bf db 00 00 00       	mov    $0xdb,%edi
  102742:	0f 20 d6             	mov    %cr2,%rsi
  102745:	e9 36 f2 ff ff       	jmp    101980 <glue>

000000000010274a <irq_entry_220>:
  10274a:	57                   	push   %rdi
  10274b:	57                   	push   %rdi
  10274c:	56                   	push   %rsi
  10274d:	bf dc 00 00 00       	mov    $0xdc,%edi
  102752:	0f 20 d6             	mov    %cr2,%rsi
  102755:	e9 26 f2 ff ff       	jmp    101980 <glue>

000000000010275a <irq_entry_221>:
  10275a:	57                   	push   %rdi
  10275b:	57                   	push   %rdi
  10275c:	56                   	push   %rsi
  10275d:	bf dd 00 00 00       	mov    $0xdd,%edi
  102762:	0f 20 d6             	mov    %cr2,%rsi
  102765:	e9 16 f2 ff ff       	jmp    101980 <glue>

000000000010276a <irq_entry_222>:
  10276a:	57                   	push   %rdi
  10276b:	57                   	push   %rdi
  10276c:	56                   	push   %rsi
  10276d:	bf de 00 00 00       	mov    $0xde,%edi
  102772:	0f 20 d6             	mov    %cr2,%rsi
  102775:	e9 06 f2 ff ff       	jmp    101980 <glue>

000000000010277a <irq_entry_223>:
  10277a:	57                   	push   %rdi
  10277b:	57                   	push   %rdi
  10277c:	56                   	push   %rsi
  10277d:	bf df 00 00 00       	mov    $0xdf,%edi
  102782:	0f 20 d6             	mov    %cr2,%rsi
  102785:	e9 f6 f1 ff ff       	jmp    101980 <glue>

000000000010278a <irq_entry_224>:
  10278a:	57                   	push   %rdi
  10278b:	57                   	push   %rdi
  10278c:	56                   	push   %rsi
  10278d:	bf e0 00 00 00       	mov    $0xe0,%edi
  102792:	0f 20 d6             	mov    %cr2,%rsi
  102795:	e9 e6 f1 ff ff       	jmp    101980 <glue>

000000000010279a <irq_entry_225>:
  10279a:	57                   	push   %rdi
  10279b:	57                   	push   %rdi
  10279c:	56                   	push   %rsi
  10279d:	bf e1 00 00 00       	mov    $0xe1,%edi
  1027a2:	0f 20 d6             	mov    %cr2,%rsi
  1027a5:	e9 d6 f1 ff ff       	jmp    101980 <glue>

00000000001027aa <irq_entry_226>:
  1027aa:	57                   	push   %rdi
  1027ab:	57                   	push   %rdi
  1027ac:	56                   	push   %rsi
  1027ad:	bf e2 00 00 00       	mov    $0xe2,%edi
  1027b2:	0f 20 d6             	mov    %cr2,%rsi
  1027b5:	e9 c6 f1 ff ff       	jmp    101980 <glue>

00000000001027ba <irq_entry_227>:
  1027ba:	57                   	push   %rdi
  1027bb:	57                   	push   %rdi
  1027bc:	56                   	push   %rsi
  1027bd:	bf e3 00 00 00       	mov    $0xe3,%edi
  1027c2:	0f 20 d6             	mov    %cr2,%rsi
  1027c5:	e9 b6 f1 ff ff       	jmp    101980 <glue>

00000000001027ca <irq_entry_228>:
  1027ca:	57                   	push   %rdi
  1027cb:	57                   	push   %rdi
  1027cc:	56                   	push   %rsi
  1027cd:	bf e4 00 00 00       	mov    $0xe4,%edi
  1027d2:	0f 20 d6             	mov    %cr2,%rsi
  1027d5:	e9 a6 f1 ff ff       	jmp    101980 <glue>

00000000001027da <irq_entry_229>:
  1027da:	57                   	push   %rdi
  1027db:	57                   	push   %rdi
  1027dc:	56                   	push   %rsi
  1027dd:	bf e5 00 00 00       	mov    $0xe5,%edi
  1027e2:	0f 20 d6             	mov    %cr2,%rsi
  1027e5:	e9 96 f1 ff ff       	jmp    101980 <glue>

00000000001027ea <irq_entry_230>:
  1027ea:	57                   	push   %rdi
  1027eb:	57                   	push   %rdi
  1027ec:	56                   	push   %rsi
  1027ed:	bf e6 00 00 00       	mov    $0xe6,%edi
  1027f2:	0f 20 d6             	mov    %cr2,%rsi
  1027f5:	e9 86 f1 ff ff       	jmp    101980 <glue>

00000000001027fa <irq_entry_231>:
  1027fa:	57                   	push   %rdi
  1027fb:	57                   	push   %rdi
  1027fc:	56                   	push   %rsi
  1027fd:	bf e7 00 00 00       	mov    $0xe7,%edi
  102802:	0f 20 d6             	mov    %cr2,%rsi
  102805:	e9 76 f1 ff ff       	jmp    101980 <glue>

000000000010280a <irq_entry_232>:
  10280a:	57                   	push   %rdi
  10280b:	57                   	push   %rdi
  10280c:	56                   	push   %rsi
  10280d:	bf e8 00 00 00       	mov    $0xe8,%edi
  102812:	0f 20 d6             	mov    %cr2,%rsi
  102815:	e9 66 f1 ff ff       	jmp    101980 <glue>

000000000010281a <irq_entry_233>:
  10281a:	57                   	push   %rdi
  10281b:	57                   	push   %rdi
  10281c:	56                   	push   %rsi
  10281d:	bf e9 00 00 00       	mov    $0xe9,%edi
  102822:	0f 20 d6             	mov    %cr2,%rsi
  102825:	e9 56 f1 ff ff       	jmp    101980 <glue>

000000000010282a <irq_entry_234>:
  10282a:	57                   	push   %rdi
  10282b:	57                   	push   %rdi
  10282c:	56                   	push   %rsi
  10282d:	bf ea 00 00 00       	mov    $0xea,%edi
  102832:	0f 20 d6             	mov    %cr2,%rsi
  102835:	e9 46 f1 ff ff       	jmp    101980 <glue>

000000000010283a <irq_entry_235>:
  10283a:	57                   	push   %rdi
  10283b:	57                   	push   %rdi
  10283c:	56                   	push   %rsi
  10283d:	bf eb 00 00 00       	mov    $0xeb,%edi
  102842:	0f 20 d6             	mov    %cr2,%rsi
  102845:	e9 36 f1 ff ff       	jmp    101980 <glue>

000000000010284a <irq_entry_236>:
  10284a:	57                   	push   %rdi
  10284b:	57                   	push   %rdi
  10284c:	56                   	push   %rsi
  10284d:	bf ec 00 00 00       	mov    $0xec,%edi
  102852:	0f 20 d6             	mov    %cr2,%rsi
  102855:	e9 26 f1 ff ff       	jmp    101980 <glue>

000000000010285a <irq_entry_237>:
  10285a:	57                   	push   %rdi
  10285b:	57                   	push   %rdi
  10285c:	56                   	push   %rsi
  10285d:	bf ed 00 00 00       	mov    $0xed,%edi
  102862:	0f 20 d6             	mov    %cr2,%rsi
  102865:	e9 16 f1 ff ff       	jmp    101980 <glue>

000000000010286a <irq_entry_238>:
  10286a:	57                   	push   %rdi
  10286b:	57                   	push   %rdi
  10286c:	56                   	push   %rsi
  10286d:	bf ee 00 00 00       	mov    $0xee,%edi
  102872:	0f 20 d6             	mov    %cr2,%rsi
  102875:	e9 06 f1 ff ff       	jmp    101980 <glue>

000000000010287a <irq_entry_239>:
  10287a:	57                   	push   %rdi
  10287b:	57                   	push   %rdi
  10287c:	56                   	push   %rsi
  10287d:	bf ef 00 00 00       	mov    $0xef,%edi
  102882:	0f 20 d6             	mov    %cr2,%rsi
  102885:	e9 f6 f0 ff ff       	jmp    101980 <glue>

000000000010288a <irq_entry_240>:
  10288a:	57                   	push   %rdi
  10288b:	57                   	push   %rdi
  10288c:	56                   	push   %rsi
  10288d:	bf f0 00 00 00       	mov    $0xf0,%edi
  102892:	0f 20 d6             	mov    %cr2,%rsi
  102895:	e9 e6 f0 ff ff       	jmp    101980 <glue>

000000000010289a <irq_entry_241>:
  10289a:	57                   	push   %rdi
  10289b:	57                   	push   %rdi
  10289c:	56                   	push   %rsi
  10289d:	bf f1 00 00 00       	mov    $0xf1,%edi
  1028a2:	0f 20 d6             	mov    %cr2,%rsi
  1028a5:	e9 d6 f0 ff ff       	jmp    101980 <glue>

00000000001028aa <irq_entry_242>:
  1028aa:	57                   	push   %rdi
  1028ab:	57                   	push   %rdi
  1028ac:	56                   	push   %rsi
  1028ad:	bf f2 00 00 00       	mov    $0xf2,%edi
  1028b2:	0f 20 d6             	mov    %cr2,%rsi
  1028b5:	e9 c6 f0 ff ff       	jmp    101980 <glue>

00000000001028ba <irq_entry_243>:
  1028ba:	57                   	push   %rdi
  1028bb:	57                   	push   %rdi
  1028bc:	56                   	push   %rsi
  1028bd:	bf f3 00 00 00       	mov    $0xf3,%edi
  1028c2:	0f 20 d6             	mov    %cr2,%rsi
  1028c5:	e9 b6 f0 ff ff       	jmp    101980 <glue>

00000000001028ca <irq_entry_244>:
  1028ca:	57                   	push   %rdi
  1028cb:	57                   	push   %rdi
  1028cc:	56                   	push   %rsi
  1028cd:	bf f4 00 00 00       	mov    $0xf4,%edi
  1028d2:	0f 20 d6             	mov    %cr2,%rsi
  1028d5:	e9 a6 f0 ff ff       	jmp    101980 <glue>

00000000001028da <irq_entry_245>:
  1028da:	57                   	push   %rdi
  1028db:	57                   	push   %rdi
  1028dc:	56                   	push   %rsi
  1028dd:	bf f5 00 00 00       	mov    $0xf5,%edi
  1028e2:	0f 20 d6             	mov    %cr2,%rsi
  1028e5:	e9 96 f0 ff ff       	jmp    101980 <glue>

00000000001028ea <irq_entry_246>:
  1028ea:	57                   	push   %rdi
  1028eb:	57                   	push   %rdi
  1028ec:	56                   	push   %rsi
  1028ed:	bf f6 00 00 00       	mov    $0xf6,%edi
  1028f2:	0f 20 d6             	mov    %cr2,%rsi
  1028f5:	e9 86 f0 ff ff       	jmp    101980 <glue>

00000000001028fa <irq_entry_247>:
  1028fa:	57                   	push   %rdi
  1028fb:	57                   	push   %rdi
  1028fc:	56                   	push   %rsi
  1028fd:	bf f7 00 00 00       	mov    $0xf7,%edi
  102902:	0f 20 d6             	mov    %cr2,%rsi
  102905:	e9 76 f0 ff ff       	jmp    101980 <glue>

000000000010290a <irq_entry_248>:
  10290a:	57                   	push   %rdi
  10290b:	57                   	push   %rdi
  10290c:	56                   	push   %rsi
  10290d:	bf f8 00 00 00       	mov    $0xf8,%edi
  102912:	0f 20 d6             	mov    %cr2,%rsi
  102915:	e9 66 f0 ff ff       	jmp    101980 <glue>

000000000010291a <irq_entry_249>:
  10291a:	57                   	push   %rdi
  10291b:	57                   	push   %rdi
  10291c:	56                   	push   %rsi
  10291d:	bf f9 00 00 00       	mov    $0xf9,%edi
  102922:	0f 20 d6             	mov    %cr2,%rsi
  102925:	e9 56 f0 ff ff       	jmp    101980 <glue>

000000000010292a <irq_entry_250>:
  10292a:	57                   	push   %rdi
  10292b:	57                   	push   %rdi
  10292c:	56                   	push   %rsi
  10292d:	bf fa 00 00 00       	mov    $0xfa,%edi
  102932:	0f 20 d6             	mov    %cr2,%rsi
  102935:	e9 46 f0 ff ff       	jmp    101980 <glue>

000000000010293a <irq_entry_251>:
  10293a:	57                   	push   %rdi
  10293b:	57                   	push   %rdi
  10293c:	56                   	push   %rsi
  10293d:	bf fb 00 00 00       	mov    $0xfb,%edi
  102942:	0f 20 d6             	mov    %cr2,%rsi
  102945:	e9 36 f0 ff ff       	jmp    101980 <glue>

000000000010294a <irq_entry_252>:
  10294a:	57                   	push   %rdi
  10294b:	57                   	push   %rdi
  10294c:	56                   	push   %rsi
  10294d:	bf fc 00 00 00       	mov    $0xfc,%edi
  102952:	0f 20 d6             	mov    %cr2,%rsi
  102955:	e9 26 f0 ff ff       	jmp    101980 <glue>

000000000010295a <irq_entry_253>:
  10295a:	57                   	push   %rdi
  10295b:	57                   	push   %rdi
  10295c:	56                   	push   %rsi
  10295d:	bf fd 00 00 00       	mov    $0xfd,%edi
  102962:	0f 20 d6             	mov    %cr2,%rsi
  102965:	e9 16 f0 ff ff       	jmp    101980 <glue>

000000000010296a <irq_entry_254>:
  10296a:	57                   	push   %rdi
  10296b:	57                   	push   %rdi
  10296c:	56                   	push   %rsi
  10296d:	bf fe 00 00 00       	mov    $0xfe,%edi
  102972:	0f 20 d6             	mov    %cr2,%rsi
  102975:	e9 06 f0 ff ff       	jmp    101980 <glue>

000000000010297a <irq_entry_255>:
  10297a:	57                   	push   %rdi
  10297b:	57                   	push   %rdi
  10297c:	56                   	push   %rsi
  10297d:	bf ff 00 00 00       	mov    $0xff,%edi
  102982:	0f 20 d6             	mov    %cr2,%rsi
  102985:	e9 f6 ef ff ff       	jmp    101980 <glue>
  10298a:	66 0f 1f 44 00 00    	nopw   0x0(%rax,%rax,1)

0000000000102990 <long_mode_start>:
  102990:	66 b8 00 00          	mov    $0x0,%ax
  102994:	8e d0                	mov    %eax,%ss
  102996:	8e d8                	mov    %eax,%ds
  102998:	8e c0                	mov    %eax,%es
  10299a:	8e e0                	mov    %eax,%fs
  10299c:	8e e8                	mov    %eax,%gs
  10299e:	48 b8 4f 2f 4b 2f 41 	movabs $0x2f592f412f4b2f4f,%rax
  1029a5:	2f 59 2f 
  1029a8:	48 89 04 25 00 80 0b 	mov    %rax,0xb8000
  1029af:	00 
  1029b0:	e8 00 00 00 00       	call   1029b5 <kmain>

00000000001029b5 <kmain>:
  1029b5:	55                   	push   %rbp
  1029b6:	48 89 e5             	mov    %rsp,%rbp
  1029b9:	48 83 ec 20          	sub    $0x20,%rsp
  1029bd:	89 7d ec             	mov    %edi,-0x14(%rbp)
  1029c0:	e8 58 4c 00 00       	call   10761d <VGA_clear>
  1029c5:	c7 45 fc 01 00 00 00 	movl   $0x1,-0x4(%rbp)
  1029cc:	b8 00 00 00 00       	mov    $0x0,%eax
  1029d1:	e8 7e 00 00 00       	call   102a54 <CLI>
  1029d6:	90                   	nop
  1029d7:	83 7d fc 00          	cmpl   $0x0,-0x4(%rbp)
  1029db:	75 fa                	jne    1029d7 <kmain+0x22>
  1029dd:	8b 45 ec             	mov    -0x14(%rbp),%eax
  1029e0:	89 c7                	mov    %eax,%edi
  1029e2:	e8 3f 21 00 00       	call   104b26 <process_tag_entries>
  1029e7:	48 89 45 f0          	mov    %rax,-0x10(%rbp)
  1029eb:	48 8b 45 f0          	mov    -0x10(%rbp),%rax
  1029ef:	48 89 c7             	mov    %rax,%rdi
  1029f2:	e8 a0 36 00 00       	call   106097 <pt_init>
  1029f7:	b8 00 00 00 00       	mov    $0x0,%eax
  1029fc:	e8 5c 37 00 00       	call   10615d <enable_paging>
  102a01:	e8 f9 02 00 00       	call   102cff <IRQ_init>
  102a06:	e8 ff 26 00 00       	call   10510a <ps2_init>
  102a0b:	e8 2b 3f 00 00       	call   10693b <SER_init>
  102a10:	b8 00 00 00 00       	mov    $0x0,%eax
  102a15:	e8 49 00 00 00       	call   102a63 <STI>
  102a1a:	bf 58 00 10 00       	mov    $0x100058,%edi
  102a1f:	b8 00 00 00 00       	mov    $0x0,%eax
  102a24:	e8 8b 40 00 00       	call   106ab4 <printk>
  102a29:	b8 00 00 00 00       	mov    $0x0,%eax
  102a2e:	e8 c0 3b 00 00       	call   1065f3 <test_table>
  102a33:	b8 00 00 00 00       	mov    $0x0,%eax
  102a38:	e8 2f 18 00 00       	call   10426c <init_pools>
  102a3d:	b8 00 00 00 00       	mov    $0x0,%eax
  102a42:	e8 70 1b 00 00       	call   1045b7 <test_kmalloc_simple>
  102a47:	b8 00 00 00 00       	mov    $0x0,%eax
  102a4c:	e8 4e 1c 00 00       	call   10469f <test_kmalloc_full>
  102a51:	f4                   	hlt
  102a52:	eb fd                	jmp    102a51 <kmain+0x9c>

0000000000102a54 <CLI>:
  102a54:	55                   	push   %rbp
  102a55:	48 89 e5             	mov    %rsp,%rbp
  102a58:	c6 05 21 4d 00 00 00 	movb   $0x0,0x4d21(%rip)        # 107780 <enabled>
  102a5f:	fa                   	cli
  102a60:	90                   	nop
  102a61:	5d                   	pop    %rbp
  102a62:	c3                   	ret

0000000000102a63 <STI>:
  102a63:	55                   	push   %rbp
  102a64:	48 89 e5             	mov    %rsp,%rbp
  102a67:	c6 05 12 4d 00 00 01 	movb   $0x1,0x4d12(%rip)        # 107780 <enabled>
  102a6e:	fb                   	sti
  102a6f:	90                   	nop
  102a70:	5d                   	pop    %rbp
  102a71:	c3                   	ret

0000000000102a72 <are_interrupts_enabled>:
  102a72:	55                   	push   %rbp
  102a73:	48 89 e5             	mov    %rsp,%rbp
  102a76:	0f b6 05 03 4d 00 00 	movzbl 0x4d03(%rip),%eax        # 107780 <enabled>
  102a7d:	5d                   	pop    %rbp
  102a7e:	c3                   	ret

0000000000102a7f <tss_init>:
  102a7f:	55                   	push   %rbp
  102a80:	48 89 e5             	mov    %rsp,%rbp
  102a83:	48 83 ec 20          	sub    $0x20,%rsp
  102a87:	c7 45 e4 02 00 00 00 	movl   $0x2,-0x1c(%rbp)
  102a8e:	8b 45 e4             	mov    -0x1c(%rbp),%eax
  102a91:	48 98                	cltq
  102a93:	48 c1 e0 03          	shl    $0x3,%rax
  102a97:	48 05 18 00 10 00    	add    $0x100018,%rax
  102a9d:	48 89 45 f8          	mov    %rax,-0x8(%rbp)
  102aa1:	ba 68 00 00 00       	mov    $0x68,%edx
  102aa6:	be 00 00 00 00       	mov    $0x0,%esi
  102aab:	bf 40 d0 10 00       	mov    $0x10d040,%edi
  102ab0:	e8 6d 48 00 00       	call   107322 <memset>
  102ab5:	e8 fc 21 00 00       	call   104cb6 <MMU_pf_alloc>
  102aba:	48 89 45 f0          	mov    %rax,-0x10(%rbp)
  102abe:	48 8b 45 f0          	mov    -0x10(%rbp),%rax
  102ac2:	48 05 f8 0f 00 00    	add    $0xff8,%rax
  102ac8:	48 89 05 95 a5 00 00 	mov    %rax,0xa595(%rip)        # 10d064 <tss+0x24>
  102acf:	48 c7 45 e8 40 d0 10 	movq   $0x10d040,-0x18(%rbp)
  102ad6:	00 
  102ad7:	48 8b 45 f8          	mov    -0x8(%rbp),%rax
  102adb:	ba 10 00 00 00       	mov    $0x10,%edx
  102ae0:	be 00 00 00 00       	mov    $0x0,%esi
  102ae5:	48 89 c7             	mov    %rax,%rdi
  102ae8:	e8 35 48 00 00       	call   107322 <memset>
  102aed:	48 8b 45 f8          	mov    -0x8(%rbp),%rax
  102af1:	66 c7 40 05 89 40    	movw   $0x4089,0x5(%rax)
  102af7:	48 8b 45 f8          	mov    -0x8(%rbp),%rax
  102afb:	66 c7 00 68 00       	movw   $0x68,(%rax)
  102b00:	48 8b 45 e8          	mov    -0x18(%rbp),%rax
  102b04:	89 c2                	mov    %eax,%edx
  102b06:	48 8b 45 f8          	mov    -0x8(%rbp),%rax
  102b0a:	66 89 50 02          	mov    %dx,0x2(%rax)
  102b0e:	48 8b 45 e8          	mov    -0x18(%rbp),%rax
  102b12:	48 c1 e8 10          	shr    $0x10,%rax
  102b16:	89 c2                	mov    %eax,%edx
  102b18:	48 8b 45 f8          	mov    -0x8(%rbp),%rax
  102b1c:	88 50 04             	mov    %dl,0x4(%rax)
  102b1f:	48 8b 45 e8          	mov    -0x18(%rbp),%rax
  102b23:	48 c1 e8 18          	shr    $0x18,%rax
  102b27:	89 c2                	mov    %eax,%edx
  102b29:	48 8b 45 f8          	mov    -0x8(%rbp),%rax
  102b2d:	88 50 07             	mov    %dl,0x7(%rax)
  102b30:	48 8b 45 e8          	mov    -0x18(%rbp),%rax
  102b34:	48 c1 e8 20          	shr    $0x20,%rax
  102b38:	89 c2                	mov    %eax,%edx
  102b3a:	48 8b 45 f8          	mov    -0x8(%rbp),%rax
  102b3e:	89 50 08             	mov    %edx,0x8(%rax)
  102b41:	8b 45 e4             	mov    -0x1c(%rbp),%eax
  102b44:	48 98                	cltq
  102b46:	c1 e0 03             	shl    $0x3,%eax
  102b49:	89 45 e4             	mov    %eax,-0x1c(%rbp)
  102b4c:	0f 00 5d e4          	ltr    -0x1c(%rbp)
  102b50:	90                   	nop
  102b51:	c9                   	leave
  102b52:	c3                   	ret

0000000000102b53 <irq_dispatch>:
  102b53:	55                   	push   %rbp
  102b54:	48 89 e5             	mov    %rsp,%rbp
  102b57:	48 83 ec 20          	sub    $0x20,%rsp
  102b5b:	48 89 7d e8          	mov    %rdi,-0x18(%rbp)
  102b5f:	48 89 75 e0          	mov    %rsi,-0x20(%rbp)
  102b63:	48 81 7d e8 00 01 00 	cmpq   $0x100,-0x18(%rbp)
  102b6a:	00 
  102b6b:	76 18                	jbe    102b85 <irq_dispatch+0x32>
  102b6d:	48 8b 45 e8          	mov    -0x18(%rbp),%rax
  102b71:	48 89 c6             	mov    %rax,%rsi
  102b74:	bf 88 00 10 00       	mov    $0x100088,%edi
  102b79:	b8 00 00 00 00       	mov    $0x0,%eax
  102b7e:	e8 31 3f 00 00       	call   106ab4 <printk>
  102b83:	eb 71                	jmp    102bf6 <irq_dispatch+0xa3>
  102b85:	48 8b 45 e8          	mov    -0x18(%rbp),%rax
  102b89:	48 c1 e0 04          	shl    $0x4,%rax
  102b8d:	48 05 40 c0 10 00    	add    $0x10c040,%rax
  102b93:	48 8b 50 08          	mov    0x8(%rax),%rdx
  102b97:	48 8b 00             	mov    (%rax),%rax
  102b9a:	48 89 45 f0          	mov    %rax,-0x10(%rbp)
  102b9e:	48 89 55 f8          	mov    %rdx,-0x8(%rbp)
  102ba2:	48 8b 45 f8          	mov    -0x8(%rbp),%rax
  102ba6:	48 85 c0             	test   %rax,%rax
  102ba9:	75 18                	jne    102bc3 <irq_dispatch+0x70>
  102bab:	48 8b 45 e8          	mov    -0x18(%rbp),%rax
  102baf:	48 89 c6             	mov    %rax,%rsi
  102bb2:	bf a8 00 10 00       	mov    $0x1000a8,%edi
  102bb7:	b8 00 00 00 00       	mov    $0x0,%eax
  102bbc:	e8 f3 3e 00 00       	call   106ab4 <printk>
  102bc1:	eb 17                	jmp    102bda <irq_dispatch+0x87>
  102bc3:	48 8b 4d f8          	mov    -0x8(%rbp),%rcx
  102bc7:	48 8b 55 f0          	mov    -0x10(%rbp),%rdx
  102bcb:	48 8b 45 e8          	mov    -0x18(%rbp),%rax
  102bcf:	89 c7                	mov    %eax,%edi
  102bd1:	48 8b 45 e0          	mov    -0x20(%rbp),%rax
  102bd5:	48 89 c6             	mov    %rax,%rsi
  102bd8:	ff d1                	call   *%rcx
  102bda:	48 83 7d e8 1f       	cmpq   $0x1f,-0x18(%rbp)
  102bdf:	76 15                	jbe    102bf6 <irq_dispatch+0xa3>
  102be1:	48 83 7d e8 30       	cmpq   $0x30,-0x18(%rbp)
  102be6:	77 0e                	ja     102bf6 <irq_dispatch+0xa3>
  102be8:	48 8b 45 e8          	mov    -0x18(%rbp),%rax
  102bec:	83 e8 20             	sub    $0x20,%eax
  102bef:	89 c7                	mov    %eax,%edi
  102bf1:	e8 82 03 00 00       	call   102f78 <IRQ_end_of_interrupt>
  102bf6:	c9                   	leave
  102bf7:	c3                   	ret

0000000000102bf8 <io_wait>:
  102bf8:	55                   	push   %rbp
  102bf9:	48 89 e5             	mov    %rsp,%rbp
  102bfc:	be 00 00 00 00       	mov    $0x0,%esi
  102c01:	bf 80 00 00 00       	mov    $0x80,%edi
  102c06:	e8 e2 46 00 00       	call   1072ed <outb>
  102c0b:	90                   	nop
  102c0c:	5d                   	pop    %rbp
  102c0d:	c3                   	ret

0000000000102c0e <PIC_remap>:
  102c0e:	55                   	push   %rbp
  102c0f:	48 89 e5             	mov    %rsp,%rbp
  102c12:	48 83 ec 20          	sub    $0x20,%rsp
  102c16:	89 7d ec             	mov    %edi,-0x14(%rbp)
  102c19:	89 75 e8             	mov    %esi,-0x18(%rbp)
  102c1c:	bf 21 00 00 00       	mov    $0x21,%edi
  102c21:	e8 e2 46 00 00       	call   107308 <inb>
  102c26:	88 45 ff             	mov    %al,-0x1(%rbp)
  102c29:	bf a1 00 00 00       	mov    $0xa1,%edi
  102c2e:	e8 d5 46 00 00       	call   107308 <inb>
  102c33:	88 45 fe             	mov    %al,-0x2(%rbp)
  102c36:	be 11 00 00 00       	mov    $0x11,%esi
  102c3b:	bf 20 00 00 00       	mov    $0x20,%edi
  102c40:	e8 a8 46 00 00       	call   1072ed <outb>
  102c45:	e8 ae ff ff ff       	call   102bf8 <io_wait>
  102c4a:	be 11 00 00 00       	mov    $0x11,%esi
  102c4f:	bf a0 00 00 00       	mov    $0xa0,%edi
  102c54:	e8 94 46 00 00       	call   1072ed <outb>
  102c59:	e8 9a ff ff ff       	call   102bf8 <io_wait>
  102c5e:	8b 45 ec             	mov    -0x14(%rbp),%eax
  102c61:	0f b6 c0             	movzbl %al,%eax
  102c64:	89 c6                	mov    %eax,%esi
  102c66:	bf 21 00 00 00       	mov    $0x21,%edi
  102c6b:	e8 7d 46 00 00       	call   1072ed <outb>
  102c70:	e8 83 ff ff ff       	call   102bf8 <io_wait>
  102c75:	8b 45 e8             	mov    -0x18(%rbp),%eax
  102c78:	0f b6 c0             	movzbl %al,%eax
  102c7b:	89 c6                	mov    %eax,%esi
  102c7d:	bf a1 00 00 00       	mov    $0xa1,%edi
  102c82:	e8 66 46 00 00       	call   1072ed <outb>
  102c87:	e8 6c ff ff ff       	call   102bf8 <io_wait>
  102c8c:	be 04 00 00 00       	mov    $0x4,%esi
  102c91:	bf 21 00 00 00       	mov    $0x21,%edi
  102c96:	e8 52 46 00 00       	call   1072ed <outb>
  102c9b:	e8 58 ff ff ff       	call   102bf8 <io_wait>
  102ca0:	be 02 00 00 00       	mov    $0x2,%esi
  102ca5:	bf a1 00 00 00       	mov    $0xa1,%edi
  102caa:	e8 3e 46 00 00       	call   1072ed <outb>
  102caf:	e8 44 ff ff ff       	call   102bf8 <io_wait>
  102cb4:	be 01 00 00 00       	mov    $0x1,%esi
  102cb9:	bf 21 00 00 00       	mov    $0x21,%edi
  102cbe:	e8 2a 46 00 00       	call   1072ed <outb>
  102cc3:	e8 30 ff ff ff       	call   102bf8 <io_wait>
  102cc8:	be 01 00 00 00       	mov    $0x1,%esi
  102ccd:	bf a1 00 00 00       	mov    $0xa1,%edi
  102cd2:	e8 16 46 00 00       	call   1072ed <outb>
  102cd7:	e8 1c ff ff ff       	call   102bf8 <io_wait>
  102cdc:	0f b6 45 ff          	movzbl -0x1(%rbp),%eax
  102ce0:	89 c6                	mov    %eax,%esi
  102ce2:	bf 21 00 00 00       	mov    $0x21,%edi
  102ce7:	e8 01 46 00 00       	call   1072ed <outb>
  102cec:	0f b6 45 fe          	movzbl -0x2(%rbp),%eax
  102cf0:	89 c6                	mov    %eax,%esi
  102cf2:	bf a1 00 00 00       	mov    $0xa1,%edi
  102cf7:	e8 f1 45 00 00       	call   1072ed <outb>
  102cfc:	90                   	nop
  102cfd:	c9                   	leave
  102cfe:	c3                   	ret

0000000000102cff <IRQ_init>:
  102cff:	55                   	push   %rbp
  102d00:	48 89 e5             	mov    %rsp,%rbp
  102d03:	48 83 ec 10          	sub    $0x10,%rsp
  102d07:	be 28 00 00 00       	mov    $0x28,%esi
  102d0c:	bf 20 00 00 00       	mov    $0x20,%edi
  102d11:	e8 f8 fe ff ff       	call   102c0e <PIC_remap>
  102d16:	c7 45 fc 00 00 00 00 	movl   $0x0,-0x4(%rbp)
  102d1d:	e9 a8 00 00 00       	jmp    102dca <IRQ_init+0xcb>
  102d22:	8b 45 fc             	mov    -0x4(%rbp),%eax
  102d25:	48 98                	cltq
  102d27:	48 c1 e0 04          	shl    $0x4,%rax
  102d2b:	48 05 40 b0 10 00    	add    $0x10b040,%rax
  102d31:	48 89 45 f0          	mov    %rax,-0x10(%rbp)
  102d35:	48 8b 45 f0          	mov    -0x10(%rbp),%rax
  102d39:	66 c7 40 02 08 00    	movw   $0x8,0x2(%rax)
  102d3f:	48 8b 45 f0          	mov    -0x10(%rbp),%rax
  102d43:	0f b6 50 04          	movzbl 0x4(%rax),%edx
  102d47:	83 e2 07             	and    $0x7,%edx
  102d4a:	88 50 04             	mov    %dl,0x4(%rax)
  102d4d:	83 7d fc 0d          	cmpl   $0xd,-0x4(%rbp)
  102d51:	74 0c                	je     102d5f <IRQ_init+0x60>
  102d53:	83 7d fc 08          	cmpl   $0x8,-0x4(%rbp)
  102d57:	74 06                	je     102d5f <IRQ_init+0x60>
  102d59:	83 7d fc 0e          	cmpl   $0xe,-0x4(%rbp)
  102d5d:	75 13                	jne    102d72 <IRQ_init+0x73>
  102d5f:	48 8b 45 f0          	mov    -0x10(%rbp),%rax
  102d63:	0f b6 50 04          	movzbl 0x4(%rax),%edx
  102d67:	83 e2 f8             	and    $0xfffffff8,%edx
  102d6a:	83 ca 01             	or     $0x1,%edx
  102d6d:	88 50 04             	mov    %dl,0x4(%rax)
  102d70:	eb 0e                	jmp    102d80 <IRQ_init+0x81>
  102d72:	48 8b 45 f0          	mov    -0x10(%rbp),%rax
  102d76:	0f b6 50 04          	movzbl 0x4(%rax),%edx
  102d7a:	83 e2 f8             	and    $0xfffffff8,%edx
  102d7d:	88 50 04             	mov    %dl,0x4(%rax)
  102d80:	48 8b 45 f0          	mov    -0x10(%rbp),%rax
  102d84:	0f b6 50 05          	movzbl 0x5(%rax),%edx
  102d88:	83 ca 80             	or     $0xffffff80,%edx
  102d8b:	88 50 05             	mov    %dl,0x5(%rax)
  102d8e:	48 8b 45 f0          	mov    -0x10(%rbp),%rax
  102d92:	0f b6 50 05          	movzbl 0x5(%rax),%edx
  102d96:	83 e2 ef             	and    $0xffffffef,%edx
  102d99:	88 50 05             	mov    %dl,0x5(%rax)
  102d9c:	48 8b 45 f0          	mov    -0x10(%rbp),%rax
  102da0:	0f b6 50 05          	movzbl 0x5(%rax),%edx
  102da4:	83 e2 9f             	and    $0xffffff9f,%edx
  102da7:	88 50 05             	mov    %dl,0x5(%rax)
  102daa:	48 8b 45 f0          	mov    -0x10(%rbp),%rax
  102dae:	0f b6 50 05          	movzbl 0x5(%rax),%edx
  102db2:	83 e2 f0             	and    $0xfffffff0,%edx
  102db5:	83 ca 0e             	or     $0xe,%edx
  102db8:	88 50 05             	mov    %dl,0x5(%rax)
  102dbb:	48 8b 45 f0          	mov    -0x10(%rbp),%rax
  102dbf:	c7 40 0c 00 00 00 00 	movl   $0x0,0xc(%rax)
  102dc6:	83 45 fc 01          	addl   $0x1,-0x4(%rbp)
  102dca:	81 7d fc ff 00 00 00 	cmpl   $0xff,-0x4(%rbp)
  102dd1:	0f 8e 4b ff ff ff    	jle    102d22 <IRQ_init+0x23>
  102dd7:	b8 00 00 00 00       	mov    $0x0,%eax
  102ddc:	e8 84 02 00 00       	call   103065 <init_IRQ_entries>
  102de1:	b8 00 00 00 00       	mov    $0x0,%eax
  102de6:	e8 17 00 00 00       	call   102e02 <loadIDT>
  102deb:	bf 00 00 00 00       	mov    $0x0,%edi
  102df0:	e8 84 00 00 00       	call   102e79 <IRQ_set_mask>
  102df5:	b8 00 00 00 00       	mov    $0x0,%eax
  102dfa:	e8 80 fc ff ff       	call   102a7f <tss_init>
  102dff:	90                   	nop
  102e00:	c9                   	leave
  102e01:	c3                   	ret

0000000000102e02 <loadIDT>:
  102e02:	55                   	push   %rbp
  102e03:	48 89 e5             	mov    %rsp,%rbp
  102e06:	66 c7 45 f6 00 10    	movw   $0x1000,-0xa(%rbp)
  102e0c:	b8 40 b0 10 00       	mov    $0x10b040,%eax
  102e11:	48 89 45 f8          	mov    %rax,-0x8(%rbp)
  102e15:	0f 01 5d f6          	lidt   -0xa(%rbp)
  102e19:	90                   	nop
  102e1a:	5d                   	pop    %rbp
  102e1b:	c3                   	ret

0000000000102e1c <set_IDT_entry>:
  102e1c:	55                   	push   %rbp
  102e1d:	48 89 e5             	mov    %rsp,%rbp
  102e20:	89 7d fc             	mov    %edi,-0x4(%rbp)
  102e23:	48 89 75 f0          	mov    %rsi,-0x10(%rbp)
  102e27:	48 8b 45 f0          	mov    -0x10(%rbp),%rax
  102e2b:	48 c1 e8 20          	shr    $0x20,%rax
  102e2f:	89 c2                	mov    %eax,%edx
  102e31:	8b 45 fc             	mov    -0x4(%rbp),%eax
  102e34:	48 98                	cltq
  102e36:	48 c1 e0 04          	shl    $0x4,%rax
  102e3a:	48 05 48 b0 10 00    	add    $0x10b048,%rax
  102e40:	89 10                	mov    %edx,(%rax)
  102e42:	48 8b 45 f0          	mov    -0x10(%rbp),%rax
  102e46:	48 c1 e8 10          	shr    $0x10,%rax
  102e4a:	89 c2                	mov    %eax,%edx
  102e4c:	8b 45 fc             	mov    -0x4(%rbp),%eax
  102e4f:	48 98                	cltq
  102e51:	48 c1 e0 04          	shl    $0x4,%rax
  102e55:	48 05 46 b0 10 00    	add    $0x10b046,%rax
  102e5b:	66 89 10             	mov    %dx,(%rax)
  102e5e:	48 8b 45 f0          	mov    -0x10(%rbp),%rax
  102e62:	89 c2                	mov    %eax,%edx
  102e64:	8b 45 fc             	mov    -0x4(%rbp),%eax
  102e67:	48 98                	cltq
  102e69:	48 c1 e0 04          	shl    $0x4,%rax
  102e6d:	48 05 40 b0 10 00    	add    $0x10b040,%rax
  102e73:	66 89 10             	mov    %dx,(%rax)
  102e76:	90                   	nop
  102e77:	5d                   	pop    %rbp
  102e78:	c3                   	ret

0000000000102e79 <IRQ_set_mask>:
  102e79:	55                   	push   %rbp
  102e7a:	48 89 e5             	mov    %rsp,%rbp
  102e7d:	48 83 ec 20          	sub    $0x20,%rsp
  102e81:	89 f8                	mov    %edi,%eax
  102e83:	88 45 ec             	mov    %al,-0x14(%rbp)
  102e86:	80 7d ec 07          	cmpb   $0x7,-0x14(%rbp)
  102e8a:	77 08                	ja     102e94 <IRQ_set_mask+0x1b>
  102e8c:	66 c7 45 fe 21 00    	movw   $0x21,-0x2(%rbp)
  102e92:	eb 0a                	jmp    102e9e <IRQ_set_mask+0x25>
  102e94:	66 c7 45 fe a1 00    	movw   $0xa1,-0x2(%rbp)
  102e9a:	80 6d ec 08          	subb   $0x8,-0x14(%rbp)
  102e9e:	0f b7 45 fe          	movzwl -0x2(%rbp),%eax
  102ea2:	89 c7                	mov    %eax,%edi
  102ea4:	e8 5f 44 00 00       	call   107308 <inb>
  102ea9:	89 c6                	mov    %eax,%esi
  102eab:	0f b6 45 ec          	movzbl -0x14(%rbp),%eax
  102eaf:	ba 01 00 00 00       	mov    $0x1,%edx
  102eb4:	89 c1                	mov    %eax,%ecx
  102eb6:	d3 e2                	shl    %cl,%edx
  102eb8:	89 d0                	mov    %edx,%eax
  102eba:	09 f0                	or     %esi,%eax
  102ebc:	88 45 fd             	mov    %al,-0x3(%rbp)
  102ebf:	0f b6 55 fd          	movzbl -0x3(%rbp),%edx
  102ec3:	0f b7 45 fe          	movzwl -0x2(%rbp),%eax
  102ec7:	89 d6                	mov    %edx,%esi
  102ec9:	89 c7                	mov    %eax,%edi
  102ecb:	e8 1d 44 00 00       	call   1072ed <outb>
  102ed0:	90                   	nop
  102ed1:	c9                   	leave
  102ed2:	c3                   	ret

0000000000102ed3 <IRQ_clear_mask>:
  102ed3:	55                   	push   %rbp
  102ed4:	48 89 e5             	mov    %rsp,%rbp
  102ed7:	48 83 ec 20          	sub    $0x20,%rsp
  102edb:	89 f8                	mov    %edi,%eax
  102edd:	88 45 ec             	mov    %al,-0x14(%rbp)
  102ee0:	80 7d ec 07          	cmpb   $0x7,-0x14(%rbp)
  102ee4:	77 08                	ja     102eee <IRQ_clear_mask+0x1b>
  102ee6:	66 c7 45 fe 21 00    	movw   $0x21,-0x2(%rbp)
  102eec:	eb 0a                	jmp    102ef8 <IRQ_clear_mask+0x25>
  102eee:	66 c7 45 fe a1 00    	movw   $0xa1,-0x2(%rbp)
  102ef4:	80 6d ec 08          	subb   $0x8,-0x14(%rbp)
  102ef8:	0f b7 45 fe          	movzwl -0x2(%rbp),%eax
  102efc:	89 c7                	mov    %eax,%edi
  102efe:	e8 05 44 00 00       	call   107308 <inb>
  102f03:	89 c6                	mov    %eax,%esi
  102f05:	0f b6 45 ec          	movzbl -0x14(%rbp),%eax
  102f09:	ba 01 00 00 00       	mov    $0x1,%edx
  102f0e:	89 c1                	mov    %eax,%ecx
  102f10:	d3 e2                	shl    %cl,%edx
  102f12:	89 d0                	mov    %edx,%eax
  102f14:	f7 d0                	not    %eax
  102f16:	21 f0                	and    %esi,%eax
  102f18:	88 45 fd             	mov    %al,-0x3(%rbp)
  102f1b:	0f b6 55 fd          	movzbl -0x3(%rbp),%edx
  102f1f:	0f b7 45 fe          	movzwl -0x2(%rbp),%eax
  102f23:	89 d6                	mov    %edx,%esi
  102f25:	89 c7                	mov    %eax,%edi
  102f27:	e8 c1 43 00 00       	call   1072ed <outb>
  102f2c:	90                   	nop
  102f2d:	c9                   	leave
  102f2e:	c3                   	ret

0000000000102f2f <IRQ_get_mask>:
  102f2f:	55                   	push   %rbp
  102f30:	48 89 e5             	mov    %rsp,%rbp
  102f33:	48 83 ec 20          	sub    $0x20,%rsp
  102f37:	89 7d ec             	mov    %edi,-0x14(%rbp)
  102f3a:	83 7d ec 07          	cmpl   $0x7,-0x14(%rbp)
  102f3e:	7f 08                	jg     102f48 <IRQ_get_mask+0x19>
  102f40:	66 c7 45 fe 21 00    	movw   $0x21,-0x2(%rbp)
  102f46:	eb 0a                	jmp    102f52 <IRQ_get_mask+0x23>
  102f48:	66 c7 45 fe a1 00    	movw   $0xa1,-0x2(%rbp)
  102f4e:	83 6d ec 08          	subl   $0x8,-0x14(%rbp)
  102f52:	0f b7 45 fe          	movzwl -0x2(%rbp),%eax
  102f56:	89 c7                	mov    %eax,%edi
  102f58:	e8 ab 43 00 00       	call   107308 <inb>
  102f5d:	89 c6                	mov    %eax,%esi
  102f5f:	8b 45 ec             	mov    -0x14(%rbp),%eax
  102f62:	ba 01 00 00 00       	mov    $0x1,%edx
  102f67:	89 c1                	mov    %eax,%ecx
  102f69:	d3 e2                	shl    %cl,%edx
  102f6b:	89 d0                	mov    %edx,%eax
  102f6d:	21 f0                	and    %esi,%eax
  102f6f:	88 45 fd             	mov    %al,-0x3(%rbp)
  102f72:	0f b6 45 fd          	movzbl -0x3(%rbp),%eax
  102f76:	c9                   	leave
  102f77:	c3                   	ret

0000000000102f78 <IRQ_end_of_interrupt>:
  102f78:	55                   	push   %rbp
  102f79:	48 89 e5             	mov    %rsp,%rbp
  102f7c:	48 83 ec 10          	sub    $0x10,%rsp
  102f80:	89 7d fc             	mov    %edi,-0x4(%rbp)
  102f83:	83 7d fc 07          	cmpl   $0x7,-0x4(%rbp)
  102f87:	7e 0f                	jle    102f98 <IRQ_end_of_interrupt+0x20>
  102f89:	be 20 00 00 00       	mov    $0x20,%esi
  102f8e:	bf a0 00 00 00       	mov    $0xa0,%edi
  102f93:	e8 55 43 00 00       	call   1072ed <outb>
  102f98:	be 20 00 00 00       	mov    $0x20,%esi
  102f9d:	bf 20 00 00 00       	mov    $0x20,%edi
  102fa2:	e8 46 43 00 00       	call   1072ed <outb>
  102fa7:	90                   	nop
  102fa8:	c9                   	leave
  102fa9:	c3                   	ret

0000000000102faa <IRQ_set_handler>:
  102faa:	55                   	push   %rbp
  102fab:	48 89 e5             	mov    %rsp,%rbp
  102fae:	89 f8                	mov    %edi,%eax
  102fb0:	48 89 75 f0          	mov    %rsi,-0x10(%rbp)
  102fb4:	48 89 55 e8          	mov    %rdx,-0x18(%rbp)
  102fb8:	88 45 fc             	mov    %al,-0x4(%rbp)
  102fbb:	0f b6 45 fc          	movzbl -0x4(%rbp),%eax
  102fbf:	48 98                	cltq
  102fc1:	48 c1 e0 04          	shl    $0x4,%rax
  102fc5:	48 8d 90 48 c0 10 00 	lea    0x10c048(%rax),%rdx
  102fcc:	48 8b 45 f0          	mov    -0x10(%rbp),%rax
  102fd0:	48 89 02             	mov    %rax,(%rdx)
  102fd3:	0f b6 45 fc          	movzbl -0x4(%rbp),%eax
  102fd7:	48 98                	cltq
  102fd9:	48 c1 e0 04          	shl    $0x4,%rax
  102fdd:	48 8d 90 40 c0 10 00 	lea    0x10c040(%rax),%rdx
  102fe4:	48 8b 45 e8          	mov    -0x18(%rbp),%rax
  102fe8:	48 89 02             	mov    %rax,(%rdx)
  102feb:	90                   	nop
  102fec:	5d                   	pop    %rbp
  102fed:	c3                   	ret

0000000000102fee <__pic_get_irq_reg>:
  102fee:	55                   	push   %rbp
  102fef:	48 89 e5             	mov    %rsp,%rbp
  102ff2:	53                   	push   %rbx
  102ff3:	48 83 ec 18          	sub    $0x18,%rsp
  102ff7:	89 7d ec             	mov    %edi,-0x14(%rbp)
  102ffa:	8b 45 ec             	mov    -0x14(%rbp),%eax
  102ffd:	0f b6 c0             	movzbl %al,%eax
  103000:	89 c6                	mov    %eax,%esi
  103002:	bf 20 00 00 00       	mov    $0x20,%edi
  103007:	e8 e1 42 00 00       	call   1072ed <outb>
  10300c:	8b 45 ec             	mov    -0x14(%rbp),%eax
  10300f:	0f b6 c0             	movzbl %al,%eax
  103012:	89 c6                	mov    %eax,%esi
  103014:	bf a0 00 00 00       	mov    $0xa0,%edi
  103019:	e8 cf 42 00 00       	call   1072ed <outb>
  10301e:	bf a0 00 00 00       	mov    $0xa0,%edi
  103023:	e8 e0 42 00 00       	call   107308 <inb>
  103028:	0f b6 c0             	movzbl %al,%eax
  10302b:	c1 e0 08             	shl    $0x8,%eax
  10302e:	89 c3                	mov    %eax,%ebx
  103030:	bf 20 00 00 00       	mov    $0x20,%edi
  103035:	e8 ce 42 00 00       	call   107308 <inb>
  10303a:	0f b6 c0             	movzbl %al,%eax
  10303d:	09 d8                	or     %ebx,%eax
  10303f:	48 8b 5d f8          	mov    -0x8(%rbp),%rbx
  103043:	c9                   	leave
  103044:	c3                   	ret

0000000000103045 <pic_get_irr>:
  103045:	55                   	push   %rbp
  103046:	48 89 e5             	mov    %rsp,%rbp
  103049:	bf 0a 00 00 00       	mov    $0xa,%edi
  10304e:	e8 9b ff ff ff       	call   102fee <__pic_get_irq_reg>
  103053:	5d                   	pop    %rbp
  103054:	c3                   	ret

0000000000103055 <pic_get_isr>:
  103055:	55                   	push   %rbp
  103056:	48 89 e5             	mov    %rsp,%rbp
  103059:	bf 0b 00 00 00       	mov    $0xb,%edi
  10305e:	e8 8b ff ff ff       	call   102fee <__pic_get_irq_reg>
  103063:	5d                   	pop    %rbp
  103064:	c3                   	ret

0000000000103065 <init_IRQ_entries>:
  103065:	55                   	push   %rbp
  103066:	48 89 e5             	mov    %rsp,%rbp
  103069:	b8 a5 19 10 00       	mov    $0x1019a5,%eax
  10306e:	48 89 c6             	mov    %rax,%rsi
  103071:	bf 00 00 00 00       	mov    $0x0,%edi
  103076:	e8 a1 fd ff ff       	call   102e1c <set_IDT_entry>
  10307b:	b8 b2 19 10 00       	mov    $0x1019b2,%eax
  103080:	48 89 c6             	mov    %rax,%rsi
  103083:	bf 01 00 00 00       	mov    $0x1,%edi
  103088:	e8 8f fd ff ff       	call   102e1c <set_IDT_entry>
  10308d:	b8 bf 19 10 00       	mov    $0x1019bf,%eax
  103092:	48 89 c6             	mov    %rax,%rsi
  103095:	bf 02 00 00 00       	mov    $0x2,%edi
  10309a:	e8 7d fd ff ff       	call   102e1c <set_IDT_entry>
  10309f:	b8 cc 19 10 00       	mov    $0x1019cc,%eax
  1030a4:	48 89 c6             	mov    %rax,%rsi
  1030a7:	bf 03 00 00 00       	mov    $0x3,%edi
  1030ac:	e8 6b fd ff ff       	call   102e1c <set_IDT_entry>
  1030b1:	b8 d9 19 10 00       	mov    $0x1019d9,%eax
  1030b6:	48 89 c6             	mov    %rax,%rsi
  1030b9:	bf 04 00 00 00       	mov    $0x4,%edi
  1030be:	e8 59 fd ff ff       	call   102e1c <set_IDT_entry>
  1030c3:	b8 e6 19 10 00       	mov    $0x1019e6,%eax
  1030c8:	48 89 c6             	mov    %rax,%rsi
  1030cb:	bf 05 00 00 00       	mov    $0x5,%edi
  1030d0:	e8 47 fd ff ff       	call   102e1c <set_IDT_entry>
  1030d5:	b8 f3 19 10 00       	mov    $0x1019f3,%eax
  1030da:	48 89 c6             	mov    %rax,%rsi
  1030dd:	bf 06 00 00 00       	mov    $0x6,%edi
  1030e2:	e8 35 fd ff ff       	call   102e1c <set_IDT_entry>
  1030e7:	b8 00 1a 10 00       	mov    $0x101a00,%eax
  1030ec:	48 89 c6             	mov    %rax,%rsi
  1030ef:	bf 07 00 00 00       	mov    $0x7,%edi
  1030f4:	e8 23 fd ff ff       	call   102e1c <set_IDT_entry>
  1030f9:	b8 10 1a 10 00       	mov    $0x101a10,%eax
  1030fe:	48 89 c6             	mov    %rax,%rsi
  103101:	bf 08 00 00 00       	mov    $0x8,%edi
  103106:	e8 11 fd ff ff       	call   102e1c <set_IDT_entry>
  10310b:	b8 1f 1a 10 00       	mov    $0x101a1f,%eax
  103110:	48 89 c6             	mov    %rax,%rsi
  103113:	bf 09 00 00 00       	mov    $0x9,%edi
  103118:	e8 ff fc ff ff       	call   102e1c <set_IDT_entry>
  10311d:	b8 2f 1a 10 00       	mov    $0x101a2f,%eax
  103122:	48 89 c6             	mov    %rax,%rsi
  103125:	bf 0a 00 00 00       	mov    $0xa,%edi
  10312a:	e8 ed fc ff ff       	call   102e1c <set_IDT_entry>
  10312f:	b8 3e 1a 10 00       	mov    $0x101a3e,%eax
  103134:	48 89 c6             	mov    %rax,%rsi
  103137:	bf 0b 00 00 00       	mov    $0xb,%edi
  10313c:	e8 db fc ff ff       	call   102e1c <set_IDT_entry>
  103141:	b8 4d 1a 10 00       	mov    $0x101a4d,%eax
  103146:	48 89 c6             	mov    %rax,%rsi
  103149:	bf 0c 00 00 00       	mov    $0xc,%edi
  10314e:	e8 c9 fc ff ff       	call   102e1c <set_IDT_entry>
  103153:	b8 5c 1a 10 00       	mov    $0x101a5c,%eax
  103158:	48 89 c6             	mov    %rax,%rsi
  10315b:	bf 0d 00 00 00       	mov    $0xd,%edi
  103160:	e8 b7 fc ff ff       	call   102e1c <set_IDT_entry>
  103165:	b8 6b 1a 10 00       	mov    $0x101a6b,%eax
  10316a:	48 89 c6             	mov    %rax,%rsi
  10316d:	bf 0e 00 00 00       	mov    $0xe,%edi
  103172:	e8 a5 fc ff ff       	call   102e1c <set_IDT_entry>
  103177:	b8 7a 1a 10 00       	mov    $0x101a7a,%eax
  10317c:	48 89 c6             	mov    %rax,%rsi
  10317f:	bf 0f 00 00 00       	mov    $0xf,%edi
  103184:	e8 93 fc ff ff       	call   102e1c <set_IDT_entry>
  103189:	b8 8a 1a 10 00       	mov    $0x101a8a,%eax
  10318e:	48 89 c6             	mov    %rax,%rsi
  103191:	bf 10 00 00 00       	mov    $0x10,%edi
  103196:	e8 81 fc ff ff       	call   102e1c <set_IDT_entry>
  10319b:	b8 9a 1a 10 00       	mov    $0x101a9a,%eax
  1031a0:	48 89 c6             	mov    %rax,%rsi
  1031a3:	bf 11 00 00 00       	mov    $0x11,%edi
  1031a8:	e8 6f fc ff ff       	call   102e1c <set_IDT_entry>
  1031ad:	b8 aa 1a 10 00       	mov    $0x101aaa,%eax
  1031b2:	48 89 c6             	mov    %rax,%rsi
  1031b5:	bf 12 00 00 00       	mov    $0x12,%edi
  1031ba:	e8 5d fc ff ff       	call   102e1c <set_IDT_entry>
  1031bf:	b8 ba 1a 10 00       	mov    $0x101aba,%eax
  1031c4:	48 89 c6             	mov    %rax,%rsi
  1031c7:	bf 13 00 00 00       	mov    $0x13,%edi
  1031cc:	e8 4b fc ff ff       	call   102e1c <set_IDT_entry>
  1031d1:	b8 ca 1a 10 00       	mov    $0x101aca,%eax
  1031d6:	48 89 c6             	mov    %rax,%rsi
  1031d9:	bf 14 00 00 00       	mov    $0x14,%edi
  1031de:	e8 39 fc ff ff       	call   102e1c <set_IDT_entry>
  1031e3:	b8 da 1a 10 00       	mov    $0x101ada,%eax
  1031e8:	48 89 c6             	mov    %rax,%rsi
  1031eb:	bf 15 00 00 00       	mov    $0x15,%edi
  1031f0:	e8 27 fc ff ff       	call   102e1c <set_IDT_entry>
  1031f5:	b8 ea 1a 10 00       	mov    $0x101aea,%eax
  1031fa:	48 89 c6             	mov    %rax,%rsi
  1031fd:	bf 16 00 00 00       	mov    $0x16,%edi
  103202:	e8 15 fc ff ff       	call   102e1c <set_IDT_entry>
  103207:	b8 fa 1a 10 00       	mov    $0x101afa,%eax
  10320c:	48 89 c6             	mov    %rax,%rsi
  10320f:	bf 17 00 00 00       	mov    $0x17,%edi
  103214:	e8 03 fc ff ff       	call   102e1c <set_IDT_entry>
  103219:	b8 0a 1b 10 00       	mov    $0x101b0a,%eax
  10321e:	48 89 c6             	mov    %rax,%rsi
  103221:	bf 18 00 00 00       	mov    $0x18,%edi
  103226:	e8 f1 fb ff ff       	call   102e1c <set_IDT_entry>
  10322b:	b8 1a 1b 10 00       	mov    $0x101b1a,%eax
  103230:	48 89 c6             	mov    %rax,%rsi
  103233:	bf 19 00 00 00       	mov    $0x19,%edi
  103238:	e8 df fb ff ff       	call   102e1c <set_IDT_entry>
  10323d:	b8 2a 1b 10 00       	mov    $0x101b2a,%eax
  103242:	48 89 c6             	mov    %rax,%rsi
  103245:	bf 1a 00 00 00       	mov    $0x1a,%edi
  10324a:	e8 cd fb ff ff       	call   102e1c <set_IDT_entry>
  10324f:	b8 3a 1b 10 00       	mov    $0x101b3a,%eax
  103254:	48 89 c6             	mov    %rax,%rsi
  103257:	bf 1b 00 00 00       	mov    $0x1b,%edi
  10325c:	e8 bb fb ff ff       	call   102e1c <set_IDT_entry>
  103261:	b8 4a 1b 10 00       	mov    $0x101b4a,%eax
  103266:	48 89 c6             	mov    %rax,%rsi
  103269:	bf 1c 00 00 00       	mov    $0x1c,%edi
  10326e:	e8 a9 fb ff ff       	call   102e1c <set_IDT_entry>
  103273:	b8 5a 1b 10 00       	mov    $0x101b5a,%eax
  103278:	48 89 c6             	mov    %rax,%rsi
  10327b:	bf 1d 00 00 00       	mov    $0x1d,%edi
  103280:	e8 97 fb ff ff       	call   102e1c <set_IDT_entry>
  103285:	b8 6a 1b 10 00       	mov    $0x101b6a,%eax
  10328a:	48 89 c6             	mov    %rax,%rsi
  10328d:	bf 1e 00 00 00       	mov    $0x1e,%edi
  103292:	e8 85 fb ff ff       	call   102e1c <set_IDT_entry>
  103297:	b8 7a 1b 10 00       	mov    $0x101b7a,%eax
  10329c:	48 89 c6             	mov    %rax,%rsi
  10329f:	bf 1f 00 00 00       	mov    $0x1f,%edi
  1032a4:	e8 73 fb ff ff       	call   102e1c <set_IDT_entry>
  1032a9:	b8 8a 1b 10 00       	mov    $0x101b8a,%eax
  1032ae:	48 89 c6             	mov    %rax,%rsi
  1032b1:	bf 20 00 00 00       	mov    $0x20,%edi
  1032b6:	e8 61 fb ff ff       	call   102e1c <set_IDT_entry>
  1032bb:	b8 9a 1b 10 00       	mov    $0x101b9a,%eax
  1032c0:	48 89 c6             	mov    %rax,%rsi
  1032c3:	bf 21 00 00 00       	mov    $0x21,%edi
  1032c8:	e8 4f fb ff ff       	call   102e1c <set_IDT_entry>
  1032cd:	b8 aa 1b 10 00       	mov    $0x101baa,%eax
  1032d2:	48 89 c6             	mov    %rax,%rsi
  1032d5:	bf 22 00 00 00       	mov    $0x22,%edi
  1032da:	e8 3d fb ff ff       	call   102e1c <set_IDT_entry>
  1032df:	b8 ba 1b 10 00       	mov    $0x101bba,%eax
  1032e4:	48 89 c6             	mov    %rax,%rsi
  1032e7:	bf 23 00 00 00       	mov    $0x23,%edi
  1032ec:	e8 2b fb ff ff       	call   102e1c <set_IDT_entry>
  1032f1:	b8 ca 1b 10 00       	mov    $0x101bca,%eax
  1032f6:	48 89 c6             	mov    %rax,%rsi
  1032f9:	bf 24 00 00 00       	mov    $0x24,%edi
  1032fe:	e8 19 fb ff ff       	call   102e1c <set_IDT_entry>
  103303:	b8 da 1b 10 00       	mov    $0x101bda,%eax
  103308:	48 89 c6             	mov    %rax,%rsi
  10330b:	bf 25 00 00 00       	mov    $0x25,%edi
  103310:	e8 07 fb ff ff       	call   102e1c <set_IDT_entry>
  103315:	b8 ea 1b 10 00       	mov    $0x101bea,%eax
  10331a:	48 89 c6             	mov    %rax,%rsi
  10331d:	bf 26 00 00 00       	mov    $0x26,%edi
  103322:	e8 f5 fa ff ff       	call   102e1c <set_IDT_entry>
  103327:	b8 fa 1b 10 00       	mov    $0x101bfa,%eax
  10332c:	48 89 c6             	mov    %rax,%rsi
  10332f:	bf 27 00 00 00       	mov    $0x27,%edi
  103334:	e8 e3 fa ff ff       	call   102e1c <set_IDT_entry>
  103339:	b8 0a 1c 10 00       	mov    $0x101c0a,%eax
  10333e:	48 89 c6             	mov    %rax,%rsi
  103341:	bf 28 00 00 00       	mov    $0x28,%edi
  103346:	e8 d1 fa ff ff       	call   102e1c <set_IDT_entry>
  10334b:	b8 1a 1c 10 00       	mov    $0x101c1a,%eax
  103350:	48 89 c6             	mov    %rax,%rsi
  103353:	bf 29 00 00 00       	mov    $0x29,%edi
  103358:	e8 bf fa ff ff       	call   102e1c <set_IDT_entry>
  10335d:	b8 2a 1c 10 00       	mov    $0x101c2a,%eax
  103362:	48 89 c6             	mov    %rax,%rsi
  103365:	bf 2a 00 00 00       	mov    $0x2a,%edi
  10336a:	e8 ad fa ff ff       	call   102e1c <set_IDT_entry>
  10336f:	b8 3a 1c 10 00       	mov    $0x101c3a,%eax
  103374:	48 89 c6             	mov    %rax,%rsi
  103377:	bf 2b 00 00 00       	mov    $0x2b,%edi
  10337c:	e8 9b fa ff ff       	call   102e1c <set_IDT_entry>
  103381:	b8 4a 1c 10 00       	mov    $0x101c4a,%eax
  103386:	48 89 c6             	mov    %rax,%rsi
  103389:	bf 2c 00 00 00       	mov    $0x2c,%edi
  10338e:	e8 89 fa ff ff       	call   102e1c <set_IDT_entry>
  103393:	b8 5a 1c 10 00       	mov    $0x101c5a,%eax
  103398:	48 89 c6             	mov    %rax,%rsi
  10339b:	bf 2d 00 00 00       	mov    $0x2d,%edi
  1033a0:	e8 77 fa ff ff       	call   102e1c <set_IDT_entry>
  1033a5:	b8 6a 1c 10 00       	mov    $0x101c6a,%eax
  1033aa:	48 89 c6             	mov    %rax,%rsi
  1033ad:	bf 2e 00 00 00       	mov    $0x2e,%edi
  1033b2:	e8 65 fa ff ff       	call   102e1c <set_IDT_entry>
  1033b7:	b8 7a 1c 10 00       	mov    $0x101c7a,%eax
  1033bc:	48 89 c6             	mov    %rax,%rsi
  1033bf:	bf 2f 00 00 00       	mov    $0x2f,%edi
  1033c4:	e8 53 fa ff ff       	call   102e1c <set_IDT_entry>
  1033c9:	b8 8a 1c 10 00       	mov    $0x101c8a,%eax
  1033ce:	48 89 c6             	mov    %rax,%rsi
  1033d1:	bf 30 00 00 00       	mov    $0x30,%edi
  1033d6:	e8 41 fa ff ff       	call   102e1c <set_IDT_entry>
  1033db:	b8 9a 1c 10 00       	mov    $0x101c9a,%eax
  1033e0:	48 89 c6             	mov    %rax,%rsi
  1033e3:	bf 31 00 00 00       	mov    $0x31,%edi
  1033e8:	e8 2f fa ff ff       	call   102e1c <set_IDT_entry>
  1033ed:	b8 aa 1c 10 00       	mov    $0x101caa,%eax
  1033f2:	48 89 c6             	mov    %rax,%rsi
  1033f5:	bf 32 00 00 00       	mov    $0x32,%edi
  1033fa:	e8 1d fa ff ff       	call   102e1c <set_IDT_entry>
  1033ff:	b8 ba 1c 10 00       	mov    $0x101cba,%eax
  103404:	48 89 c6             	mov    %rax,%rsi
  103407:	bf 33 00 00 00       	mov    $0x33,%edi
  10340c:	e8 0b fa ff ff       	call   102e1c <set_IDT_entry>
  103411:	b8 ca 1c 10 00       	mov    $0x101cca,%eax
  103416:	48 89 c6             	mov    %rax,%rsi
  103419:	bf 34 00 00 00       	mov    $0x34,%edi
  10341e:	e8 f9 f9 ff ff       	call   102e1c <set_IDT_entry>
  103423:	b8 da 1c 10 00       	mov    $0x101cda,%eax
  103428:	48 89 c6             	mov    %rax,%rsi
  10342b:	bf 35 00 00 00       	mov    $0x35,%edi
  103430:	e8 e7 f9 ff ff       	call   102e1c <set_IDT_entry>
  103435:	b8 ea 1c 10 00       	mov    $0x101cea,%eax
  10343a:	48 89 c6             	mov    %rax,%rsi
  10343d:	bf 36 00 00 00       	mov    $0x36,%edi
  103442:	e8 d5 f9 ff ff       	call   102e1c <set_IDT_entry>
  103447:	b8 fa 1c 10 00       	mov    $0x101cfa,%eax
  10344c:	48 89 c6             	mov    %rax,%rsi
  10344f:	bf 37 00 00 00       	mov    $0x37,%edi
  103454:	e8 c3 f9 ff ff       	call   102e1c <set_IDT_entry>
  103459:	b8 0a 1d 10 00       	mov    $0x101d0a,%eax
  10345e:	48 89 c6             	mov    %rax,%rsi
  103461:	bf 38 00 00 00       	mov    $0x38,%edi
  103466:	e8 b1 f9 ff ff       	call   102e1c <set_IDT_entry>
  10346b:	b8 1a 1d 10 00       	mov    $0x101d1a,%eax
  103470:	48 89 c6             	mov    %rax,%rsi
  103473:	bf 39 00 00 00       	mov    $0x39,%edi
  103478:	e8 9f f9 ff ff       	call   102e1c <set_IDT_entry>
  10347d:	b8 2a 1d 10 00       	mov    $0x101d2a,%eax
  103482:	48 89 c6             	mov    %rax,%rsi
  103485:	bf 3a 00 00 00       	mov    $0x3a,%edi
  10348a:	e8 8d f9 ff ff       	call   102e1c <set_IDT_entry>
  10348f:	b8 3a 1d 10 00       	mov    $0x101d3a,%eax
  103494:	48 89 c6             	mov    %rax,%rsi
  103497:	bf 3b 00 00 00       	mov    $0x3b,%edi
  10349c:	e8 7b f9 ff ff       	call   102e1c <set_IDT_entry>
  1034a1:	b8 4a 1d 10 00       	mov    $0x101d4a,%eax
  1034a6:	48 89 c6             	mov    %rax,%rsi
  1034a9:	bf 3c 00 00 00       	mov    $0x3c,%edi
  1034ae:	e8 69 f9 ff ff       	call   102e1c <set_IDT_entry>
  1034b3:	b8 5a 1d 10 00       	mov    $0x101d5a,%eax
  1034b8:	48 89 c6             	mov    %rax,%rsi
  1034bb:	bf 3d 00 00 00       	mov    $0x3d,%edi
  1034c0:	e8 57 f9 ff ff       	call   102e1c <set_IDT_entry>
  1034c5:	b8 6a 1d 10 00       	mov    $0x101d6a,%eax
  1034ca:	48 89 c6             	mov    %rax,%rsi
  1034cd:	bf 3e 00 00 00       	mov    $0x3e,%edi
  1034d2:	e8 45 f9 ff ff       	call   102e1c <set_IDT_entry>
  1034d7:	b8 7a 1d 10 00       	mov    $0x101d7a,%eax
  1034dc:	48 89 c6             	mov    %rax,%rsi
  1034df:	bf 3f 00 00 00       	mov    $0x3f,%edi
  1034e4:	e8 33 f9 ff ff       	call   102e1c <set_IDT_entry>
  1034e9:	b8 8a 1d 10 00       	mov    $0x101d8a,%eax
  1034ee:	48 89 c6             	mov    %rax,%rsi
  1034f1:	bf 40 00 00 00       	mov    $0x40,%edi
  1034f6:	e8 21 f9 ff ff       	call   102e1c <set_IDT_entry>
  1034fb:	b8 9a 1d 10 00       	mov    $0x101d9a,%eax
  103500:	48 89 c6             	mov    %rax,%rsi
  103503:	bf 41 00 00 00       	mov    $0x41,%edi
  103508:	e8 0f f9 ff ff       	call   102e1c <set_IDT_entry>
  10350d:	b8 aa 1d 10 00       	mov    $0x101daa,%eax
  103512:	48 89 c6             	mov    %rax,%rsi
  103515:	bf 42 00 00 00       	mov    $0x42,%edi
  10351a:	e8 fd f8 ff ff       	call   102e1c <set_IDT_entry>
  10351f:	b8 ba 1d 10 00       	mov    $0x101dba,%eax
  103524:	48 89 c6             	mov    %rax,%rsi
  103527:	bf 43 00 00 00       	mov    $0x43,%edi
  10352c:	e8 eb f8 ff ff       	call   102e1c <set_IDT_entry>
  103531:	b8 ca 1d 10 00       	mov    $0x101dca,%eax
  103536:	48 89 c6             	mov    %rax,%rsi
  103539:	bf 44 00 00 00       	mov    $0x44,%edi
  10353e:	e8 d9 f8 ff ff       	call   102e1c <set_IDT_entry>
  103543:	b8 da 1d 10 00       	mov    $0x101dda,%eax
  103548:	48 89 c6             	mov    %rax,%rsi
  10354b:	bf 45 00 00 00       	mov    $0x45,%edi
  103550:	e8 c7 f8 ff ff       	call   102e1c <set_IDT_entry>
  103555:	b8 ea 1d 10 00       	mov    $0x101dea,%eax
  10355a:	48 89 c6             	mov    %rax,%rsi
  10355d:	bf 46 00 00 00       	mov    $0x46,%edi
  103562:	e8 b5 f8 ff ff       	call   102e1c <set_IDT_entry>
  103567:	b8 fa 1d 10 00       	mov    $0x101dfa,%eax
  10356c:	48 89 c6             	mov    %rax,%rsi
  10356f:	bf 47 00 00 00       	mov    $0x47,%edi
  103574:	e8 a3 f8 ff ff       	call   102e1c <set_IDT_entry>
  103579:	b8 0a 1e 10 00       	mov    $0x101e0a,%eax
  10357e:	48 89 c6             	mov    %rax,%rsi
  103581:	bf 48 00 00 00       	mov    $0x48,%edi
  103586:	e8 91 f8 ff ff       	call   102e1c <set_IDT_entry>
  10358b:	b8 1a 1e 10 00       	mov    $0x101e1a,%eax
  103590:	48 89 c6             	mov    %rax,%rsi
  103593:	bf 49 00 00 00       	mov    $0x49,%edi
  103598:	e8 7f f8 ff ff       	call   102e1c <set_IDT_entry>
  10359d:	b8 2a 1e 10 00       	mov    $0x101e2a,%eax
  1035a2:	48 89 c6             	mov    %rax,%rsi
  1035a5:	bf 4a 00 00 00       	mov    $0x4a,%edi
  1035aa:	e8 6d f8 ff ff       	call   102e1c <set_IDT_entry>
  1035af:	b8 3a 1e 10 00       	mov    $0x101e3a,%eax
  1035b4:	48 89 c6             	mov    %rax,%rsi
  1035b7:	bf 4b 00 00 00       	mov    $0x4b,%edi
  1035bc:	e8 5b f8 ff ff       	call   102e1c <set_IDT_entry>
  1035c1:	b8 4a 1e 10 00       	mov    $0x101e4a,%eax
  1035c6:	48 89 c6             	mov    %rax,%rsi
  1035c9:	bf 4c 00 00 00       	mov    $0x4c,%edi
  1035ce:	e8 49 f8 ff ff       	call   102e1c <set_IDT_entry>
  1035d3:	b8 5a 1e 10 00       	mov    $0x101e5a,%eax
  1035d8:	48 89 c6             	mov    %rax,%rsi
  1035db:	bf 4d 00 00 00       	mov    $0x4d,%edi
  1035e0:	e8 37 f8 ff ff       	call   102e1c <set_IDT_entry>
  1035e5:	b8 6a 1e 10 00       	mov    $0x101e6a,%eax
  1035ea:	48 89 c6             	mov    %rax,%rsi
  1035ed:	bf 4e 00 00 00       	mov    $0x4e,%edi
  1035f2:	e8 25 f8 ff ff       	call   102e1c <set_IDT_entry>
  1035f7:	b8 7a 1e 10 00       	mov    $0x101e7a,%eax
  1035fc:	48 89 c6             	mov    %rax,%rsi
  1035ff:	bf 4f 00 00 00       	mov    $0x4f,%edi
  103604:	e8 13 f8 ff ff       	call   102e1c <set_IDT_entry>
  103609:	b8 8a 1e 10 00       	mov    $0x101e8a,%eax
  10360e:	48 89 c6             	mov    %rax,%rsi
  103611:	bf 50 00 00 00       	mov    $0x50,%edi
  103616:	e8 01 f8 ff ff       	call   102e1c <set_IDT_entry>
  10361b:	b8 9a 1e 10 00       	mov    $0x101e9a,%eax
  103620:	48 89 c6             	mov    %rax,%rsi
  103623:	bf 51 00 00 00       	mov    $0x51,%edi
  103628:	e8 ef f7 ff ff       	call   102e1c <set_IDT_entry>
  10362d:	b8 aa 1e 10 00       	mov    $0x101eaa,%eax
  103632:	48 89 c6             	mov    %rax,%rsi
  103635:	bf 52 00 00 00       	mov    $0x52,%edi
  10363a:	e8 dd f7 ff ff       	call   102e1c <set_IDT_entry>
  10363f:	b8 ba 1e 10 00       	mov    $0x101eba,%eax
  103644:	48 89 c6             	mov    %rax,%rsi
  103647:	bf 53 00 00 00       	mov    $0x53,%edi
  10364c:	e8 cb f7 ff ff       	call   102e1c <set_IDT_entry>
  103651:	b8 ca 1e 10 00       	mov    $0x101eca,%eax
  103656:	48 89 c6             	mov    %rax,%rsi
  103659:	bf 54 00 00 00       	mov    $0x54,%edi
  10365e:	e8 b9 f7 ff ff       	call   102e1c <set_IDT_entry>
  103663:	b8 da 1e 10 00       	mov    $0x101eda,%eax
  103668:	48 89 c6             	mov    %rax,%rsi
  10366b:	bf 55 00 00 00       	mov    $0x55,%edi
  103670:	e8 a7 f7 ff ff       	call   102e1c <set_IDT_entry>
  103675:	b8 ea 1e 10 00       	mov    $0x101eea,%eax
  10367a:	48 89 c6             	mov    %rax,%rsi
  10367d:	bf 56 00 00 00       	mov    $0x56,%edi
  103682:	e8 95 f7 ff ff       	call   102e1c <set_IDT_entry>
  103687:	b8 fa 1e 10 00       	mov    $0x101efa,%eax
  10368c:	48 89 c6             	mov    %rax,%rsi
  10368f:	bf 57 00 00 00       	mov    $0x57,%edi
  103694:	e8 83 f7 ff ff       	call   102e1c <set_IDT_entry>
  103699:	b8 0a 1f 10 00       	mov    $0x101f0a,%eax
  10369e:	48 89 c6             	mov    %rax,%rsi
  1036a1:	bf 58 00 00 00       	mov    $0x58,%edi
  1036a6:	e8 71 f7 ff ff       	call   102e1c <set_IDT_entry>
  1036ab:	b8 1a 1f 10 00       	mov    $0x101f1a,%eax
  1036b0:	48 89 c6             	mov    %rax,%rsi
  1036b3:	bf 59 00 00 00       	mov    $0x59,%edi
  1036b8:	e8 5f f7 ff ff       	call   102e1c <set_IDT_entry>
  1036bd:	b8 2a 1f 10 00       	mov    $0x101f2a,%eax
  1036c2:	48 89 c6             	mov    %rax,%rsi
  1036c5:	bf 5a 00 00 00       	mov    $0x5a,%edi
  1036ca:	e8 4d f7 ff ff       	call   102e1c <set_IDT_entry>
  1036cf:	b8 3a 1f 10 00       	mov    $0x101f3a,%eax
  1036d4:	48 89 c6             	mov    %rax,%rsi
  1036d7:	bf 5b 00 00 00       	mov    $0x5b,%edi
  1036dc:	e8 3b f7 ff ff       	call   102e1c <set_IDT_entry>
  1036e1:	b8 4a 1f 10 00       	mov    $0x101f4a,%eax
  1036e6:	48 89 c6             	mov    %rax,%rsi
  1036e9:	bf 5c 00 00 00       	mov    $0x5c,%edi
  1036ee:	e8 29 f7 ff ff       	call   102e1c <set_IDT_entry>
  1036f3:	b8 5a 1f 10 00       	mov    $0x101f5a,%eax
  1036f8:	48 89 c6             	mov    %rax,%rsi
  1036fb:	bf 5d 00 00 00       	mov    $0x5d,%edi
  103700:	e8 17 f7 ff ff       	call   102e1c <set_IDT_entry>
  103705:	b8 6a 1f 10 00       	mov    $0x101f6a,%eax
  10370a:	48 89 c6             	mov    %rax,%rsi
  10370d:	bf 5e 00 00 00       	mov    $0x5e,%edi
  103712:	e8 05 f7 ff ff       	call   102e1c <set_IDT_entry>
  103717:	b8 7a 1f 10 00       	mov    $0x101f7a,%eax
  10371c:	48 89 c6             	mov    %rax,%rsi
  10371f:	bf 5f 00 00 00       	mov    $0x5f,%edi
  103724:	e8 f3 f6 ff ff       	call   102e1c <set_IDT_entry>
  103729:	b8 8a 1f 10 00       	mov    $0x101f8a,%eax
  10372e:	48 89 c6             	mov    %rax,%rsi
  103731:	bf 60 00 00 00       	mov    $0x60,%edi
  103736:	e8 e1 f6 ff ff       	call   102e1c <set_IDT_entry>
  10373b:	b8 9a 1f 10 00       	mov    $0x101f9a,%eax
  103740:	48 89 c6             	mov    %rax,%rsi
  103743:	bf 61 00 00 00       	mov    $0x61,%edi
  103748:	e8 cf f6 ff ff       	call   102e1c <set_IDT_entry>
  10374d:	b8 aa 1f 10 00       	mov    $0x101faa,%eax
  103752:	48 89 c6             	mov    %rax,%rsi
  103755:	bf 62 00 00 00       	mov    $0x62,%edi
  10375a:	e8 bd f6 ff ff       	call   102e1c <set_IDT_entry>
  10375f:	b8 ba 1f 10 00       	mov    $0x101fba,%eax
  103764:	48 89 c6             	mov    %rax,%rsi
  103767:	bf 63 00 00 00       	mov    $0x63,%edi
  10376c:	e8 ab f6 ff ff       	call   102e1c <set_IDT_entry>
  103771:	b8 ca 1f 10 00       	mov    $0x101fca,%eax
  103776:	48 89 c6             	mov    %rax,%rsi
  103779:	bf 64 00 00 00       	mov    $0x64,%edi
  10377e:	e8 99 f6 ff ff       	call   102e1c <set_IDT_entry>
  103783:	b8 da 1f 10 00       	mov    $0x101fda,%eax
  103788:	48 89 c6             	mov    %rax,%rsi
  10378b:	bf 65 00 00 00       	mov    $0x65,%edi
  103790:	e8 87 f6 ff ff       	call   102e1c <set_IDT_entry>
  103795:	b8 ea 1f 10 00       	mov    $0x101fea,%eax
  10379a:	48 89 c6             	mov    %rax,%rsi
  10379d:	bf 66 00 00 00       	mov    $0x66,%edi
  1037a2:	e8 75 f6 ff ff       	call   102e1c <set_IDT_entry>
  1037a7:	b8 fa 1f 10 00       	mov    $0x101ffa,%eax
  1037ac:	48 89 c6             	mov    %rax,%rsi
  1037af:	bf 67 00 00 00       	mov    $0x67,%edi
  1037b4:	e8 63 f6 ff ff       	call   102e1c <set_IDT_entry>
  1037b9:	b8 0a 20 10 00       	mov    $0x10200a,%eax
  1037be:	48 89 c6             	mov    %rax,%rsi
  1037c1:	bf 68 00 00 00       	mov    $0x68,%edi
  1037c6:	e8 51 f6 ff ff       	call   102e1c <set_IDT_entry>
  1037cb:	b8 1a 20 10 00       	mov    $0x10201a,%eax
  1037d0:	48 89 c6             	mov    %rax,%rsi
  1037d3:	bf 69 00 00 00       	mov    $0x69,%edi
  1037d8:	e8 3f f6 ff ff       	call   102e1c <set_IDT_entry>
  1037dd:	b8 2a 20 10 00       	mov    $0x10202a,%eax
  1037e2:	48 89 c6             	mov    %rax,%rsi
  1037e5:	bf 6a 00 00 00       	mov    $0x6a,%edi
  1037ea:	e8 2d f6 ff ff       	call   102e1c <set_IDT_entry>
  1037ef:	b8 3a 20 10 00       	mov    $0x10203a,%eax
  1037f4:	48 89 c6             	mov    %rax,%rsi
  1037f7:	bf 6b 00 00 00       	mov    $0x6b,%edi
  1037fc:	e8 1b f6 ff ff       	call   102e1c <set_IDT_entry>
  103801:	b8 4a 20 10 00       	mov    $0x10204a,%eax
  103806:	48 89 c6             	mov    %rax,%rsi
  103809:	bf 6c 00 00 00       	mov    $0x6c,%edi
  10380e:	e8 09 f6 ff ff       	call   102e1c <set_IDT_entry>
  103813:	b8 5a 20 10 00       	mov    $0x10205a,%eax
  103818:	48 89 c6             	mov    %rax,%rsi
  10381b:	bf 6d 00 00 00       	mov    $0x6d,%edi
  103820:	e8 f7 f5 ff ff       	call   102e1c <set_IDT_entry>
  103825:	b8 6a 20 10 00       	mov    $0x10206a,%eax
  10382a:	48 89 c6             	mov    %rax,%rsi
  10382d:	bf 6e 00 00 00       	mov    $0x6e,%edi
  103832:	e8 e5 f5 ff ff       	call   102e1c <set_IDT_entry>
  103837:	b8 7a 20 10 00       	mov    $0x10207a,%eax
  10383c:	48 89 c6             	mov    %rax,%rsi
  10383f:	bf 6f 00 00 00       	mov    $0x6f,%edi
  103844:	e8 d3 f5 ff ff       	call   102e1c <set_IDT_entry>
  103849:	b8 8a 20 10 00       	mov    $0x10208a,%eax
  10384e:	48 89 c6             	mov    %rax,%rsi
  103851:	bf 70 00 00 00       	mov    $0x70,%edi
  103856:	e8 c1 f5 ff ff       	call   102e1c <set_IDT_entry>
  10385b:	b8 9a 20 10 00       	mov    $0x10209a,%eax
  103860:	48 89 c6             	mov    %rax,%rsi
  103863:	bf 71 00 00 00       	mov    $0x71,%edi
  103868:	e8 af f5 ff ff       	call   102e1c <set_IDT_entry>
  10386d:	b8 aa 20 10 00       	mov    $0x1020aa,%eax
  103872:	48 89 c6             	mov    %rax,%rsi
  103875:	bf 72 00 00 00       	mov    $0x72,%edi
  10387a:	e8 9d f5 ff ff       	call   102e1c <set_IDT_entry>
  10387f:	b8 ba 20 10 00       	mov    $0x1020ba,%eax
  103884:	48 89 c6             	mov    %rax,%rsi
  103887:	bf 73 00 00 00       	mov    $0x73,%edi
  10388c:	e8 8b f5 ff ff       	call   102e1c <set_IDT_entry>
  103891:	b8 ca 20 10 00       	mov    $0x1020ca,%eax
  103896:	48 89 c6             	mov    %rax,%rsi
  103899:	bf 74 00 00 00       	mov    $0x74,%edi
  10389e:	e8 79 f5 ff ff       	call   102e1c <set_IDT_entry>
  1038a3:	b8 da 20 10 00       	mov    $0x1020da,%eax
  1038a8:	48 89 c6             	mov    %rax,%rsi
  1038ab:	bf 75 00 00 00       	mov    $0x75,%edi
  1038b0:	e8 67 f5 ff ff       	call   102e1c <set_IDT_entry>
  1038b5:	b8 ea 20 10 00       	mov    $0x1020ea,%eax
  1038ba:	48 89 c6             	mov    %rax,%rsi
  1038bd:	bf 76 00 00 00       	mov    $0x76,%edi
  1038c2:	e8 55 f5 ff ff       	call   102e1c <set_IDT_entry>
  1038c7:	b8 fa 20 10 00       	mov    $0x1020fa,%eax
  1038cc:	48 89 c6             	mov    %rax,%rsi
  1038cf:	bf 77 00 00 00       	mov    $0x77,%edi
  1038d4:	e8 43 f5 ff ff       	call   102e1c <set_IDT_entry>
  1038d9:	b8 0a 21 10 00       	mov    $0x10210a,%eax
  1038de:	48 89 c6             	mov    %rax,%rsi
  1038e1:	bf 78 00 00 00       	mov    $0x78,%edi
  1038e6:	e8 31 f5 ff ff       	call   102e1c <set_IDT_entry>
  1038eb:	b8 1a 21 10 00       	mov    $0x10211a,%eax
  1038f0:	48 89 c6             	mov    %rax,%rsi
  1038f3:	bf 79 00 00 00       	mov    $0x79,%edi
  1038f8:	e8 1f f5 ff ff       	call   102e1c <set_IDT_entry>
  1038fd:	b8 2a 21 10 00       	mov    $0x10212a,%eax
  103902:	48 89 c6             	mov    %rax,%rsi
  103905:	bf 7a 00 00 00       	mov    $0x7a,%edi
  10390a:	e8 0d f5 ff ff       	call   102e1c <set_IDT_entry>
  10390f:	b8 3a 21 10 00       	mov    $0x10213a,%eax
  103914:	48 89 c6             	mov    %rax,%rsi
  103917:	bf 7b 00 00 00       	mov    $0x7b,%edi
  10391c:	e8 fb f4 ff ff       	call   102e1c <set_IDT_entry>
  103921:	b8 4a 21 10 00       	mov    $0x10214a,%eax
  103926:	48 89 c6             	mov    %rax,%rsi
  103929:	bf 7c 00 00 00       	mov    $0x7c,%edi
  10392e:	e8 e9 f4 ff ff       	call   102e1c <set_IDT_entry>
  103933:	b8 5a 21 10 00       	mov    $0x10215a,%eax
  103938:	48 89 c6             	mov    %rax,%rsi
  10393b:	bf 7d 00 00 00       	mov    $0x7d,%edi
  103940:	e8 d7 f4 ff ff       	call   102e1c <set_IDT_entry>
  103945:	b8 6a 21 10 00       	mov    $0x10216a,%eax
  10394a:	48 89 c6             	mov    %rax,%rsi
  10394d:	bf 7e 00 00 00       	mov    $0x7e,%edi
  103952:	e8 c5 f4 ff ff       	call   102e1c <set_IDT_entry>
  103957:	b8 7a 21 10 00       	mov    $0x10217a,%eax
  10395c:	48 89 c6             	mov    %rax,%rsi
  10395f:	bf 7f 00 00 00       	mov    $0x7f,%edi
  103964:	e8 b3 f4 ff ff       	call   102e1c <set_IDT_entry>
  103969:	b8 8a 21 10 00       	mov    $0x10218a,%eax
  10396e:	48 89 c6             	mov    %rax,%rsi
  103971:	bf 80 00 00 00       	mov    $0x80,%edi
  103976:	e8 a1 f4 ff ff       	call   102e1c <set_IDT_entry>
  10397b:	b8 9a 21 10 00       	mov    $0x10219a,%eax
  103980:	48 89 c6             	mov    %rax,%rsi
  103983:	bf 81 00 00 00       	mov    $0x81,%edi
  103988:	e8 8f f4 ff ff       	call   102e1c <set_IDT_entry>
  10398d:	b8 aa 21 10 00       	mov    $0x1021aa,%eax
  103992:	48 89 c6             	mov    %rax,%rsi
  103995:	bf 82 00 00 00       	mov    $0x82,%edi
  10399a:	e8 7d f4 ff ff       	call   102e1c <set_IDT_entry>
  10399f:	b8 ba 21 10 00       	mov    $0x1021ba,%eax
  1039a4:	48 89 c6             	mov    %rax,%rsi
  1039a7:	bf 83 00 00 00       	mov    $0x83,%edi
  1039ac:	e8 6b f4 ff ff       	call   102e1c <set_IDT_entry>
  1039b1:	b8 ca 21 10 00       	mov    $0x1021ca,%eax
  1039b6:	48 89 c6             	mov    %rax,%rsi
  1039b9:	bf 84 00 00 00       	mov    $0x84,%edi
  1039be:	e8 59 f4 ff ff       	call   102e1c <set_IDT_entry>
  1039c3:	b8 da 21 10 00       	mov    $0x1021da,%eax
  1039c8:	48 89 c6             	mov    %rax,%rsi
  1039cb:	bf 85 00 00 00       	mov    $0x85,%edi
  1039d0:	e8 47 f4 ff ff       	call   102e1c <set_IDT_entry>
  1039d5:	b8 ea 21 10 00       	mov    $0x1021ea,%eax
  1039da:	48 89 c6             	mov    %rax,%rsi
  1039dd:	bf 86 00 00 00       	mov    $0x86,%edi
  1039e2:	e8 35 f4 ff ff       	call   102e1c <set_IDT_entry>
  1039e7:	b8 fa 21 10 00       	mov    $0x1021fa,%eax
  1039ec:	48 89 c6             	mov    %rax,%rsi
  1039ef:	bf 87 00 00 00       	mov    $0x87,%edi
  1039f4:	e8 23 f4 ff ff       	call   102e1c <set_IDT_entry>
  1039f9:	b8 0a 22 10 00       	mov    $0x10220a,%eax
  1039fe:	48 89 c6             	mov    %rax,%rsi
  103a01:	bf 88 00 00 00       	mov    $0x88,%edi
  103a06:	e8 11 f4 ff ff       	call   102e1c <set_IDT_entry>
  103a0b:	b8 1a 22 10 00       	mov    $0x10221a,%eax
  103a10:	48 89 c6             	mov    %rax,%rsi
  103a13:	bf 89 00 00 00       	mov    $0x89,%edi
  103a18:	e8 ff f3 ff ff       	call   102e1c <set_IDT_entry>
  103a1d:	b8 2a 22 10 00       	mov    $0x10222a,%eax
  103a22:	48 89 c6             	mov    %rax,%rsi
  103a25:	bf 8a 00 00 00       	mov    $0x8a,%edi
  103a2a:	e8 ed f3 ff ff       	call   102e1c <set_IDT_entry>
  103a2f:	b8 3a 22 10 00       	mov    $0x10223a,%eax
  103a34:	48 89 c6             	mov    %rax,%rsi
  103a37:	bf 8b 00 00 00       	mov    $0x8b,%edi
  103a3c:	e8 db f3 ff ff       	call   102e1c <set_IDT_entry>
  103a41:	b8 4a 22 10 00       	mov    $0x10224a,%eax
  103a46:	48 89 c6             	mov    %rax,%rsi
  103a49:	bf 8c 00 00 00       	mov    $0x8c,%edi
  103a4e:	e8 c9 f3 ff ff       	call   102e1c <set_IDT_entry>
  103a53:	b8 5a 22 10 00       	mov    $0x10225a,%eax
  103a58:	48 89 c6             	mov    %rax,%rsi
  103a5b:	bf 8d 00 00 00       	mov    $0x8d,%edi
  103a60:	e8 b7 f3 ff ff       	call   102e1c <set_IDT_entry>
  103a65:	b8 6a 22 10 00       	mov    $0x10226a,%eax
  103a6a:	48 89 c6             	mov    %rax,%rsi
  103a6d:	bf 8e 00 00 00       	mov    $0x8e,%edi
  103a72:	e8 a5 f3 ff ff       	call   102e1c <set_IDT_entry>
  103a77:	b8 7a 22 10 00       	mov    $0x10227a,%eax
  103a7c:	48 89 c6             	mov    %rax,%rsi
  103a7f:	bf 8f 00 00 00       	mov    $0x8f,%edi
  103a84:	e8 93 f3 ff ff       	call   102e1c <set_IDT_entry>
  103a89:	b8 8a 22 10 00       	mov    $0x10228a,%eax
  103a8e:	48 89 c6             	mov    %rax,%rsi
  103a91:	bf 90 00 00 00       	mov    $0x90,%edi
  103a96:	e8 81 f3 ff ff       	call   102e1c <set_IDT_entry>
  103a9b:	b8 9a 22 10 00       	mov    $0x10229a,%eax
  103aa0:	48 89 c6             	mov    %rax,%rsi
  103aa3:	bf 91 00 00 00       	mov    $0x91,%edi
  103aa8:	e8 6f f3 ff ff       	call   102e1c <set_IDT_entry>
  103aad:	b8 aa 22 10 00       	mov    $0x1022aa,%eax
  103ab2:	48 89 c6             	mov    %rax,%rsi
  103ab5:	bf 92 00 00 00       	mov    $0x92,%edi
  103aba:	e8 5d f3 ff ff       	call   102e1c <set_IDT_entry>
  103abf:	b8 ba 22 10 00       	mov    $0x1022ba,%eax
  103ac4:	48 89 c6             	mov    %rax,%rsi
  103ac7:	bf 93 00 00 00       	mov    $0x93,%edi
  103acc:	e8 4b f3 ff ff       	call   102e1c <set_IDT_entry>
  103ad1:	b8 ca 22 10 00       	mov    $0x1022ca,%eax
  103ad6:	48 89 c6             	mov    %rax,%rsi
  103ad9:	bf 94 00 00 00       	mov    $0x94,%edi
  103ade:	e8 39 f3 ff ff       	call   102e1c <set_IDT_entry>
  103ae3:	b8 da 22 10 00       	mov    $0x1022da,%eax
  103ae8:	48 89 c6             	mov    %rax,%rsi
  103aeb:	bf 95 00 00 00       	mov    $0x95,%edi
  103af0:	e8 27 f3 ff ff       	call   102e1c <set_IDT_entry>
  103af5:	b8 ea 22 10 00       	mov    $0x1022ea,%eax
  103afa:	48 89 c6             	mov    %rax,%rsi
  103afd:	bf 96 00 00 00       	mov    $0x96,%edi
  103b02:	e8 15 f3 ff ff       	call   102e1c <set_IDT_entry>
  103b07:	b8 fa 22 10 00       	mov    $0x1022fa,%eax
  103b0c:	48 89 c6             	mov    %rax,%rsi
  103b0f:	bf 97 00 00 00       	mov    $0x97,%edi
  103b14:	e8 03 f3 ff ff       	call   102e1c <set_IDT_entry>
  103b19:	b8 0a 23 10 00       	mov    $0x10230a,%eax
  103b1e:	48 89 c6             	mov    %rax,%rsi
  103b21:	bf 98 00 00 00       	mov    $0x98,%edi
  103b26:	e8 f1 f2 ff ff       	call   102e1c <set_IDT_entry>
  103b2b:	b8 1a 23 10 00       	mov    $0x10231a,%eax
  103b30:	48 89 c6             	mov    %rax,%rsi
  103b33:	bf 99 00 00 00       	mov    $0x99,%edi
  103b38:	e8 df f2 ff ff       	call   102e1c <set_IDT_entry>
  103b3d:	b8 2a 23 10 00       	mov    $0x10232a,%eax
  103b42:	48 89 c6             	mov    %rax,%rsi
  103b45:	bf 9a 00 00 00       	mov    $0x9a,%edi
  103b4a:	e8 cd f2 ff ff       	call   102e1c <set_IDT_entry>
  103b4f:	b8 3a 23 10 00       	mov    $0x10233a,%eax
  103b54:	48 89 c6             	mov    %rax,%rsi
  103b57:	bf 9b 00 00 00       	mov    $0x9b,%edi
  103b5c:	e8 bb f2 ff ff       	call   102e1c <set_IDT_entry>
  103b61:	b8 4a 23 10 00       	mov    $0x10234a,%eax
  103b66:	48 89 c6             	mov    %rax,%rsi
  103b69:	bf 9c 00 00 00       	mov    $0x9c,%edi
  103b6e:	e8 a9 f2 ff ff       	call   102e1c <set_IDT_entry>
  103b73:	b8 5a 23 10 00       	mov    $0x10235a,%eax
  103b78:	48 89 c6             	mov    %rax,%rsi
  103b7b:	bf 9d 00 00 00       	mov    $0x9d,%edi
  103b80:	e8 97 f2 ff ff       	call   102e1c <set_IDT_entry>
  103b85:	b8 6a 23 10 00       	mov    $0x10236a,%eax
  103b8a:	48 89 c6             	mov    %rax,%rsi
  103b8d:	bf 9e 00 00 00       	mov    $0x9e,%edi
  103b92:	e8 85 f2 ff ff       	call   102e1c <set_IDT_entry>
  103b97:	b8 7a 23 10 00       	mov    $0x10237a,%eax
  103b9c:	48 89 c6             	mov    %rax,%rsi
  103b9f:	bf 9f 00 00 00       	mov    $0x9f,%edi
  103ba4:	e8 73 f2 ff ff       	call   102e1c <set_IDT_entry>
  103ba9:	b8 8a 23 10 00       	mov    $0x10238a,%eax
  103bae:	48 89 c6             	mov    %rax,%rsi
  103bb1:	bf a0 00 00 00       	mov    $0xa0,%edi
  103bb6:	e8 61 f2 ff ff       	call   102e1c <set_IDT_entry>
  103bbb:	b8 9a 23 10 00       	mov    $0x10239a,%eax
  103bc0:	48 89 c6             	mov    %rax,%rsi
  103bc3:	bf a1 00 00 00       	mov    $0xa1,%edi
  103bc8:	e8 4f f2 ff ff       	call   102e1c <set_IDT_entry>
  103bcd:	b8 aa 23 10 00       	mov    $0x1023aa,%eax
  103bd2:	48 89 c6             	mov    %rax,%rsi
  103bd5:	bf a2 00 00 00       	mov    $0xa2,%edi
  103bda:	e8 3d f2 ff ff       	call   102e1c <set_IDT_entry>
  103bdf:	b8 ba 23 10 00       	mov    $0x1023ba,%eax
  103be4:	48 89 c6             	mov    %rax,%rsi
  103be7:	bf a3 00 00 00       	mov    $0xa3,%edi
  103bec:	e8 2b f2 ff ff       	call   102e1c <set_IDT_entry>
  103bf1:	b8 ca 23 10 00       	mov    $0x1023ca,%eax
  103bf6:	48 89 c6             	mov    %rax,%rsi
  103bf9:	bf a4 00 00 00       	mov    $0xa4,%edi
  103bfe:	e8 19 f2 ff ff       	call   102e1c <set_IDT_entry>
  103c03:	b8 da 23 10 00       	mov    $0x1023da,%eax
  103c08:	48 89 c6             	mov    %rax,%rsi
  103c0b:	bf a5 00 00 00       	mov    $0xa5,%edi
  103c10:	e8 07 f2 ff ff       	call   102e1c <set_IDT_entry>
  103c15:	b8 ea 23 10 00       	mov    $0x1023ea,%eax
  103c1a:	48 89 c6             	mov    %rax,%rsi
  103c1d:	bf a6 00 00 00       	mov    $0xa6,%edi
  103c22:	e8 f5 f1 ff ff       	call   102e1c <set_IDT_entry>
  103c27:	b8 fa 23 10 00       	mov    $0x1023fa,%eax
  103c2c:	48 89 c6             	mov    %rax,%rsi
  103c2f:	bf a7 00 00 00       	mov    $0xa7,%edi
  103c34:	e8 e3 f1 ff ff       	call   102e1c <set_IDT_entry>
  103c39:	b8 0a 24 10 00       	mov    $0x10240a,%eax
  103c3e:	48 89 c6             	mov    %rax,%rsi
  103c41:	bf a8 00 00 00       	mov    $0xa8,%edi
  103c46:	e8 d1 f1 ff ff       	call   102e1c <set_IDT_entry>
  103c4b:	b8 1a 24 10 00       	mov    $0x10241a,%eax
  103c50:	48 89 c6             	mov    %rax,%rsi
  103c53:	bf a9 00 00 00       	mov    $0xa9,%edi
  103c58:	e8 bf f1 ff ff       	call   102e1c <set_IDT_entry>
  103c5d:	b8 2a 24 10 00       	mov    $0x10242a,%eax
  103c62:	48 89 c6             	mov    %rax,%rsi
  103c65:	bf aa 00 00 00       	mov    $0xaa,%edi
  103c6a:	e8 ad f1 ff ff       	call   102e1c <set_IDT_entry>
  103c6f:	b8 3a 24 10 00       	mov    $0x10243a,%eax
  103c74:	48 89 c6             	mov    %rax,%rsi
  103c77:	bf ab 00 00 00       	mov    $0xab,%edi
  103c7c:	e8 9b f1 ff ff       	call   102e1c <set_IDT_entry>
  103c81:	b8 4a 24 10 00       	mov    $0x10244a,%eax
  103c86:	48 89 c6             	mov    %rax,%rsi
  103c89:	bf ac 00 00 00       	mov    $0xac,%edi
  103c8e:	e8 89 f1 ff ff       	call   102e1c <set_IDT_entry>
  103c93:	b8 5a 24 10 00       	mov    $0x10245a,%eax
  103c98:	48 89 c6             	mov    %rax,%rsi
  103c9b:	bf ad 00 00 00       	mov    $0xad,%edi
  103ca0:	e8 77 f1 ff ff       	call   102e1c <set_IDT_entry>
  103ca5:	b8 6a 24 10 00       	mov    $0x10246a,%eax
  103caa:	48 89 c6             	mov    %rax,%rsi
  103cad:	bf ae 00 00 00       	mov    $0xae,%edi
  103cb2:	e8 65 f1 ff ff       	call   102e1c <set_IDT_entry>
  103cb7:	b8 7a 24 10 00       	mov    $0x10247a,%eax
  103cbc:	48 89 c6             	mov    %rax,%rsi
  103cbf:	bf af 00 00 00       	mov    $0xaf,%edi
  103cc4:	e8 53 f1 ff ff       	call   102e1c <set_IDT_entry>
  103cc9:	b8 8a 24 10 00       	mov    $0x10248a,%eax
  103cce:	48 89 c6             	mov    %rax,%rsi
  103cd1:	bf b0 00 00 00       	mov    $0xb0,%edi
  103cd6:	e8 41 f1 ff ff       	call   102e1c <set_IDT_entry>
  103cdb:	b8 9a 24 10 00       	mov    $0x10249a,%eax
  103ce0:	48 89 c6             	mov    %rax,%rsi
  103ce3:	bf b1 00 00 00       	mov    $0xb1,%edi
  103ce8:	e8 2f f1 ff ff       	call   102e1c <set_IDT_entry>
  103ced:	b8 aa 24 10 00       	mov    $0x1024aa,%eax
  103cf2:	48 89 c6             	mov    %rax,%rsi
  103cf5:	bf b2 00 00 00       	mov    $0xb2,%edi
  103cfa:	e8 1d f1 ff ff       	call   102e1c <set_IDT_entry>
  103cff:	b8 ba 24 10 00       	mov    $0x1024ba,%eax
  103d04:	48 89 c6             	mov    %rax,%rsi
  103d07:	bf b3 00 00 00       	mov    $0xb3,%edi
  103d0c:	e8 0b f1 ff ff       	call   102e1c <set_IDT_entry>
  103d11:	b8 ca 24 10 00       	mov    $0x1024ca,%eax
  103d16:	48 89 c6             	mov    %rax,%rsi
  103d19:	bf b4 00 00 00       	mov    $0xb4,%edi
  103d1e:	e8 f9 f0 ff ff       	call   102e1c <set_IDT_entry>
  103d23:	b8 da 24 10 00       	mov    $0x1024da,%eax
  103d28:	48 89 c6             	mov    %rax,%rsi
  103d2b:	bf b5 00 00 00       	mov    $0xb5,%edi
  103d30:	e8 e7 f0 ff ff       	call   102e1c <set_IDT_entry>
  103d35:	b8 ea 24 10 00       	mov    $0x1024ea,%eax
  103d3a:	48 89 c6             	mov    %rax,%rsi
  103d3d:	bf b6 00 00 00       	mov    $0xb6,%edi
  103d42:	e8 d5 f0 ff ff       	call   102e1c <set_IDT_entry>
  103d47:	b8 fa 24 10 00       	mov    $0x1024fa,%eax
  103d4c:	48 89 c6             	mov    %rax,%rsi
  103d4f:	bf b7 00 00 00       	mov    $0xb7,%edi
  103d54:	e8 c3 f0 ff ff       	call   102e1c <set_IDT_entry>
  103d59:	b8 0a 25 10 00       	mov    $0x10250a,%eax
  103d5e:	48 89 c6             	mov    %rax,%rsi
  103d61:	bf b8 00 00 00       	mov    $0xb8,%edi
  103d66:	e8 b1 f0 ff ff       	call   102e1c <set_IDT_entry>
  103d6b:	b8 1a 25 10 00       	mov    $0x10251a,%eax
  103d70:	48 89 c6             	mov    %rax,%rsi
  103d73:	bf b9 00 00 00       	mov    $0xb9,%edi
  103d78:	e8 9f f0 ff ff       	call   102e1c <set_IDT_entry>
  103d7d:	b8 2a 25 10 00       	mov    $0x10252a,%eax
  103d82:	48 89 c6             	mov    %rax,%rsi
  103d85:	bf ba 00 00 00       	mov    $0xba,%edi
  103d8a:	e8 8d f0 ff ff       	call   102e1c <set_IDT_entry>
  103d8f:	b8 3a 25 10 00       	mov    $0x10253a,%eax
  103d94:	48 89 c6             	mov    %rax,%rsi
  103d97:	bf bb 00 00 00       	mov    $0xbb,%edi
  103d9c:	e8 7b f0 ff ff       	call   102e1c <set_IDT_entry>
  103da1:	b8 4a 25 10 00       	mov    $0x10254a,%eax
  103da6:	48 89 c6             	mov    %rax,%rsi
  103da9:	bf bc 00 00 00       	mov    $0xbc,%edi
  103dae:	e8 69 f0 ff ff       	call   102e1c <set_IDT_entry>
  103db3:	b8 5a 25 10 00       	mov    $0x10255a,%eax
  103db8:	48 89 c6             	mov    %rax,%rsi
  103dbb:	bf bd 00 00 00       	mov    $0xbd,%edi
  103dc0:	e8 57 f0 ff ff       	call   102e1c <set_IDT_entry>
  103dc5:	b8 6a 25 10 00       	mov    $0x10256a,%eax
  103dca:	48 89 c6             	mov    %rax,%rsi
  103dcd:	bf be 00 00 00       	mov    $0xbe,%edi
  103dd2:	e8 45 f0 ff ff       	call   102e1c <set_IDT_entry>
  103dd7:	b8 7a 25 10 00       	mov    $0x10257a,%eax
  103ddc:	48 89 c6             	mov    %rax,%rsi
  103ddf:	bf bf 00 00 00       	mov    $0xbf,%edi
  103de4:	e8 33 f0 ff ff       	call   102e1c <set_IDT_entry>
  103de9:	b8 8a 25 10 00       	mov    $0x10258a,%eax
  103dee:	48 89 c6             	mov    %rax,%rsi
  103df1:	bf c0 00 00 00       	mov    $0xc0,%edi
  103df6:	e8 21 f0 ff ff       	call   102e1c <set_IDT_entry>
  103dfb:	b8 9a 25 10 00       	mov    $0x10259a,%eax
  103e00:	48 89 c6             	mov    %rax,%rsi
  103e03:	bf c1 00 00 00       	mov    $0xc1,%edi
  103e08:	e8 0f f0 ff ff       	call   102e1c <set_IDT_entry>
  103e0d:	b8 aa 25 10 00       	mov    $0x1025aa,%eax
  103e12:	48 89 c6             	mov    %rax,%rsi
  103e15:	bf c2 00 00 00       	mov    $0xc2,%edi
  103e1a:	e8 fd ef ff ff       	call   102e1c <set_IDT_entry>
  103e1f:	b8 ba 25 10 00       	mov    $0x1025ba,%eax
  103e24:	48 89 c6             	mov    %rax,%rsi
  103e27:	bf c3 00 00 00       	mov    $0xc3,%edi
  103e2c:	e8 eb ef ff ff       	call   102e1c <set_IDT_entry>
  103e31:	b8 ca 25 10 00       	mov    $0x1025ca,%eax
  103e36:	48 89 c6             	mov    %rax,%rsi
  103e39:	bf c4 00 00 00       	mov    $0xc4,%edi
  103e3e:	e8 d9 ef ff ff       	call   102e1c <set_IDT_entry>
  103e43:	b8 da 25 10 00       	mov    $0x1025da,%eax
  103e48:	48 89 c6             	mov    %rax,%rsi
  103e4b:	bf c5 00 00 00       	mov    $0xc5,%edi
  103e50:	e8 c7 ef ff ff       	call   102e1c <set_IDT_entry>
  103e55:	b8 ea 25 10 00       	mov    $0x1025ea,%eax
  103e5a:	48 89 c6             	mov    %rax,%rsi
  103e5d:	bf c6 00 00 00       	mov    $0xc6,%edi
  103e62:	e8 b5 ef ff ff       	call   102e1c <set_IDT_entry>
  103e67:	b8 fa 25 10 00       	mov    $0x1025fa,%eax
  103e6c:	48 89 c6             	mov    %rax,%rsi
  103e6f:	bf c7 00 00 00       	mov    $0xc7,%edi
  103e74:	e8 a3 ef ff ff       	call   102e1c <set_IDT_entry>
  103e79:	b8 0a 26 10 00       	mov    $0x10260a,%eax
  103e7e:	48 89 c6             	mov    %rax,%rsi
  103e81:	bf c8 00 00 00       	mov    $0xc8,%edi
  103e86:	e8 91 ef ff ff       	call   102e1c <set_IDT_entry>
  103e8b:	b8 1a 26 10 00       	mov    $0x10261a,%eax
  103e90:	48 89 c6             	mov    %rax,%rsi
  103e93:	bf c9 00 00 00       	mov    $0xc9,%edi
  103e98:	e8 7f ef ff ff       	call   102e1c <set_IDT_entry>
  103e9d:	b8 2a 26 10 00       	mov    $0x10262a,%eax
  103ea2:	48 89 c6             	mov    %rax,%rsi
  103ea5:	bf ca 00 00 00       	mov    $0xca,%edi
  103eaa:	e8 6d ef ff ff       	call   102e1c <set_IDT_entry>
  103eaf:	b8 3a 26 10 00       	mov    $0x10263a,%eax
  103eb4:	48 89 c6             	mov    %rax,%rsi
  103eb7:	bf cb 00 00 00       	mov    $0xcb,%edi
  103ebc:	e8 5b ef ff ff       	call   102e1c <set_IDT_entry>
  103ec1:	b8 4a 26 10 00       	mov    $0x10264a,%eax
  103ec6:	48 89 c6             	mov    %rax,%rsi
  103ec9:	bf cc 00 00 00       	mov    $0xcc,%edi
  103ece:	e8 49 ef ff ff       	call   102e1c <set_IDT_entry>
  103ed3:	b8 5a 26 10 00       	mov    $0x10265a,%eax
  103ed8:	48 89 c6             	mov    %rax,%rsi
  103edb:	bf cd 00 00 00       	mov    $0xcd,%edi
  103ee0:	e8 37 ef ff ff       	call   102e1c <set_IDT_entry>
  103ee5:	b8 6a 26 10 00       	mov    $0x10266a,%eax
  103eea:	48 89 c6             	mov    %rax,%rsi
  103eed:	bf ce 00 00 00       	mov    $0xce,%edi
  103ef2:	e8 25 ef ff ff       	call   102e1c <set_IDT_entry>
  103ef7:	b8 7a 26 10 00       	mov    $0x10267a,%eax
  103efc:	48 89 c6             	mov    %rax,%rsi
  103eff:	bf cf 00 00 00       	mov    $0xcf,%edi
  103f04:	e8 13 ef ff ff       	call   102e1c <set_IDT_entry>
  103f09:	b8 8a 26 10 00       	mov    $0x10268a,%eax
  103f0e:	48 89 c6             	mov    %rax,%rsi
  103f11:	bf d0 00 00 00       	mov    $0xd0,%edi
  103f16:	e8 01 ef ff ff       	call   102e1c <set_IDT_entry>
  103f1b:	b8 9a 26 10 00       	mov    $0x10269a,%eax
  103f20:	48 89 c6             	mov    %rax,%rsi
  103f23:	bf d1 00 00 00       	mov    $0xd1,%edi
  103f28:	e8 ef ee ff ff       	call   102e1c <set_IDT_entry>
  103f2d:	b8 aa 26 10 00       	mov    $0x1026aa,%eax
  103f32:	48 89 c6             	mov    %rax,%rsi
  103f35:	bf d2 00 00 00       	mov    $0xd2,%edi
  103f3a:	e8 dd ee ff ff       	call   102e1c <set_IDT_entry>
  103f3f:	b8 ba 26 10 00       	mov    $0x1026ba,%eax
  103f44:	48 89 c6             	mov    %rax,%rsi
  103f47:	bf d3 00 00 00       	mov    $0xd3,%edi
  103f4c:	e8 cb ee ff ff       	call   102e1c <set_IDT_entry>
  103f51:	b8 ca 26 10 00       	mov    $0x1026ca,%eax
  103f56:	48 89 c6             	mov    %rax,%rsi
  103f59:	bf d4 00 00 00       	mov    $0xd4,%edi
  103f5e:	e8 b9 ee ff ff       	call   102e1c <set_IDT_entry>
  103f63:	b8 da 26 10 00       	mov    $0x1026da,%eax
  103f68:	48 89 c6             	mov    %rax,%rsi
  103f6b:	bf d5 00 00 00       	mov    $0xd5,%edi
  103f70:	e8 a7 ee ff ff       	call   102e1c <set_IDT_entry>
  103f75:	b8 ea 26 10 00       	mov    $0x1026ea,%eax
  103f7a:	48 89 c6             	mov    %rax,%rsi
  103f7d:	bf d6 00 00 00       	mov    $0xd6,%edi
  103f82:	e8 95 ee ff ff       	call   102e1c <set_IDT_entry>
  103f87:	b8 fa 26 10 00       	mov    $0x1026fa,%eax
  103f8c:	48 89 c6             	mov    %rax,%rsi
  103f8f:	bf d7 00 00 00       	mov    $0xd7,%edi
  103f94:	e8 83 ee ff ff       	call   102e1c <set_IDT_entry>
  103f99:	b8 0a 27 10 00       	mov    $0x10270a,%eax
  103f9e:	48 89 c6             	mov    %rax,%rsi
  103fa1:	bf d8 00 00 00       	mov    $0xd8,%edi
  103fa6:	e8 71 ee ff ff       	call   102e1c <set_IDT_entry>
  103fab:	b8 1a 27 10 00       	mov    $0x10271a,%eax
  103fb0:	48 89 c6             	mov    %rax,%rsi
  103fb3:	bf d9 00 00 00       	mov    $0xd9,%edi
  103fb8:	e8 5f ee ff ff       	call   102e1c <set_IDT_entry>
  103fbd:	b8 2a 27 10 00       	mov    $0x10272a,%eax
  103fc2:	48 89 c6             	mov    %rax,%rsi
  103fc5:	bf da 00 00 00       	mov    $0xda,%edi
  103fca:	e8 4d ee ff ff       	call   102e1c <set_IDT_entry>
  103fcf:	b8 3a 27 10 00       	mov    $0x10273a,%eax
  103fd4:	48 89 c6             	mov    %rax,%rsi
  103fd7:	bf db 00 00 00       	mov    $0xdb,%edi
  103fdc:	e8 3b ee ff ff       	call   102e1c <set_IDT_entry>
  103fe1:	b8 4a 27 10 00       	mov    $0x10274a,%eax
  103fe6:	48 89 c6             	mov    %rax,%rsi
  103fe9:	bf dc 00 00 00       	mov    $0xdc,%edi
  103fee:	e8 29 ee ff ff       	call   102e1c <set_IDT_entry>
  103ff3:	b8 5a 27 10 00       	mov    $0x10275a,%eax
  103ff8:	48 89 c6             	mov    %rax,%rsi
  103ffb:	bf dd 00 00 00       	mov    $0xdd,%edi
  104000:	e8 17 ee ff ff       	call   102e1c <set_IDT_entry>
  104005:	b8 6a 27 10 00       	mov    $0x10276a,%eax
  10400a:	48 89 c6             	mov    %rax,%rsi
  10400d:	bf de 00 00 00       	mov    $0xde,%edi
  104012:	e8 05 ee ff ff       	call   102e1c <set_IDT_entry>
  104017:	b8 7a 27 10 00       	mov    $0x10277a,%eax
  10401c:	48 89 c6             	mov    %rax,%rsi
  10401f:	bf df 00 00 00       	mov    $0xdf,%edi
  104024:	e8 f3 ed ff ff       	call   102e1c <set_IDT_entry>
  104029:	b8 8a 27 10 00       	mov    $0x10278a,%eax
  10402e:	48 89 c6             	mov    %rax,%rsi
  104031:	bf e0 00 00 00       	mov    $0xe0,%edi
  104036:	e8 e1 ed ff ff       	call   102e1c <set_IDT_entry>
  10403b:	b8 9a 27 10 00       	mov    $0x10279a,%eax
  104040:	48 89 c6             	mov    %rax,%rsi
  104043:	bf e1 00 00 00       	mov    $0xe1,%edi
  104048:	e8 cf ed ff ff       	call   102e1c <set_IDT_entry>
  10404d:	b8 aa 27 10 00       	mov    $0x1027aa,%eax
  104052:	48 89 c6             	mov    %rax,%rsi
  104055:	bf e2 00 00 00       	mov    $0xe2,%edi
  10405a:	e8 bd ed ff ff       	call   102e1c <set_IDT_entry>
  10405f:	b8 ba 27 10 00       	mov    $0x1027ba,%eax
  104064:	48 89 c6             	mov    %rax,%rsi
  104067:	bf e3 00 00 00       	mov    $0xe3,%edi
  10406c:	e8 ab ed ff ff       	call   102e1c <set_IDT_entry>
  104071:	b8 ca 27 10 00       	mov    $0x1027ca,%eax
  104076:	48 89 c6             	mov    %rax,%rsi
  104079:	bf e4 00 00 00       	mov    $0xe4,%edi
  10407e:	e8 99 ed ff ff       	call   102e1c <set_IDT_entry>
  104083:	b8 da 27 10 00       	mov    $0x1027da,%eax
  104088:	48 89 c6             	mov    %rax,%rsi
  10408b:	bf e5 00 00 00       	mov    $0xe5,%edi
  104090:	e8 87 ed ff ff       	call   102e1c <set_IDT_entry>
  104095:	b8 ea 27 10 00       	mov    $0x1027ea,%eax
  10409a:	48 89 c6             	mov    %rax,%rsi
  10409d:	bf e6 00 00 00       	mov    $0xe6,%edi
  1040a2:	e8 75 ed ff ff       	call   102e1c <set_IDT_entry>
  1040a7:	b8 fa 27 10 00       	mov    $0x1027fa,%eax
  1040ac:	48 89 c6             	mov    %rax,%rsi
  1040af:	bf e7 00 00 00       	mov    $0xe7,%edi
  1040b4:	e8 63 ed ff ff       	call   102e1c <set_IDT_entry>
  1040b9:	b8 0a 28 10 00       	mov    $0x10280a,%eax
  1040be:	48 89 c6             	mov    %rax,%rsi
  1040c1:	bf e8 00 00 00       	mov    $0xe8,%edi
  1040c6:	e8 51 ed ff ff       	call   102e1c <set_IDT_entry>
  1040cb:	b8 1a 28 10 00       	mov    $0x10281a,%eax
  1040d0:	48 89 c6             	mov    %rax,%rsi
  1040d3:	bf e9 00 00 00       	mov    $0xe9,%edi
  1040d8:	e8 3f ed ff ff       	call   102e1c <set_IDT_entry>
  1040dd:	b8 2a 28 10 00       	mov    $0x10282a,%eax
  1040e2:	48 89 c6             	mov    %rax,%rsi
  1040e5:	bf ea 00 00 00       	mov    $0xea,%edi
  1040ea:	e8 2d ed ff ff       	call   102e1c <set_IDT_entry>
  1040ef:	b8 3a 28 10 00       	mov    $0x10283a,%eax
  1040f4:	48 89 c6             	mov    %rax,%rsi
  1040f7:	bf eb 00 00 00       	mov    $0xeb,%edi
  1040fc:	e8 1b ed ff ff       	call   102e1c <set_IDT_entry>
  104101:	b8 4a 28 10 00       	mov    $0x10284a,%eax
  104106:	48 89 c6             	mov    %rax,%rsi
  104109:	bf ec 00 00 00       	mov    $0xec,%edi
  10410e:	e8 09 ed ff ff       	call   102e1c <set_IDT_entry>
  104113:	b8 5a 28 10 00       	mov    $0x10285a,%eax
  104118:	48 89 c6             	mov    %rax,%rsi
  10411b:	bf ed 00 00 00       	mov    $0xed,%edi
  104120:	e8 f7 ec ff ff       	call   102e1c <set_IDT_entry>
  104125:	b8 6a 28 10 00       	mov    $0x10286a,%eax
  10412a:	48 89 c6             	mov    %rax,%rsi
  10412d:	bf ee 00 00 00       	mov    $0xee,%edi
  104132:	e8 e5 ec ff ff       	call   102e1c <set_IDT_entry>
  104137:	b8 7a 28 10 00       	mov    $0x10287a,%eax
  10413c:	48 89 c6             	mov    %rax,%rsi
  10413f:	bf ef 00 00 00       	mov    $0xef,%edi
  104144:	e8 d3 ec ff ff       	call   102e1c <set_IDT_entry>
  104149:	b8 8a 28 10 00       	mov    $0x10288a,%eax
  10414e:	48 89 c6             	mov    %rax,%rsi
  104151:	bf f0 00 00 00       	mov    $0xf0,%edi
  104156:	e8 c1 ec ff ff       	call   102e1c <set_IDT_entry>
  10415b:	b8 9a 28 10 00       	mov    $0x10289a,%eax
  104160:	48 89 c6             	mov    %rax,%rsi
  104163:	bf f1 00 00 00       	mov    $0xf1,%edi
  104168:	e8 af ec ff ff       	call   102e1c <set_IDT_entry>
  10416d:	b8 aa 28 10 00       	mov    $0x1028aa,%eax
  104172:	48 89 c6             	mov    %rax,%rsi
  104175:	bf f2 00 00 00       	mov    $0xf2,%edi
  10417a:	e8 9d ec ff ff       	call   102e1c <set_IDT_entry>
  10417f:	b8 ba 28 10 00       	mov    $0x1028ba,%eax
  104184:	48 89 c6             	mov    %rax,%rsi
  104187:	bf f3 00 00 00       	mov    $0xf3,%edi
  10418c:	e8 8b ec ff ff       	call   102e1c <set_IDT_entry>
  104191:	b8 ca 28 10 00       	mov    $0x1028ca,%eax
  104196:	48 89 c6             	mov    %rax,%rsi
  104199:	bf f4 00 00 00       	mov    $0xf4,%edi
  10419e:	e8 79 ec ff ff       	call   102e1c <set_IDT_entry>
  1041a3:	b8 da 28 10 00       	mov    $0x1028da,%eax
  1041a8:	48 89 c6             	mov    %rax,%rsi
  1041ab:	bf f5 00 00 00       	mov    $0xf5,%edi
  1041b0:	e8 67 ec ff ff       	call   102e1c <set_IDT_entry>
  1041b5:	b8 ea 28 10 00       	mov    $0x1028ea,%eax
  1041ba:	48 89 c6             	mov    %rax,%rsi
  1041bd:	bf f6 00 00 00       	mov    $0xf6,%edi
  1041c2:	e8 55 ec ff ff       	call   102e1c <set_IDT_entry>
  1041c7:	b8 fa 28 10 00       	mov    $0x1028fa,%eax
  1041cc:	48 89 c6             	mov    %rax,%rsi
  1041cf:	bf f7 00 00 00       	mov    $0xf7,%edi
  1041d4:	e8 43 ec ff ff       	call   102e1c <set_IDT_entry>
  1041d9:	b8 0a 29 10 00       	mov    $0x10290a,%eax
  1041de:	48 89 c6             	mov    %rax,%rsi
  1041e1:	bf f8 00 00 00       	mov    $0xf8,%edi
  1041e6:	e8 31 ec ff ff       	call   102e1c <set_IDT_entry>
  1041eb:	b8 1a 29 10 00       	mov    $0x10291a,%eax
  1041f0:	48 89 c6             	mov    %rax,%rsi
  1041f3:	bf f9 00 00 00       	mov    $0xf9,%edi
  1041f8:	e8 1f ec ff ff       	call   102e1c <set_IDT_entry>
  1041fd:	b8 2a 29 10 00       	mov    $0x10292a,%eax
  104202:	48 89 c6             	mov    %rax,%rsi
  104205:	bf fa 00 00 00       	mov    $0xfa,%edi
  10420a:	e8 0d ec ff ff       	call   102e1c <set_IDT_entry>
  10420f:	b8 3a 29 10 00       	mov    $0x10293a,%eax
  104214:	48 89 c6             	mov    %rax,%rsi
  104217:	bf fb 00 00 00       	mov    $0xfb,%edi
  10421c:	e8 fb eb ff ff       	call   102e1c <set_IDT_entry>
  104221:	b8 4a 29 10 00       	mov    $0x10294a,%eax
  104226:	48 89 c6             	mov    %rax,%rsi
  104229:	bf fc 00 00 00       	mov    $0xfc,%edi
  10422e:	e8 e9 eb ff ff       	call   102e1c <set_IDT_entry>
  104233:	b8 5a 29 10 00       	mov    $0x10295a,%eax
  104238:	48 89 c6             	mov    %rax,%rsi
  10423b:	bf fd 00 00 00       	mov    $0xfd,%edi
  104240:	e8 d7 eb ff ff       	call   102e1c <set_IDT_entry>
  104245:	b8 6a 29 10 00       	mov    $0x10296a,%eax
  10424a:	48 89 c6             	mov    %rax,%rsi
  10424d:	bf fe 00 00 00       	mov    $0xfe,%edi
  104252:	e8 c5 eb ff ff       	call   102e1c <set_IDT_entry>
  104257:	b8 7a 29 10 00       	mov    $0x10297a,%eax
  10425c:	48 89 c6             	mov    %rax,%rsi
  10425f:	bf ff 00 00 00       	mov    $0xff,%edi
  104264:	e8 b3 eb ff ff       	call   102e1c <set_IDT_entry>
  104269:	90                   	nop
  10426a:	5d                   	pop    %rbp
  10426b:	c3                   	ret

000000000010426c <init_pools>:
  10426c:	55                   	push   %rbp
  10426d:	48 89 e5             	mov    %rsp,%rbp
  104270:	c7 05 36 8e 00 00 20 	movl   $0x20,0x8e36(%rip)        # 10d0b0 <pool32>
  104277:	00 00 00 
  10427a:	c7 05 30 8e 00 00 00 	movl   $0x0,0x8e30(%rip)        # 10d0b4 <pool32+0x4>
  104281:	00 00 00 
  104284:	48 c7 05 29 8e 00 00 	movq   $0x0,0x8e29(%rip)        # 10d0b8 <pool32+0x8>
  10428b:	00 00 00 00 
  10428f:	c7 05 27 8e 00 00 40 	movl   $0x40,0x8e27(%rip)        # 10d0c0 <pool64>
  104296:	00 00 00 
  104299:	c7 05 21 8e 00 00 00 	movl   $0x0,0x8e21(%rip)        # 10d0c4 <pool64+0x4>
  1042a0:	00 00 00 
  1042a3:	48 c7 05 1a 8e 00 00 	movq   $0x0,0x8e1a(%rip)        # 10d0c8 <pool64+0x8>
  1042aa:	00 00 00 00 
  1042ae:	c7 05 18 8e 00 00 80 	movl   $0x80,0x8e18(%rip)        # 10d0d0 <pool128>
  1042b5:	00 00 00 
  1042b8:	c7 05 12 8e 00 00 00 	movl   $0x0,0x8e12(%rip)        # 10d0d4 <pool128+0x4>
  1042bf:	00 00 00 
  1042c2:	48 c7 05 0b 8e 00 00 	movq   $0x0,0x8e0b(%rip)        # 10d0d8 <pool128+0x8>
  1042c9:	00 00 00 00 
  1042cd:	c7 05 09 8e 00 00 00 	movl   $0x100,0x8e09(%rip)        # 10d0e0 <pool256>
  1042d4:	01 00 00 
  1042d7:	c7 05 03 8e 00 00 00 	movl   $0x0,0x8e03(%rip)        # 10d0e4 <pool256+0x4>
  1042de:	00 00 00 
  1042e1:	48 c7 05 fc 8d 00 00 	movq   $0x0,0x8dfc(%rip)        # 10d0e8 <pool256+0x8>
  1042e8:	00 00 00 00 
  1042ec:	c7 05 fa 8d 00 00 00 	movl   $0x200,0x8dfa(%rip)        # 10d0f0 <pool512>
  1042f3:	02 00 00 
  1042f6:	c7 05 f4 8d 00 00 00 	movl   $0x0,0x8df4(%rip)        # 10d0f4 <pool512+0x4>
  1042fd:	00 00 00 
  104300:	48 c7 05 ed 8d 00 00 	movq   $0x0,0x8ded(%rip)        # 10d0f8 <pool512+0x8>
  104307:	00 00 00 00 
  10430b:	c7 05 eb 8d 00 00 00 	movl   $0x400,0x8deb(%rip)        # 10d100 <pool1024>
  104312:	04 00 00 
  104315:	c7 05 e5 8d 00 00 00 	movl   $0x0,0x8de5(%rip)        # 10d104 <pool1024+0x4>
  10431c:	00 00 00 
  10431f:	48 c7 05 de 8d 00 00 	movq   $0x0,0x8dde(%rip)        # 10d108 <pool1024+0x8>
  104326:	00 00 00 00 
  10432a:	90                   	nop
  10432b:	5d                   	pop    %rbp
  10432c:	c3                   	ret

000000000010432d <find_best_pool>:
  10432d:	55                   	push   %rbp
  10432e:	48 89 e5             	mov    %rsp,%rbp
  104331:	48 89 7d f8          	mov    %rdi,-0x8(%rbp)
  104335:	48 83 7d f8 20       	cmpq   $0x20,-0x8(%rbp)
  10433a:	77 07                	ja     104343 <find_best_pool+0x16>
  10433c:	b8 b0 d0 10 00       	mov    $0x10d0b0,%eax
  104341:	eb 46                	jmp    104389 <find_best_pool+0x5c>
  104343:	48 83 7d f8 40       	cmpq   $0x40,-0x8(%rbp)
  104348:	77 07                	ja     104351 <find_best_pool+0x24>
  10434a:	b8 c0 d0 10 00       	mov    $0x10d0c0,%eax
  10434f:	eb 38                	jmp    104389 <find_best_pool+0x5c>
  104351:	48 81 7d f8 80 00 00 	cmpq   $0x80,-0x8(%rbp)
  104358:	00 
  104359:	77 07                	ja     104362 <find_best_pool+0x35>
  10435b:	b8 d0 d0 10 00       	mov    $0x10d0d0,%eax
  104360:	eb 27                	jmp    104389 <find_best_pool+0x5c>
  104362:	48 81 7d f8 00 01 00 	cmpq   $0x100,-0x8(%rbp)
  104369:	00 
  10436a:	77 07                	ja     104373 <find_best_pool+0x46>
  10436c:	b8 e0 d0 10 00       	mov    $0x10d0e0,%eax
  104371:	eb 16                	jmp    104389 <find_best_pool+0x5c>
  104373:	48 81 7d f8 00 02 00 	cmpq   $0x200,-0x8(%rbp)
  10437a:	00 
  10437b:	77 07                	ja     104384 <find_best_pool+0x57>
  10437d:	b8 f0 d0 10 00       	mov    $0x10d0f0,%eax
  104382:	eb 05                	jmp    104389 <find_best_pool+0x5c>
  104384:	b8 00 d1 10 00       	mov    $0x10d100,%eax
  104389:	5d                   	pop    %rbp
  10438a:	c3                   	ret

000000000010438b <kmalloc>:
  10438b:	55                   	push   %rbp
  10438c:	48 89 e5             	mov    %rsp,%rbp
  10438f:	48 83 ec 50          	sub    $0x50,%rsp
  104393:	48 89 7d b8          	mov    %rdi,-0x48(%rbp)
  104397:	48 8b 45 b8          	mov    -0x48(%rbp),%rax
  10439b:	83 c0 10             	add    $0x10,%eax
  10439e:	89 45 dc             	mov    %eax,-0x24(%rbp)
  1043a1:	81 7d dc 00 04 00 00 	cmpl   $0x400,-0x24(%rbp)
  1043a8:	7e 5c                	jle    104406 <kmalloc+0x7b>
  1043aa:	8b 45 dc             	mov    -0x24(%rbp),%eax
  1043ad:	89 c6                	mov    %eax,%esi
  1043af:	bf d8 00 10 00       	mov    $0x1000d8,%edi
  1043b4:	b8 00 00 00 00       	mov    $0x0,%eax
  1043b9:	e8 f6 26 00 00       	call   106ab4 <printk>
  1043be:	8b 45 dc             	mov    -0x24(%rbp),%eax
  1043c1:	8d 90 ff 0f 00 00    	lea    0xfff(%rax),%edx
  1043c7:	85 c0                	test   %eax,%eax
  1043c9:	0f 48 c2             	cmovs  %edx,%eax
  1043cc:	c1 f8 0c             	sar    $0xc,%eax
  1043cf:	83 c0 01             	add    $0x1,%eax
  1043d2:	89 c7                	mov    %eax,%edi
  1043d4:	e8 62 1f 00 00       	call   10633b <MMU_alloc_pages>
  1043d9:	48 89 45 c8          	mov    %rax,-0x38(%rbp)
  1043dd:	48 8b 45 c8          	mov    -0x38(%rbp),%rax
  1043e1:	48 c7 00 00 00 00 00 	movq   $0x0,(%rax)
  1043e8:	48 8b 45 c8          	mov    -0x38(%rbp),%rax
  1043ec:	48 8b 55 b8          	mov    -0x48(%rbp),%rdx
  1043f0:	48 89 50 08          	mov    %rdx,0x8(%rax)
  1043f4:	48 83 45 c8 10       	addq   $0x10,-0x38(%rbp)
  1043f9:	48 8b 45 c8          	mov    -0x38(%rbp),%rax
  1043fd:	48 89 45 f8          	mov    %rax,-0x8(%rbp)
  104401:	e9 22 01 00 00       	jmp    104528 <kmalloc+0x19d>
  104406:	8b 45 dc             	mov    -0x24(%rbp),%eax
  104409:	48 98                	cltq
  10440b:	48 89 c7             	mov    %rax,%rdi
  10440e:	e8 1a ff ff ff       	call   10432d <find_best_pool>
  104413:	48 89 45 d0          	mov    %rax,-0x30(%rbp)
  104417:	48 8b 45 d0          	mov    -0x30(%rbp),%rax
  10441b:	8b 40 04             	mov    0x4(%rax),%eax
  10441e:	85 c0                	test   %eax,%eax
  104420:	7e 59                	jle    10447b <kmalloc+0xf0>
  104422:	48 8b 45 d0          	mov    -0x30(%rbp),%rax
  104426:	48 8b 40 08          	mov    0x8(%rax),%rax
  10442a:	48 89 45 c8          	mov    %rax,-0x38(%rbp)
  10442e:	48 8b 45 d0          	mov    -0x30(%rbp),%rax
  104432:	48 8b 40 08          	mov    0x8(%rax),%rax
  104436:	48 8b 10             	mov    (%rax),%rdx
  104439:	48 8b 45 d0          	mov    -0x30(%rbp),%rax
  10443d:	48 89 50 08          	mov    %rdx,0x8(%rax)
  104441:	48 8b 45 d0          	mov    -0x30(%rbp),%rax
  104445:	8b 40 04             	mov    0x4(%rax),%eax
  104448:	8d 50 ff             	lea    -0x1(%rax),%edx
  10444b:	48 8b 45 d0          	mov    -0x30(%rbp),%rax
  10444f:	89 50 04             	mov    %edx,0x4(%rax)
  104452:	48 8b 45 c8          	mov    -0x38(%rbp),%rax
  104456:	48 8b 55 d0          	mov    -0x30(%rbp),%rdx
  10445a:	48 89 10             	mov    %rdx,(%rax)
  10445d:	48 8b 45 c8          	mov    -0x38(%rbp),%rax
  104461:	48 8b 55 b8          	mov    -0x48(%rbp),%rdx
  104465:	48 89 50 08          	mov    %rdx,0x8(%rax)
  104469:	48 83 45 c8 10       	addq   $0x10,-0x38(%rbp)
  10446e:	48 8b 45 c8          	mov    -0x38(%rbp),%rax
  104472:	48 89 45 f8          	mov    %rax,-0x8(%rbp)
  104476:	e9 ad 00 00 00       	jmp    104528 <kmalloc+0x19d>
  10447b:	b8 00 00 00 00       	mov    $0x0,%eax
  104480:	e8 e9 1c 00 00       	call   10616e <MMU_alloc_page>
  104485:	48 89 45 e8          	mov    %rax,-0x18(%rbp)
  104489:	48 8b 45 e8          	mov    -0x18(%rbp),%rax
  10448d:	48 89 45 c8          	mov    %rax,-0x38(%rbp)
  104491:	48 8b 45 c8          	mov    -0x38(%rbp),%rax
  104495:	48 8b 55 d0          	mov    -0x30(%rbp),%rdx
  104499:	48 89 10             	mov    %rdx,(%rax)
  10449c:	48 8b 45 c8          	mov    -0x38(%rbp),%rax
  1044a0:	48 8b 55 b8          	mov    -0x48(%rbp),%rdx
  1044a4:	48 89 50 08          	mov    %rdx,0x8(%rax)
  1044a8:	48 83 45 c8 10       	addq   $0x10,-0x38(%rbp)
  1044ad:	48 8b 45 c8          	mov    -0x38(%rbp),%rax
  1044b1:	48 89 45 f8          	mov    %rax,-0x8(%rbp)
  1044b5:	48 8b 45 d0          	mov    -0x30(%rbp),%rax
  1044b9:	8b 00                	mov    (%rax),%eax
  1044bb:	48 98                	cltq
  1044bd:	48 01 45 e8          	add    %rax,-0x18(%rbp)
  1044c1:	48 8b 45 d0          	mov    -0x30(%rbp),%rax
  1044c5:	48 8b 55 e8          	mov    -0x18(%rbp),%rdx
  1044c9:	48 89 50 08          	mov    %rdx,0x8(%rax)
  1044cd:	48 8b 45 d0          	mov    -0x30(%rbp),%rax
  1044d1:	8b 08                	mov    (%rax),%ecx
  1044d3:	b8 00 10 00 00       	mov    $0x1000,%eax
  1044d8:	99                   	cltd
  1044d9:	f7 f9                	idiv   %ecx
  1044db:	8d 50 ff             	lea    -0x1(%rax),%edx
  1044de:	48 8b 45 d0          	mov    -0x30(%rbp),%rax
  1044e2:	89 50 04             	mov    %edx,0x4(%rax)
  1044e5:	48 8b 45 e8          	mov    -0x18(%rbp),%rax
  1044e9:	48 89 45 e0          	mov    %rax,-0x20(%rbp)
  1044ed:	c7 45 f4 01 00 00 00 	movl   $0x1,-0xc(%rbp)
  1044f4:	eb 26                	jmp    10451c <kmalloc+0x191>
  1044f6:	48 8b 45 d0          	mov    -0x30(%rbp),%rax
  1044fa:	8b 00                	mov    (%rax),%eax
  1044fc:	48 98                	cltq
  1044fe:	48 01 45 e8          	add    %rax,-0x18(%rbp)
  104502:	48 8b 45 e0          	mov    -0x20(%rbp),%rax
  104506:	48 8b 55 e8          	mov    -0x18(%rbp),%rdx
  10450a:	48 89 10             	mov    %rdx,(%rax)
  10450d:	48 8b 45 e0          	mov    -0x20(%rbp),%rax
  104511:	48 8b 00             	mov    (%rax),%rax
  104514:	48 89 45 e0          	mov    %rax,-0x20(%rbp)
  104518:	83 45 f4 01          	addl   $0x1,-0xc(%rbp)
  10451c:	48 8b 45 d0          	mov    -0x30(%rbp),%rax
  104520:	8b 40 04             	mov    0x4(%rax),%eax
  104523:	39 45 f4             	cmp    %eax,-0xc(%rbp)
  104526:	7c ce                	jl     1044f6 <kmalloc+0x16b>
  104528:	48 8b 45 f8          	mov    -0x8(%rbp),%rax
  10452c:	c9                   	leave
  10452d:	c3                   	ret

000000000010452e <kfree>:
  10452e:	55                   	push   %rbp
  10452f:	48 89 e5             	mov    %rsp,%rbp
  104532:	48 83 ec 20          	sub    $0x20,%rsp
  104536:	48 89 7d e8          	mov    %rdi,-0x18(%rbp)
  10453a:	48 8b 45 e8          	mov    -0x18(%rbp),%rax
  10453e:	48 83 e8 10          	sub    $0x10,%rax
  104542:	48 89 45 f8          	mov    %rax,-0x8(%rbp)
  104546:	48 8b 45 f8          	mov    -0x8(%rbp),%rax
  10454a:	48 c7 00 00 00 00 00 	movq   $0x0,(%rax)
  104551:	48 8b 45 f8          	mov    -0x8(%rbp),%rax
  104555:	48 8b 00             	mov    (%rax),%rax
  104558:	48 85 c0             	test   %rax,%rax
  10455b:	74 1e                	je     10457b <kfree+0x4d>
  10455d:	48 8b 45 f8          	mov    -0x8(%rbp),%rax
  104561:	48 8b 40 08          	mov    0x8(%rax),%rax
  104565:	48 c1 e8 0c          	shr    $0xc,%rax
  104569:	89 c2                	mov    %eax,%edx
  10456b:	48 8b 45 f8          	mov    -0x8(%rbp),%rax
  10456f:	89 d6                	mov    %edx,%esi
  104571:	48 89 c7             	mov    %rax,%rdi
  104574:	e8 3a 20 00 00       	call   1065b3 <MMU_free_pages>
  104579:	eb 39                	jmp    1045b4 <kfree+0x86>
  10457b:	48 8b 45 f8          	mov    -0x8(%rbp),%rax
  10457f:	48 89 45 f0          	mov    %rax,-0x10(%rbp)
  104583:	48 8b 45 f8          	mov    -0x8(%rbp),%rax
  104587:	48 8b 00             	mov    (%rax),%rax
  10458a:	48 8b 50 08          	mov    0x8(%rax),%rdx
  10458e:	48 8b 45 f0          	mov    -0x10(%rbp),%rax
  104592:	48 89 10             	mov    %rdx,(%rax)
  104595:	48 8b 45 f8          	mov    -0x8(%rbp),%rax
  104599:	48 8b 00             	mov    (%rax),%rax
  10459c:	48 8b 55 f0          	mov    -0x10(%rbp),%rdx
  1045a0:	48 89 50 08          	mov    %rdx,0x8(%rax)
  1045a4:	48 8b 45 f8          	mov    -0x8(%rbp),%rax
  1045a8:	48 8b 00             	mov    (%rax),%rax
  1045ab:	8b 50 04             	mov    0x4(%rax),%edx
  1045ae:	83 c2 01             	add    $0x1,%edx
  1045b1:	89 50 04             	mov    %edx,0x4(%rax)
  1045b4:	90                   	nop
  1045b5:	c9                   	leave
  1045b6:	c3                   	ret

00000000001045b7 <test_kmalloc_simple>:
  1045b7:	55                   	push   %rbp
  1045b8:	48 89 e5             	mov    %rsp,%rbp
  1045bb:	bf 10 01 10 00       	mov    $0x100110,%edi
  1045c0:	b8 00 00 00 00       	mov    $0x0,%eax
  1045c5:	e8 ea 24 00 00       	call   106ab4 <printk>
  1045ca:	bf 01 00 00 00       	mov    $0x1,%edi
  1045cf:	e8 b7 fd ff ff       	call   10438b <kmalloc>
  1045d4:	bf 25 01 10 00       	mov    $0x100125,%edi
  1045d9:	b8 00 00 00 00       	mov    $0x0,%eax
  1045de:	e8 d1 24 00 00       	call   106ab4 <printk>
  1045e3:	bf 1f 00 00 00       	mov    $0x1f,%edi
  1045e8:	e8 9e fd ff ff       	call   10438b <kmalloc>
  1045ed:	bf 36 01 10 00       	mov    $0x100136,%edi
  1045f2:	b8 00 00 00 00       	mov    $0x0,%eax
  1045f7:	e8 b8 24 00 00       	call   106ab4 <printk>
  1045fc:	bf 3f 00 00 00       	mov    $0x3f,%edi
  104601:	e8 85 fd ff ff       	call   10438b <kmalloc>
  104606:	bf 47 01 10 00       	mov    $0x100147,%edi
  10460b:	b8 00 00 00 00       	mov    $0x0,%eax
  104610:	e8 9f 24 00 00       	call   106ab4 <printk>
  104615:	bf 7f 00 00 00       	mov    $0x7f,%edi
  10461a:	e8 6c fd ff ff       	call   10438b <kmalloc>
  10461f:	bf 59 01 10 00       	mov    $0x100159,%edi
  104624:	b8 00 00 00 00       	mov    $0x0,%eax
  104629:	e8 86 24 00 00       	call   106ab4 <printk>
  10462e:	bf ff 00 00 00       	mov    $0xff,%edi
  104633:	e8 53 fd ff ff       	call   10438b <kmalloc>
  104638:	bf 6b 01 10 00       	mov    $0x10016b,%edi
  10463d:	b8 00 00 00 00       	mov    $0x0,%eax
  104642:	e8 6d 24 00 00       	call   106ab4 <printk>
  104647:	bf ff 01 00 00       	mov    $0x1ff,%edi
  10464c:	e8 3a fd ff ff       	call   10438b <kmalloc>
  104651:	bf 7d 01 10 00       	mov    $0x10017d,%edi
  104656:	b8 00 00 00 00       	mov    $0x0,%eax
  10465b:	e8 54 24 00 00       	call   106ab4 <printk>
  104660:	bf ff 03 00 00       	mov    $0x3ff,%edi
  104665:	e8 21 fd ff ff       	call   10438b <kmalloc>
  10466a:	bf 90 01 10 00       	mov    $0x100190,%edi
  10466f:	b8 00 00 00 00       	mov    $0x0,%eax
  104674:	e8 3b 24 00 00       	call   106ab4 <printk>
  104679:	bf ff 07 00 00       	mov    $0x7ff,%edi
  10467e:	e8 08 fd ff ff       	call   10438b <kmalloc>
  104683:	bf a3 01 10 00       	mov    $0x1001a3,%edi
  104688:	b8 00 00 00 00       	mov    $0x0,%eax
  10468d:	e8 22 24 00 00       	call   106ab4 <printk>
  104692:	bf ff 0f 00 00       	mov    $0xfff,%edi
  104697:	e8 ef fc ff ff       	call   10438b <kmalloc>
  10469c:	90                   	nop
  10469d:	5d                   	pop    %rbp
  10469e:	c3                   	ret

000000000010469f <test_kmalloc_full>:
  10469f:	55                   	push   %rbp
  1046a0:	48 89 e5             	mov    %rsp,%rbp
  1046a3:	48 83 ec 30          	sub    $0x30,%rsp
  1046a7:	c7 45 fc 10 00 00 00 	movl   $0x10,-0x4(%rbp)
  1046ae:	bf 0c 00 00 00       	mov    $0xc,%edi
  1046b3:	e8 83 1c 00 00       	call   10633b <MMU_alloc_pages>
  1046b8:	48 89 45 e8          	mov    %rax,-0x18(%rbp)
  1046bc:	c7 45 f8 00 00 00 00 	movl   $0x0,-0x8(%rbp)
  1046c3:	e9 98 00 00 00       	jmp    104760 <test_kmalloc_full+0xc1>
  1046c8:	8b 45 fc             	mov    -0x4(%rbp),%eax
  1046cb:	89 c6                	mov    %eax,%esi
  1046cd:	bf b8 01 10 00       	mov    $0x1001b8,%edi
  1046d2:	b8 00 00 00 00       	mov    $0x0,%eax
  1046d7:	e8 d8 23 00 00       	call   106ab4 <printk>
  1046dc:	c7 45 f4 00 00 00 00 	movl   $0x0,-0xc(%rbp)
  1046e3:	eb 6b                	jmp    104750 <test_kmalloc_full+0xb1>
  1046e5:	8b 45 fc             	mov    -0x4(%rbp),%eax
  1046e8:	48 98                	cltq
  1046ea:	48 89 c7             	mov    %rax,%rdi
  1046ed:	e8 99 fc ff ff       	call   10438b <kmalloc>
  1046f2:	48 89 45 e0          	mov    %rax,-0x20(%rbp)
  1046f6:	8b 45 f8             	mov    -0x8(%rbp),%eax
  1046f9:	69 d0 e8 03 00 00    	imul   $0x3e8,%eax,%edx
  1046ff:	8b 45 f4             	mov    -0xc(%rbp),%eax
  104702:	01 d0                	add    %edx,%eax
  104704:	48 98                	cltq
  104706:	48 8d 14 c5 00 00 00 	lea    0x0(,%rax,8),%rdx
  10470d:	00 
  10470e:	48 8b 45 e8          	mov    -0x18(%rbp),%rax
  104712:	48 01 c2             	add    %rax,%rdx
  104715:	48 8b 45 e0          	mov    -0x20(%rbp),%rax
  104719:	48 89 02             	mov    %rax,(%rdx)
  10471c:	8b 45 f8             	mov    -0x8(%rbp),%eax
  10471f:	83 c0 01             	add    $0x1,%eax
  104722:	89 45 dc             	mov    %eax,-0x24(%rbp)
  104725:	c7 45 f0 00 00 00 00 	movl   $0x0,-0x10(%rbp)
  10472c:	eb 16                	jmp    104744 <test_kmalloc_full+0xa5>
  10472e:	8b 45 f0             	mov    -0x10(%rbp),%eax
  104731:	48 63 d0             	movslq %eax,%rdx
  104734:	48 8b 45 e0          	mov    -0x20(%rbp),%rax
  104738:	48 01 d0             	add    %rdx,%rax
  10473b:	8b 55 dc             	mov    -0x24(%rbp),%edx
  10473e:	88 10                	mov    %dl,(%rax)
  104740:	83 45 f0 01          	addl   $0x1,-0x10(%rbp)
  104744:	8b 45 f0             	mov    -0x10(%rbp),%eax
  104747:	3b 45 fc             	cmp    -0x4(%rbp),%eax
  10474a:	7c e2                	jl     10472e <test_kmalloc_full+0x8f>
  10474c:	83 45 f4 01          	addl   $0x1,-0xc(%rbp)
  104750:	81 7d f4 e7 03 00 00 	cmpl   $0x3e7,-0xc(%rbp)
  104757:	7e 8c                	jle    1046e5 <test_kmalloc_full+0x46>
  104759:	d1 65 fc             	shll   $1,-0x4(%rbp)
  10475c:	83 45 f8 01          	addl   $0x1,-0x8(%rbp)
  104760:	83 7d f8 05          	cmpl   $0x5,-0x8(%rbp)
  104764:	0f 8e 5e ff ff ff    	jle    1046c8 <test_kmalloc_full+0x29>
  10476a:	90                   	nop
  10476b:	90                   	nop
  10476c:	c9                   	leave
  10476d:	c3                   	ret

000000000010476e <printRegions>:
  10476e:	55                   	push   %rbp
  10476f:	48 89 e5             	mov    %rsp,%rbp
  104772:	48 83 ec 10          	sub    $0x10,%rsp
  104776:	48 8b 05 0b 30 00 00 	mov    0x300b(%rip),%rax        # 107788 <rlh>
  10477d:	48 8b 40 10          	mov    0x10(%rax),%rax
  104781:	48 89 45 f8          	mov    %rax,-0x8(%rbp)
  104785:	bf e0 01 10 00       	mov    $0x1001e0,%edi
  10478a:	b8 00 00 00 00       	mov    $0x0,%eax
  10478f:	e8 20 23 00 00       	call   106ab4 <printk>
  104794:	eb 30                	jmp    1047c6 <printRegions+0x58>
  104796:	48 8b 45 f8          	mov    -0x8(%rbp),%rax
  10479a:	48 8b 40 08          	mov    0x8(%rax),%rax
  10479e:	48 89 c2             	mov    %rax,%rdx
  1047a1:	48 8b 45 f8          	mov    -0x8(%rbp),%rax
  1047a5:	48 8b 00             	mov    (%rax),%rax
  1047a8:	48 89 c6             	mov    %rax,%rsi
  1047ab:	bf 08 02 10 00       	mov    $0x100208,%edi
  1047b0:	b8 00 00 00 00       	mov    $0x0,%eax
  1047b5:	e8 fa 22 00 00       	call   106ab4 <printk>
  1047ba:	48 8b 45 f8          	mov    -0x8(%rbp),%rax
  1047be:	48 8b 40 10          	mov    0x10(%rax),%rax
  1047c2:	48 89 45 f8          	mov    %rax,-0x8(%rbp)
  1047c6:	48 83 7d f8 00       	cmpq   $0x0,-0x8(%rbp)
  1047cb:	75 c9                	jne    104796 <printRegions+0x28>
  1047cd:	bf 30 02 10 00       	mov    $0x100230,%edi
  1047d2:	b8 00 00 00 00       	mov    $0x0,%eax
  1047d7:	e8 d8 22 00 00       	call   106ab4 <printk>
  1047dc:	90                   	nop
  1047dd:	c9                   	leave
  1047de:	c3                   	ret

00000000001047df <validateRegions>:
  1047df:	55                   	push   %rbp
  1047e0:	48 89 e5             	mov    %rsp,%rbp
  1047e3:	48 8b 05 9e 2f 00 00 	mov    0x2f9e(%rip),%rax        # 107788 <rlh>
  1047ea:	48 89 45 f8          	mov    %rax,-0x8(%rbp)
  1047ee:	eb 5d                	jmp    10484d <validateRegions+0x6e>
  1047f0:	48 8b 45 f8          	mov    -0x8(%rbp),%rax
  1047f4:	48 8b 40 10          	mov    0x10(%rax),%rax
  1047f8:	48 8b 40 08          	mov    0x8(%rax),%rax
  1047fc:	48 89 c1             	mov    %rax,%rcx
  1047ff:	48 8b 45 f8          	mov    -0x8(%rbp),%rax
  104803:	48 8b 40 10          	mov    0x10(%rax),%rax
  104807:	48 8b 00             	mov    (%rax),%rax
  10480a:	48 89 c2             	mov    %rax,%rdx
  10480d:	48 89 c8             	mov    %rcx,%rax
  104810:	48 29 d0             	sub    %rdx,%rax
  104813:	48 89 45 f0          	mov    %rax,-0x10(%rbp)
  104817:	48 81 7d f0 ff 3f 01 	cmpq   $0x13fff,-0x10(%rbp)
  10481e:	00 
  10481f:	76 0a                	jbe    10482b <validateRegions+0x4c>
  104821:	48 81 7d f0 00 00 ff 	cmpq   $0xffffffffffff0000,-0x10(%rbp)
  104828:	ff 
  104829:	76 16                	jbe    104841 <validateRegions+0x62>
  10482b:	48 8b 45 f8          	mov    -0x8(%rbp),%rax
  10482f:	48 8b 40 10          	mov    0x10(%rax),%rax
  104833:	48 8b 50 10          	mov    0x10(%rax),%rdx
  104837:	48 8b 45 f8          	mov    -0x8(%rbp),%rax
  10483b:	48 89 50 10          	mov    %rdx,0x10(%rax)
  10483f:	eb 0c                	jmp    10484d <validateRegions+0x6e>
  104841:	48 8b 45 f8          	mov    -0x8(%rbp),%rax
  104845:	48 8b 40 10          	mov    0x10(%rax),%rax
  104849:	48 89 45 f8          	mov    %rax,-0x8(%rbp)
  10484d:	48 8b 45 f8          	mov    -0x8(%rbp),%rax
  104851:	48 8b 40 10          	mov    0x10(%rax),%rax
  104855:	48 85 c0             	test   %rax,%rax
  104858:	75 96                	jne    1047f0 <validateRegions+0x11>
  10485a:	90                   	nop
  10485b:	90                   	nop
  10485c:	5d                   	pop    %rbp
  10485d:	c3                   	ret

000000000010485e <initRegionList>:
  10485e:	55                   	push   %rbp
  10485f:	48 89 e5             	mov    %rsp,%rbp
  104862:	c7 45 fc 00 00 00 00 	movl   $0x0,-0x4(%rbp)
  104869:	eb 5c                	jmp    1048c7 <initRegionList+0x69>
  10486b:	8b 45 fc             	mov    -0x4(%rbp),%eax
  10486e:	48 98                	cltq
  104870:	48 c1 e0 05          	shl    $0x5,%rax
  104874:	48 05 40 d1 10 00    	add    $0x10d140,%rax
  10487a:	48 c7 00 00 00 00 00 	movq   $0x0,(%rax)
  104881:	8b 45 fc             	mov    -0x4(%rbp),%eax
  104884:	48 98                	cltq
  104886:	48 c1 e0 05          	shl    $0x5,%rax
  10488a:	48 05 48 d1 10 00    	add    $0x10d148,%rax
  104890:	48 c7 00 00 00 00 00 	movq   $0x0,(%rax)
  104897:	8b 45 fc             	mov    -0x4(%rbp),%eax
  10489a:	48 98                	cltq
  10489c:	48 c1 e0 05          	shl    $0x5,%rax
  1048a0:	48 05 50 d1 10 00    	add    $0x10d150,%rax
  1048a6:	48 c7 00 00 00 00 00 	movq   $0x0,(%rax)
  1048ad:	8b 45 fc             	mov    -0x4(%rbp),%eax
  1048b0:	48 98                	cltq
  1048b2:	48 c1 e0 05          	shl    $0x5,%rax
  1048b6:	48 05 58 d1 10 00    	add    $0x10d158,%rax
  1048bc:	48 c7 00 00 00 00 00 	movq   $0x0,(%rax)
  1048c3:	83 45 fc 01          	addl   $0x1,-0x4(%rbp)
  1048c7:	81 7d fc ff 00 00 00 	cmpl   $0xff,-0x4(%rbp)
  1048ce:	7e 9b                	jle    10486b <initRegionList+0xd>
  1048d0:	90                   	nop
  1048d1:	90                   	nop
  1048d2:	5d                   	pop    %rbp
  1048d3:	c3                   	ret

00000000001048d4 <appendRegion>:
  1048d4:	55                   	push   %rbp
  1048d5:	48 89 e5             	mov    %rsp,%rbp
  1048d8:	48 89 7d e8          	mov    %rdi,-0x18(%rbp)
  1048dc:	48 89 75 e0          	mov    %rsi,-0x20(%rbp)
  1048e0:	48 8b 05 a1 2e 00 00 	mov    0x2ea1(%rip),%rax        # 107788 <rlh>
  1048e7:	48 89 45 f8          	mov    %rax,-0x8(%rbp)
  1048eb:	eb 0c                	jmp    1048f9 <appendRegion+0x25>
  1048ed:	48 8b 45 f8          	mov    -0x8(%rbp),%rax
  1048f1:	48 8b 40 10          	mov    0x10(%rax),%rax
  1048f5:	48 89 45 f8          	mov    %rax,-0x8(%rbp)
  1048f9:	48 8b 45 f8          	mov    -0x8(%rbp),%rax
  1048fd:	48 8b 40 10          	mov    0x10(%rax),%rax
  104901:	48 85 c0             	test   %rax,%rax
  104904:	75 e7                	jne    1048ed <appendRegion+0x19>
  104906:	0f b7 05 33 a8 00 00 	movzwl 0xa833(%rip),%eax        # 10f140 <idx>
  10490d:	83 c0 01             	add    $0x1,%eax
  104910:	66 89 05 29 a8 00 00 	mov    %ax,0xa829(%rip)        # 10f140 <idx>
  104917:	0f b7 05 22 a8 00 00 	movzwl 0xa822(%rip),%eax        # 10f140 <idx>
  10491e:	0f b7 c0             	movzwl %ax,%eax
  104921:	48 98                	cltq
  104923:	48 c1 e0 05          	shl    $0x5,%rax
  104927:	48 8d 90 40 d1 10 00 	lea    0x10d140(%rax),%rdx
  10492e:	48 8b 45 f8          	mov    -0x8(%rbp),%rax
  104932:	48 89 50 10          	mov    %rdx,0x10(%rax)
  104936:	48 83 7d e8 00       	cmpq   $0x0,-0x18(%rbp)
  10493b:	75 3c                	jne    104979 <appendRegion+0xa5>
  10493d:	0f b7 05 fc a7 00 00 	movzwl 0xa7fc(%rip),%eax        # 10f140 <idx>
  104944:	0f b7 c0             	movzwl %ax,%eax
  104947:	48 98                	cltq
  104949:	48 c1 e0 05          	shl    $0x5,%rax
  10494d:	48 05 40 d1 10 00    	add    $0x10d140,%rax
  104953:	48 c7 00 00 10 00 00 	movq   $0x1000,(%rax)
  10495a:	0f b7 05 df a7 00 00 	movzwl 0xa7df(%rip),%eax        # 10f140 <idx>
  104961:	0f b7 c0             	movzwl %ax,%eax
  104964:	48 98                	cltq
  104966:	48 c1 e0 05          	shl    $0x5,%rax
  10496a:	48 05 58 d1 10 00    	add    $0x10d158,%rax
  104970:	48 c7 00 00 10 00 00 	movq   $0x1000,(%rax)
  104977:	eb 3d                	jmp    1049b6 <appendRegion+0xe2>
  104979:	0f b7 05 c0 a7 00 00 	movzwl 0xa7c0(%rip),%eax        # 10f140 <idx>
  104980:	0f b7 c0             	movzwl %ax,%eax
  104983:	48 98                	cltq
  104985:	48 c1 e0 05          	shl    $0x5,%rax
  104989:	48 8d 90 40 d1 10 00 	lea    0x10d140(%rax),%rdx
  104990:	48 8b 45 e8          	mov    -0x18(%rbp),%rax
  104994:	48 89 02             	mov    %rax,(%rdx)
  104997:	0f b7 05 a2 a7 00 00 	movzwl 0xa7a2(%rip),%eax        # 10f140 <idx>
  10499e:	0f b7 d0             	movzwl %ax,%edx
  1049a1:	48 8b 45 e8          	mov    -0x18(%rbp),%rax
  1049a5:	48 63 d2             	movslq %edx,%rdx
  1049a8:	48 c1 e2 05          	shl    $0x5,%rdx
  1049ac:	48 81 c2 58 d1 10 00 	add    $0x10d158,%rdx
  1049b3:	48 89 02             	mov    %rax,(%rdx)
  1049b6:	0f b7 05 83 a7 00 00 	movzwl 0xa783(%rip),%eax        # 10f140 <idx>
  1049bd:	0f b7 c0             	movzwl %ax,%eax
  1049c0:	48 98                	cltq
  1049c2:	48 c1 e0 05          	shl    $0x5,%rax
  1049c6:	48 8d 90 48 d1 10 00 	lea    0x10d148(%rax),%rdx
  1049cd:	48 8b 45 e0          	mov    -0x20(%rbp),%rax
  1049d1:	48 89 02             	mov    %rax,(%rdx)
  1049d4:	90                   	nop
  1049d5:	5d                   	pop    %rbp
  1049d6:	c3                   	ret

00000000001049d7 <splitRegion>:
  1049d7:	55                   	push   %rbp
  1049d8:	48 89 e5             	mov    %rsp,%rbp
  1049db:	48 83 ec 28          	sub    $0x28,%rsp
  1049df:	48 89 7d d8          	mov    %rdi,-0x28(%rbp)
  1049e3:	48 8b 05 9e 2d 00 00 	mov    0x2d9e(%rip),%rax        # 107788 <rlh>
  1049ea:	48 8b 40 10          	mov    0x10(%rax),%rax
  1049ee:	48 89 45 f8          	mov    %rax,-0x8(%rbp)
  1049f2:	48 8b 05 8f 2d 00 00 	mov    0x2d8f(%rip),%rax        # 107788 <rlh>
  1049f9:	48 89 45 f0          	mov    %rax,-0x10(%rbp)
  1049fd:	48 8b 45 d8          	mov    -0x28(%rbp),%rax
  104a01:	48 8b 40 10          	mov    0x10(%rax),%rax
  104a05:	48 89 45 e8          	mov    %rax,-0x18(%rbp)
  104a09:	48 8b 45 d8          	mov    -0x28(%rbp),%rax
  104a0d:	48 8b 50 20          	mov    0x20(%rax),%rdx
  104a11:	48 8b 45 e8          	mov    -0x18(%rbp),%rax
  104a15:	48 01 d0             	add    %rdx,%rax
  104a18:	48 89 45 e0          	mov    %rax,-0x20(%rbp)
  104a1c:	48 81 65 e8 00 f0 ff 	andq   $0xfffffffffffff000,-0x18(%rbp)
  104a23:	ff 
  104a24:	48 8b 45 e0          	mov    -0x20(%rbp),%rax
  104a28:	48 25 00 f0 ff ff    	and    $0xfffffffffffff000,%rax
  104a2e:	48 05 00 10 00 00    	add    $0x1000,%rax
  104a34:	48 89 45 e0          	mov    %rax,-0x20(%rbp)
  104a38:	e9 9b 00 00 00       	jmp    104ad8 <splitRegion+0x101>
  104a3d:	48 8b 45 f8          	mov    -0x8(%rbp),%rax
  104a41:	48 8b 00             	mov    (%rax),%rax
  104a44:	48 39 45 e8          	cmp    %rax,-0x18(%rbp)
  104a48:	72 45                	jb     104a8f <splitRegion+0xb8>
  104a4a:	48 8b 45 f8          	mov    -0x8(%rbp),%rax
  104a4e:	48 8b 40 08          	mov    0x8(%rax),%rax
  104a52:	48 3b 45 e0          	cmp    -0x20(%rbp),%rax
  104a56:	72 37                	jb     104a8f <splitRegion+0xb8>
  104a58:	48 8b 45 f8          	mov    -0x8(%rbp),%rax
  104a5c:	48 8b 40 08          	mov    0x8(%rax),%rax
  104a60:	48 2b 45 e0          	sub    -0x20(%rbp),%rax
  104a64:	48 3d 00 10 00 00    	cmp    $0x1000,%rax
  104a6a:	76 17                	jbe    104a83 <splitRegion+0xac>
  104a6c:	48 8b 45 f8          	mov    -0x8(%rbp),%rax
  104a70:	48 8b 50 08          	mov    0x8(%rax),%rdx
  104a74:	48 8b 45 e0          	mov    -0x20(%rbp),%rax
  104a78:	48 89 d6             	mov    %rdx,%rsi
  104a7b:	48 89 c7             	mov    %rax,%rdi
  104a7e:	e8 51 fe ff ff       	call   1048d4 <appendRegion>
  104a83:	48 8b 55 e8          	mov    -0x18(%rbp),%rdx
  104a87:	48 8b 45 f8          	mov    -0x8(%rbp),%rax
  104a8b:	48 89 50 08          	mov    %rdx,0x8(%rax)
  104a8f:	48 8b 45 f8          	mov    -0x8(%rbp),%rax
  104a93:	48 8b 40 08          	mov    0x8(%rax),%rax
  104a97:	48 89 c1             	mov    %rax,%rcx
  104a9a:	48 8b 45 f8          	mov    -0x8(%rbp),%rax
  104a9e:	48 8b 00             	mov    (%rax),%rax
  104aa1:	48 89 c2             	mov    %rax,%rdx
  104aa4:	48 89 c8             	mov    %rcx,%rax
  104aa7:	48 29 d0             	sub    %rdx,%rax
  104aaa:	48 3d ff 0f 00 00    	cmp    $0xfff,%rax
  104ab0:	77 12                	ja     104ac4 <splitRegion+0xed>
  104ab2:	48 8b 45 f8          	mov    -0x8(%rbp),%rax
  104ab6:	48 8b 50 10          	mov    0x10(%rax),%rdx
  104aba:	48 8b 45 f0          	mov    -0x10(%rbp),%rax
  104abe:	48 89 50 10          	mov    %rdx,0x10(%rax)
  104ac2:	eb 08                	jmp    104acc <splitRegion+0xf5>
  104ac4:	48 8b 45 f8          	mov    -0x8(%rbp),%rax
  104ac8:	48 89 45 f0          	mov    %rax,-0x10(%rbp)
  104acc:	48 8b 45 f8          	mov    -0x8(%rbp),%rax
  104ad0:	48 8b 40 10          	mov    0x10(%rax),%rax
  104ad4:	48 89 45 f8          	mov    %rax,-0x8(%rbp)
  104ad8:	48 83 7d f8 00       	cmpq   $0x0,-0x8(%rbp)
  104add:	0f 85 5a ff ff ff    	jne    104a3d <splitRegion+0x66>
  104ae3:	90                   	nop
  104ae4:	90                   	nop
  104ae5:	c9                   	leave
  104ae6:	c3                   	ret

0000000000104ae7 <initFrameList>:
  104ae7:	55                   	push   %rbp
  104ae8:	48 89 e5             	mov    %rsp,%rbp
  104aeb:	48 c7 05 5a a6 00 00 	movq   $0x0,0xa65a(%rip)        # 10f150 <frame_list>
  104af2:	00 00 00 00 
  104af6:	48 c7 05 57 a6 00 00 	movq   $0x0,0xa657(%rip)        # 10f158 <frame_list+0x8>
  104afd:	00 00 00 00 
  104b01:	90                   	nop
  104b02:	5d                   	pop    %rbp
  104b03:	c3                   	ret

0000000000104b04 <add_bytes>:
  104b04:	55                   	push   %rbp
  104b05:	48 89 e5             	mov    %rsp,%rbp
  104b08:	48 89 7d e8          	mov    %rdi,-0x18(%rbp)
  104b0c:	89 75 e4             	mov    %esi,-0x1c(%rbp)
  104b0f:	8b 45 e4             	mov    -0x1c(%rbp),%eax
  104b12:	48 63 d0             	movslq %eax,%rdx
  104b15:	48 8b 45 e8          	mov    -0x18(%rbp),%rax
  104b19:	48 01 d0             	add    %rdx,%rax
  104b1c:	48 89 45 f8          	mov    %rax,-0x8(%rbp)
  104b20:	48 8b 45 f8          	mov    -0x8(%rbp),%rax
  104b24:	5d                   	pop    %rbp
  104b25:	c3                   	ret

0000000000104b26 <process_tag_entries>:
  104b26:	55                   	push   %rbp
  104b27:	48 89 e5             	mov    %rsp,%rbp
  104b2a:	48 83 ec 68          	sub    $0x68,%rsp
  104b2e:	89 7d 9c             	mov    %edi,-0x64(%rbp)
  104b31:	b8 00 00 00 00       	mov    $0x0,%eax
  104b36:	e8 23 fd ff ff       	call   10485e <initRegionList>
  104b3b:	e8 a7 ff ff ff       	call   104ae7 <initFrameList>
  104b40:	8b 45 9c             	mov    -0x64(%rbp),%eax
  104b43:	48 89 45 c0          	mov    %rax,-0x40(%rbp)
  104b47:	48 8b 45 c0          	mov    -0x40(%rbp),%rax
  104b4b:	48 89 45 b8          	mov    %rax,-0x48(%rbp)
  104b4f:	48 8b 45 c0          	mov    -0x40(%rbp),%rax
  104b53:	be 08 00 00 00       	mov    $0x8,%esi
  104b58:	48 89 c7             	mov    %rax,%rdi
  104b5b:	e8 a4 ff ff ff       	call   104b04 <add_bytes>
  104b60:	48 89 45 f0          	mov    %rax,-0x10(%rbp)
  104b64:	48 8b 45 f0          	mov    -0x10(%rbp),%rax
  104b68:	48 89 45 e8          	mov    %rax,-0x18(%rbp)
  104b6c:	e9 02 01 00 00       	jmp    104c73 <process_tag_entries+0x14d>
  104b71:	48 8b 45 e8          	mov    -0x18(%rbp),%rax
  104b75:	8b 00                	mov    (%rax),%eax
  104b77:	83 f8 09             	cmp    $0x9,%eax
  104b7a:	0f 87 b5 00 00 00    	ja     104c35 <process_tag_entries+0x10f>
  104b80:	89 c0                	mov    %eax,%eax
  104b82:	48 8b 04 c5 58 02 10 	mov    0x100258(,%rax,8),%rax
  104b89:	00 
  104b8a:	ff e0                	jmp    *%rax
  104b8c:	c7 45 e4 00 00 00 00 	movl   $0x0,-0x1c(%rbp)
  104b93:	48 8b 45 e8          	mov    -0x18(%rbp),%rax
  104b97:	48 89 45 a8          	mov    %rax,-0x58(%rbp)
  104b9b:	48 8b 45 f0          	mov    -0x10(%rbp),%rax
  104b9f:	48 83 c0 10          	add    $0x10,%rax
  104ba3:	48 89 45 d8          	mov    %rax,-0x28(%rbp)
  104ba7:	eb 3c                	jmp    104be5 <process_tag_entries+0xbf>
  104ba9:	48 8b 45 d8          	mov    -0x28(%rbp),%rax
  104bad:	8b 40 10             	mov    0x10(%rax),%eax
  104bb0:	83 f8 01             	cmp    $0x1,%eax
  104bb3:	75 27                	jne    104bdc <process_tag_entries+0xb6>
  104bb5:	48 8b 45 d8          	mov    -0x28(%rbp),%rax
  104bb9:	48 8b 10             	mov    (%rax),%rdx
  104bbc:	48 8b 45 d8          	mov    -0x28(%rbp),%rax
  104bc0:	48 8b 40 08          	mov    0x8(%rax),%rax
  104bc4:	48 01 d0             	add    %rdx,%rax
  104bc7:	48 89 c2             	mov    %rax,%rdx
  104bca:	48 8b 45 d8          	mov    -0x28(%rbp),%rax
  104bce:	48 8b 00             	mov    (%rax),%rax
  104bd1:	48 89 d6             	mov    %rdx,%rsi
  104bd4:	48 89 c7             	mov    %rax,%rdi
  104bd7:	e8 f8 fc ff ff       	call   1048d4 <appendRegion>
  104bdc:	83 45 e4 18          	addl   $0x18,-0x1c(%rbp)
  104be0:	48 83 45 d8 18       	addq   $0x18,-0x28(%rbp)
  104be5:	48 8b 45 a8          	mov    -0x58(%rbp),%rax
  104be9:	8b 40 04             	mov    0x4(%rax),%eax
  104bec:	39 45 e4             	cmp    %eax,-0x1c(%rbp)
  104bef:	72 b8                	jb     104ba9 <process_tag_entries+0x83>
  104bf1:	eb 43                	jmp    104c36 <process_tag_entries+0x110>
  104bf3:	48 8b 45 e8          	mov    -0x18(%rbp),%rax
  104bf7:	48 89 45 b0          	mov    %rax,-0x50(%rbp)
  104bfb:	48 8b 45 f0          	mov    -0x10(%rbp),%rax
  104bff:	48 83 c0 14          	add    $0x14,%rax
  104c03:	48 89 45 d0          	mov    %rax,-0x30(%rbp)
  104c07:	c7 45 cc 00 00 00 00 	movl   $0x0,-0x34(%rbp)
  104c0e:	eb 15                	jmp    104c25 <process_tag_entries+0xff>
  104c10:	48 8b 45 d0          	mov    -0x30(%rbp),%rax
  104c14:	48 89 c7             	mov    %rax,%rdi
  104c17:	e8 bb fd ff ff       	call   1049d7 <splitRegion>
  104c1c:	48 83 45 d0 40       	addq   $0x40,-0x30(%rbp)
  104c21:	83 45 cc 01          	addl   $0x1,-0x34(%rbp)
  104c25:	48 8b 45 b0          	mov    -0x50(%rbp),%rax
  104c29:	8b 40 08             	mov    0x8(%rax),%eax
  104c2c:	8b 55 cc             	mov    -0x34(%rbp),%edx
  104c2f:	39 c2                	cmp    %eax,%edx
  104c31:	72 dd                	jb     104c10 <process_tag_entries+0xea>
  104c33:	eb 01                	jmp    104c36 <process_tag_entries+0x110>
  104c35:	90                   	nop
  104c36:	48 8b 45 e8          	mov    -0x18(%rbp),%rax
  104c3a:	8b 40 04             	mov    0x4(%rax),%eax
  104c3d:	89 45 fc             	mov    %eax,-0x4(%rbp)
  104c40:	8b 45 fc             	mov    -0x4(%rbp),%eax
  104c43:	83 e0 07             	and    $0x7,%eax
  104c46:	85 c0                	test   %eax,%eax
  104c48:	74 0c                	je     104c56 <process_tag_entries+0x130>
  104c4a:	8b 45 fc             	mov    -0x4(%rbp),%eax
  104c4d:	83 e0 f8             	and    $0xfffffff8,%eax
  104c50:	83 c0 08             	add    $0x8,%eax
  104c53:	89 45 fc             	mov    %eax,-0x4(%rbp)
  104c56:	8b 55 fc             	mov    -0x4(%rbp),%edx
  104c59:	48 8b 45 f0          	mov    -0x10(%rbp),%rax
  104c5d:	89 d6                	mov    %edx,%esi
  104c5f:	48 89 c7             	mov    %rax,%rdi
  104c62:	e8 9d fe ff ff       	call   104b04 <add_bytes>
  104c67:	48 89 45 f0          	mov    %rax,-0x10(%rbp)
  104c6b:	48 8b 45 f0          	mov    -0x10(%rbp),%rax
  104c6f:	48 89 45 e8          	mov    %rax,-0x18(%rbp)
  104c73:	48 8b 45 e8          	mov    -0x18(%rbp),%rax
  104c77:	8b 00                	mov    (%rax),%eax
  104c79:	85 c0                	test   %eax,%eax
  104c7b:	0f 85 f0 fe ff ff    	jne    104b71 <process_tag_entries+0x4b>
  104c81:	48 8b 45 e8          	mov    -0x18(%rbp),%rax
  104c85:	8b 40 04             	mov    0x4(%rax),%eax
  104c88:	83 f8 08             	cmp    $0x8,%eax
  104c8b:	0f 85 e0 fe ff ff    	jne    104b71 <process_tag_entries+0x4b>
  104c91:	b8 00 00 00 00       	mov    $0x0,%eax
  104c96:	e8 44 fb ff ff       	call   1047df <validateRegions>
  104c9b:	48 8b 05 e6 2a 00 00 	mov    0x2ae6(%rip),%rax        # 107788 <rlh>
  104ca2:	48 8b 40 10          	mov    0x10(%rax),%rax
  104ca6:	48 89 05 73 84 00 00 	mov    %rax,0x8473(%rip)        # 10d120 <cur_reg>
  104cad:	48 8b 05 6c 84 00 00 	mov    0x846c(%rip),%rax        # 10d120 <cur_reg>
  104cb4:	c9                   	leave
  104cb5:	c3                   	ret

0000000000104cb6 <MMU_pf_alloc>:
  104cb6:	55                   	push   %rbp
  104cb7:	48 89 e5             	mov    %rsp,%rbp
  104cba:	48 83 ec 10          	sub    $0x10,%rsp
  104cbe:	48 8b 05 93 a4 00 00 	mov    0xa493(%rip),%rax        # 10f158 <frame_list+0x8>
  104cc5:	48 85 c0             	test   %rax,%rax
  104cc8:	75 24                	jne    104cee <MMU_pf_alloc+0x38>
  104cca:	0f b6 05 71 a4 00 00 	movzbl 0xa471(%rip),%eax        # 10f142 <all_regions_allocated>
  104cd1:	84 c0                	test   %al,%al
  104cd3:	74 19                	je     104cee <MMU_pf_alloc+0x38>
  104cd5:	bf a8 02 10 00       	mov    $0x1002a8,%edi
  104cda:	b8 00 00 00 00       	mov    $0x0,%eax
  104cdf:	e8 d0 1d 00 00       	call   106ab4 <printk>
  104ce4:	b8 00 00 00 00       	mov    $0x0,%eax
  104ce9:	e9 ca 00 00 00       	jmp    104db8 <MMU_pf_alloc+0x102>
  104cee:	48 8b 05 63 a4 00 00 	mov    0xa463(%rip),%rax        # 10f158 <frame_list+0x8>
  104cf5:	48 85 c0             	test   %rax,%rax
  104cf8:	74 33                	je     104d2d <MMU_pf_alloc+0x77>
  104cfa:	48 8b 05 4f a4 00 00 	mov    0xa44f(%rip),%rax        # 10f150 <frame_list>
  104d01:	48 89 45 f8          	mov    %rax,-0x8(%rbp)
  104d05:	48 8b 05 44 a4 00 00 	mov    0xa444(%rip),%rax        # 10f150 <frame_list>
  104d0c:	48 8b 00             	mov    (%rax),%rax
  104d0f:	48 89 05 3a a4 00 00 	mov    %rax,0xa43a(%rip)        # 10f150 <frame_list>
  104d16:	48 8b 05 3b a4 00 00 	mov    0xa43b(%rip),%rax        # 10f158 <frame_list+0x8>
  104d1d:	48 83 e8 01          	sub    $0x1,%rax
  104d21:	48 89 05 30 a4 00 00 	mov    %rax,0xa430(%rip)        # 10f158 <frame_list+0x8>
  104d28:	e9 87 00 00 00       	jmp    104db4 <MMU_pf_alloc+0xfe>
  104d2d:	48 8b 05 ec 83 00 00 	mov    0x83ec(%rip),%rax        # 10d120 <cur_reg>
  104d34:	48 8b 40 18          	mov    0x18(%rax),%rax
  104d38:	48 8d 90 00 10 00 00 	lea    0x1000(%rax),%rdx
  104d3f:	48 8b 05 da 83 00 00 	mov    0x83da(%rip),%rax        # 10d120 <cur_reg>
  104d46:	48 8b 40 08          	mov    0x8(%rax),%rax
  104d4a:	48 39 d0             	cmp    %rdx,%rax
  104d4d:	72 2e                	jb     104d7d <MMU_pf_alloc+0xc7>
  104d4f:	48 8b 05 ca 83 00 00 	mov    0x83ca(%rip),%rax        # 10d120 <cur_reg>
  104d56:	48 8b 40 18          	mov    0x18(%rax),%rax
  104d5a:	48 89 45 f8          	mov    %rax,-0x8(%rbp)
  104d5e:	48 8b 05 bb 83 00 00 	mov    0x83bb(%rip),%rax        # 10d120 <cur_reg>
  104d65:	48 8b 50 18          	mov    0x18(%rax),%rdx
  104d69:	48 8b 05 b0 83 00 00 	mov    0x83b0(%rip),%rax        # 10d120 <cur_reg>
  104d70:	48 81 c2 00 10 00 00 	add    $0x1000,%rdx
  104d77:	48 89 50 18          	mov    %rdx,0x18(%rax)
  104d7b:	eb 37                	jmp    104db4 <MMU_pf_alloc+0xfe>
  104d7d:	48 8b 05 9c 83 00 00 	mov    0x839c(%rip),%rax        # 10d120 <cur_reg>
  104d84:	48 8b 40 10          	mov    0x10(%rax),%rax
  104d88:	48 85 c0             	test   %rax,%rax
  104d8b:	75 0e                	jne    104d9b <MMU_pf_alloc+0xe5>
  104d8d:	c6 05 ae a3 00 00 01 	movb   $0x1,0xa3ae(%rip)        # 10f142 <all_regions_allocated>
  104d94:	b8 00 00 00 00       	mov    $0x0,%eax
  104d99:	eb 1d                	jmp    104db8 <MMU_pf_alloc+0x102>
  104d9b:	48 8b 05 7e 83 00 00 	mov    0x837e(%rip),%rax        # 10d120 <cur_reg>
  104da2:	48 8b 40 10          	mov    0x10(%rax),%rax
  104da6:	48 89 05 73 83 00 00 	mov    %rax,0x8373(%rip)        # 10d120 <cur_reg>
  104dad:	e8 04 ff ff ff       	call   104cb6 <MMU_pf_alloc>
  104db2:	eb 04                	jmp    104db8 <MMU_pf_alloc+0x102>
  104db4:	48 8b 45 f8          	mov    -0x8(%rbp),%rax
  104db8:	c9                   	leave
  104db9:	c3                   	ret

0000000000104dba <MMU_pf_free>:
  104dba:	55                   	push   %rbp
  104dbb:	48 89 e5             	mov    %rsp,%rbp
  104dbe:	48 89 7d e8          	mov    %rdi,-0x18(%rbp)
  104dc2:	48 8b 45 e8          	mov    -0x18(%rbp),%rax
  104dc6:	48 89 45 f8          	mov    %rax,-0x8(%rbp)
  104dca:	48 8b 15 7f a3 00 00 	mov    0xa37f(%rip),%rdx        # 10f150 <frame_list>
  104dd1:	48 8b 45 f8          	mov    -0x8(%rbp),%rax
  104dd5:	48 89 10             	mov    %rdx,(%rax)
  104dd8:	48 8b 45 f8          	mov    -0x8(%rbp),%rax
  104ddc:	48 89 05 6d a3 00 00 	mov    %rax,0xa36d(%rip)        # 10f150 <frame_list>
  104de3:	48 8b 05 6e a3 00 00 	mov    0xa36e(%rip),%rax        # 10f158 <frame_list+0x8>
  104dea:	48 83 c0 01          	add    $0x1,%rax
  104dee:	48 89 05 63 a3 00 00 	mov    %rax,0xa363(%rip)        # 10f158 <frame_list+0x8>
  104df5:	90                   	nop
  104df6:	5d                   	pop    %rbp
  104df7:	c3                   	ret

0000000000104df8 <test_basic_alloc_and_free>:
  104df8:	55                   	push   %rbp
  104df9:	48 89 e5             	mov    %rsp,%rbp
  104dfc:	48 83 ec 20          	sub    $0x20,%rsp
  104e00:	bf 08 03 10 00       	mov    $0x100308,%edi
  104e05:	b8 00 00 00 00       	mov    $0x0,%eax
  104e0a:	e8 a5 1c 00 00       	call   106ab4 <printk>
  104e0f:	e8 a2 fe ff ff       	call   104cb6 <MMU_pf_alloc>
  104e14:	48 89 45 f8          	mov    %rax,-0x8(%rbp)
  104e18:	e8 99 fe ff ff       	call   104cb6 <MMU_pf_alloc>
  104e1d:	48 89 45 f0          	mov    %rax,-0x10(%rbp)
  104e21:	e8 90 fe ff ff       	call   104cb6 <MMU_pf_alloc>
  104e26:	48 89 45 e8          	mov    %rax,-0x18(%rbp)
  104e2a:	48 8b 45 f8          	mov    -0x8(%rbp),%rax
  104e2e:	48 89 c6             	mov    %rax,%rsi
  104e31:	bf 34 03 10 00       	mov    $0x100334,%edi
  104e36:	b8 00 00 00 00       	mov    $0x0,%eax
  104e3b:	e8 74 1c 00 00       	call   106ab4 <printk>
  104e40:	48 8b 45 f0          	mov    -0x10(%rbp),%rax
  104e44:	48 89 c6             	mov    %rax,%rsi
  104e47:	bf 4f 03 10 00       	mov    $0x10034f,%edi
  104e4c:	b8 00 00 00 00       	mov    $0x0,%eax
  104e51:	e8 5e 1c 00 00       	call   106ab4 <printk>
  104e56:	48 8b 45 e8          	mov    -0x18(%rbp),%rax
  104e5a:	48 89 c6             	mov    %rax,%rsi
  104e5d:	bf 6b 03 10 00       	mov    $0x10036b,%edi
  104e62:	b8 00 00 00 00       	mov    $0x0,%eax
  104e67:	e8 48 1c 00 00       	call   106ab4 <printk>
  104e6c:	bf 86 03 10 00       	mov    $0x100386,%edi
  104e71:	b8 00 00 00 00       	mov    $0x0,%eax
  104e76:	e8 39 1c 00 00       	call   106ab4 <printk>
  104e7b:	48 8b 45 f8          	mov    -0x8(%rbp),%rax
  104e7f:	48 89 c7             	mov    %rax,%rdi
  104e82:	e8 33 ff ff ff       	call   104dba <MMU_pf_free>
  104e87:	bf 97 03 10 00       	mov    $0x100397,%edi
  104e8c:	b8 00 00 00 00       	mov    $0x0,%eax
  104e91:	e8 1e 1c 00 00       	call   106ab4 <printk>
  104e96:	48 8b 45 f0          	mov    -0x10(%rbp),%rax
  104e9a:	48 89 c7             	mov    %rax,%rdi
  104e9d:	e8 18 ff ff ff       	call   104dba <MMU_pf_free>
  104ea2:	bf a8 03 10 00       	mov    $0x1003a8,%edi
  104ea7:	b8 00 00 00 00       	mov    $0x0,%eax
  104eac:	e8 03 1c 00 00       	call   106ab4 <printk>
  104eb1:	e8 00 fe ff ff       	call   104cb6 <MMU_pf_alloc>
  104eb6:	48 89 45 f8          	mov    %rax,-0x8(%rbp)
  104eba:	e8 f7 fd ff ff       	call   104cb6 <MMU_pf_alloc>
  104ebf:	48 89 45 f0          	mov    %rax,-0x10(%rbp)
  104ec3:	48 8b 45 f8          	mov    -0x8(%rbp),%rax
  104ec7:	48 89 c6             	mov    %rax,%rsi
  104eca:	bf e8 03 10 00       	mov    $0x1003e8,%edi
  104ecf:	b8 00 00 00 00       	mov    $0x0,%eax
  104ed4:	e8 db 1b 00 00       	call   106ab4 <printk>
  104ed9:	48 8b 45 f0          	mov    -0x10(%rbp),%rax
  104edd:	48 89 c6             	mov    %rax,%rsi
  104ee0:	bf 18 04 10 00       	mov    $0x100418,%edi
  104ee5:	b8 00 00 00 00       	mov    $0x0,%eax
  104eea:	e8 c5 1b 00 00       	call   106ab4 <printk>
  104eef:	48 8b 45 e8          	mov    -0x18(%rbp),%rax
  104ef3:	48 89 c7             	mov    %rax,%rdi
  104ef6:	e8 bf fe ff ff       	call   104dba <MMU_pf_free>
  104efb:	48 8b 45 f8          	mov    -0x8(%rbp),%rax
  104eff:	48 89 c7             	mov    %rax,%rdi
  104f02:	e8 b3 fe ff ff       	call   104dba <MMU_pf_free>
  104f07:	48 8b 45 f0          	mov    -0x10(%rbp),%rax
  104f0b:	48 89 c7             	mov    %rax,%rdi
  104f0e:	e8 a7 fe ff ff       	call   104dba <MMU_pf_free>
  104f13:	90                   	nop
  104f14:	c9                   	leave
  104f15:	c3                   	ret

0000000000104f16 <test_full_allocation>:
  104f16:	55                   	push   %rbp
  104f17:	48 89 e5             	mov    %rsp,%rbp
  104f1a:	48 83 ec 40          	sub    $0x40,%rsp
  104f1e:	bf 45 04 10 00       	mov    $0x100445,%edi
  104f23:	b8 00 00 00 00       	mov    $0x0,%eax
  104f28:	e8 87 1b 00 00       	call   106ab4 <printk>
  104f2d:	e8 84 fd ff ff       	call   104cb6 <MMU_pf_alloc>
  104f32:	48 89 45 f8          	mov    %rax,-0x8(%rbp)
  104f36:	eb 3b                	jmp    104f73 <test_full_allocation+0x5d>
  104f38:	48 8b 45 f8          	mov    -0x8(%rbp),%rax
  104f3c:	48 89 45 c0          	mov    %rax,-0x40(%rbp)
  104f40:	c7 45 f4 00 00 00 00 	movl   $0x0,-0xc(%rbp)
  104f47:	eb 17                	jmp    104f60 <test_full_allocation+0x4a>
  104f49:	48 8b 45 f8          	mov    -0x8(%rbp),%rax
  104f4d:	48 8d 50 08          	lea    0x8(%rax),%rdx
  104f51:	48 89 55 f8          	mov    %rdx,-0x8(%rbp)
  104f55:	48 8b 55 c0          	mov    -0x40(%rbp),%rdx
  104f59:	48 89 10             	mov    %rdx,(%rax)
  104f5c:	83 45 f4 01          	addl   $0x1,-0xc(%rbp)
  104f60:	8b 45 f4             	mov    -0xc(%rbp),%eax
  104f63:	3d ff 01 00 00       	cmp    $0x1ff,%eax
  104f68:	76 df                	jbe    104f49 <test_full_allocation+0x33>
  104f6a:	e8 47 fd ff ff       	call   104cb6 <MMU_pf_alloc>
  104f6f:	48 89 45 f8          	mov    %rax,-0x8(%rbp)
  104f73:	48 83 7d f8 00       	cmpq   $0x0,-0x8(%rbp)
  104f78:	75 be                	jne    104f38 <test_full_allocation+0x22>
  104f7a:	48 8b 05 07 28 00 00 	mov    0x2807(%rip),%rax        # 107788 <rlh>
  104f81:	48 8b 40 10          	mov    0x10(%rax),%rax
  104f85:	48 89 45 e8          	mov    %rax,-0x18(%rbp)
  104f89:	e9 b7 00 00 00       	jmp    105045 <test_full_allocation+0x12f>
  104f8e:	48 8b 45 e8          	mov    -0x18(%rbp),%rax
  104f92:	48 8b 50 08          	mov    0x8(%rax),%rdx
  104f96:	48 8b 45 e8          	mov    -0x18(%rbp),%rax
  104f9a:	48 8b 00             	mov    (%rax),%rax
  104f9d:	48 89 c6             	mov    %rax,%rsi
  104fa0:	bf 68 04 10 00       	mov    $0x100468,%edi
  104fa5:	b8 00 00 00 00       	mov    $0x0,%eax
  104faa:	e8 05 1b 00 00       	call   106ab4 <printk>
  104faf:	48 8b 45 e8          	mov    -0x18(%rbp),%rax
  104fb3:	48 8b 00             	mov    (%rax),%rax
  104fb6:	48 89 45 e0          	mov    %rax,-0x20(%rbp)
  104fba:	48 8b 45 e8          	mov    -0x18(%rbp),%rax
  104fbe:	48 8b 00             	mov    (%rax),%rax
  104fc1:	48 89 45 d8          	mov    %rax,-0x28(%rbp)
  104fc5:	48 8b 45 e8          	mov    -0x18(%rbp),%rax
  104fc9:	48 8b 40 08          	mov    0x8(%rax),%rax
  104fcd:	48 89 45 c8          	mov    %rax,-0x38(%rbp)
  104fd1:	48 81 65 c8 00 f0 ff 	andq   $0xfffffffffffff000,-0x38(%rbp)
  104fd8:	ff 
  104fd9:	eb 54                	jmp    10502f <test_full_allocation+0x119>
  104fdb:	c7 45 d4 00 00 00 00 	movl   $0x0,-0x2c(%rbp)
  104fe2:	eb 39                	jmp    10501d <test_full_allocation+0x107>
  104fe4:	48 8b 45 e0          	mov    -0x20(%rbp),%rax
  104fe8:	48 8d 50 08          	lea    0x8(%rax),%rdx
  104fec:	48 89 55 e0          	mov    %rdx,-0x20(%rbp)
  104ff0:	48 8b 00             	mov    (%rax),%rax
  104ff3:	48 39 45 d8          	cmp    %rax,-0x28(%rbp)
  104ff7:	74 20                	je     105019 <test_full_allocation+0x103>
  104ff9:	48 8b 45 e0          	mov    -0x20(%rbp),%rax
  104ffd:	48 8b 00             	mov    (%rax),%rax
  105000:	8b 4d d4             	mov    -0x2c(%rbp),%ecx
  105003:	48 8b 55 d8          	mov    -0x28(%rbp),%rdx
  105007:	48 89 c6             	mov    %rax,%rsi
  10500a:	bf b0 04 10 00       	mov    $0x1004b0,%edi
  10500f:	b8 00 00 00 00       	mov    $0x0,%eax
  105014:	e8 9b 1a 00 00       	call   106ab4 <printk>
  105019:	83 45 d4 01          	addl   $0x1,-0x2c(%rbp)
  10501d:	8b 45 d4             	mov    -0x2c(%rbp),%eax
  105020:	3d ff 01 00 00       	cmp    $0x1ff,%eax
  105025:	76 bd                	jbe    104fe4 <test_full_allocation+0xce>
  105027:	48 8b 45 e0          	mov    -0x20(%rbp),%rax
  10502b:	48 89 45 d8          	mov    %rax,-0x28(%rbp)
  10502f:	48 8b 45 d8          	mov    -0x28(%rbp),%rax
  105033:	48 3b 45 c8          	cmp    -0x38(%rbp),%rax
  105037:	72 a2                	jb     104fdb <test_full_allocation+0xc5>
  105039:	48 8b 45 e8          	mov    -0x18(%rbp),%rax
  10503d:	48 8b 40 10          	mov    0x10(%rax),%rax
  105041:	48 89 45 e8          	mov    %rax,-0x18(%rbp)
  105045:	48 83 7d e8 00       	cmpq   $0x0,-0x18(%rbp)
  10504a:	0f 85 3e ff ff ff    	jne    104f8e <test_full_allocation+0x78>
  105050:	bf 10 05 10 00       	mov    $0x100510,%edi
  105055:	b8 00 00 00 00       	mov    $0x0,%eax
  10505a:	e8 55 1a 00 00       	call   106ab4 <printk>
  10505f:	90                   	nop
  105060:	c9                   	leave
  105061:	c3                   	ret

0000000000105062 <ps2_poll_read>:
  105062:	55                   	push   %rbp
  105063:	48 89 e5             	mov    %rsp,%rbp
  105066:	48 83 ec 10          	sub    $0x10,%rsp
  10506a:	bf 64 00 00 00       	mov    $0x64,%edi
  10506f:	e8 94 22 00 00       	call   107308 <inb>
  105074:	88 45 ff             	mov    %al,-0x1(%rbp)
  105077:	eb 0d                	jmp    105086 <ps2_poll_read+0x24>
  105079:	bf 64 00 00 00       	mov    $0x64,%edi
  10507e:	e8 85 22 00 00       	call   107308 <inb>
  105083:	88 45 ff             	mov    %al,-0x1(%rbp)
  105086:	0f be 45 ff          	movsbl -0x1(%rbp),%eax
  10508a:	83 e0 01             	and    $0x1,%eax
  10508d:	85 c0                	test   %eax,%eax
  10508f:	74 e8                	je     105079 <ps2_poll_read+0x17>
  105091:	bf 60 00 00 00       	mov    $0x60,%edi
  105096:	e8 6d 22 00 00       	call   107308 <inb>
  10509b:	c9                   	leave
  10509c:	c3                   	ret

000000000010509d <ps2_poll_out>:
  10509d:	55                   	push   %rbp
  10509e:	48 89 e5             	mov    %rsp,%rbp
  1050a1:	48 83 ec 10          	sub    $0x10,%rsp
  1050a5:	90                   	nop
  1050a6:	bf 64 00 00 00       	mov    $0x64,%edi
  1050ab:	e8 58 22 00 00       	call   107308 <inb>
  1050b0:	83 e0 02             	and    $0x2,%eax
  1050b3:	88 45 ff             	mov    %al,-0x1(%rbp)
  1050b6:	80 7d ff 00          	cmpb   $0x0,-0x1(%rbp)
  1050ba:	75 ea                	jne    1050a6 <ps2_poll_out+0x9>
  1050bc:	90                   	nop
  1050bd:	90                   	nop
  1050be:	c9                   	leave
  1050bf:	c3                   	ret

00000000001050c0 <keyboard_input_handler>:
  1050c0:	55                   	push   %rbp
  1050c1:	48 89 e5             	mov    %rsp,%rbp
  1050c4:	48 83 ec 30          	sub    $0x30,%rsp
  1050c8:	89 7d ec             	mov    %edi,-0x14(%rbp)
  1050cb:	48 89 75 e0          	mov    %rsi,-0x20(%rbp)
  1050cf:	48 89 55 d8          	mov    %rdx,-0x28(%rbp)
  1050d3:	e8 d5 00 00 00       	call   1051ad <read_kb>
  1050d8:	88 45 ff             	mov    %al,-0x1(%rbp)
  1050db:	80 7d ff 00          	cmpb   $0x0,-0x1(%rbp)
  1050df:	74 15                	je     1050f6 <keyboard_input_handler+0x36>
  1050e1:	0f b6 45 ff          	movzbl -0x1(%rbp),%eax
  1050e5:	89 c6                	mov    %eax,%esi
  1050e7:	bf 40 05 10 00       	mov    $0x100540,%edi
  1050ec:	b8 00 00 00 00       	mov    $0x0,%eax
  1050f1:	e8 be 19 00 00       	call   106ab4 <printk>
  1050f6:	90                   	nop
  1050f7:	c9                   	leave
  1050f8:	c3                   	ret

00000000001050f9 <enable_kb>:
  1050f9:	55                   	push   %rbp
  1050fa:	48 89 e5             	mov    %rsp,%rbp
  1050fd:	bf 01 00 00 00       	mov    $0x1,%edi
  105102:	e8 cc dd ff ff       	call   102ed3 <IRQ_clear_mask>
  105107:	90                   	nop
  105108:	5d                   	pop    %rbp
  105109:	c3                   	ret

000000000010510a <ps2_init>:
  10510a:	55                   	push   %rbp
  10510b:	48 89 e5             	mov    %rsp,%rbp
  10510e:	48 83 ec 10          	sub    $0x10,%rsp
  105112:	be ad 00 00 00       	mov    $0xad,%esi
  105117:	bf 64 00 00 00       	mov    $0x64,%edi
  10511c:	e8 cc 21 00 00       	call   1072ed <outb>
  105121:	be a7 00 00 00       	mov    $0xa7,%esi
  105126:	bf 64 00 00 00       	mov    $0x64,%edi
  10512b:	e8 bd 21 00 00       	call   1072ed <outb>
  105130:	bf 64 00 00 00       	mov    $0x64,%edi
  105135:	e8 ce 21 00 00       	call   107308 <inb>
  10513a:	88 45 ff             	mov    %al,-0x1(%rbp)
  10513d:	0f b6 45 ff          	movzbl -0x1(%rbp),%eax
  105141:	83 c8 21             	or     $0x21,%eax
  105144:	83 e0 e5             	and    $0xffffffe5,%eax
  105147:	88 45 ff             	mov    %al,-0x1(%rbp)
  10514a:	e8 4e ff ff ff       	call   10509d <ps2_poll_out>
  10514f:	0f b6 45 ff          	movzbl -0x1(%rbp),%eax
  105153:	89 c6                	mov    %eax,%esi
  105155:	bf 64 00 00 00       	mov    $0x64,%edi
  10515a:	e8 8e 21 00 00       	call   1072ed <outb>
  10515f:	be ff 00 00 00       	mov    $0xff,%esi
  105164:	bf 60 00 00 00       	mov    $0x60,%edi
  105169:	e8 7f 21 00 00       	call   1072ed <outb>
  10516e:	e8 2a ff ff ff       	call   10509d <ps2_poll_out>
  105173:	be f1 00 00 00       	mov    $0xf1,%esi
  105178:	bf 60 00 00 00       	mov    $0x60,%edi
  10517d:	e8 6b 21 00 00       	call   1072ed <outb>
  105182:	e8 16 ff ff ff       	call   10509d <ps2_poll_out>
  105187:	be ae 00 00 00       	mov    $0xae,%esi
  10518c:	bf 64 00 00 00       	mov    $0x64,%edi
  105191:	e8 57 21 00 00       	call   1072ed <outb>
  105196:	ba 62 f1 10 00       	mov    $0x10f162,%edx
  10519b:	be c0 50 10 00       	mov    $0x1050c0,%esi
  1051a0:	bf 21 00 00 00       	mov    $0x21,%edi
  1051a5:	e8 00 de ff ff       	call   102faa <IRQ_set_handler>
  1051aa:	90                   	nop
  1051ab:	c9                   	leave
  1051ac:	c3                   	ret

00000000001051ad <read_kb>:
  1051ad:	55                   	push   %rbp
  1051ae:	48 89 e5             	mov    %rsp,%rbp
  1051b1:	48 83 ec 10          	sub    $0x10,%rsp
  1051b5:	bf 60 00 00 00       	mov    $0x60,%edi
  1051ba:	e8 49 21 00 00       	call   107308 <inb>
  1051bf:	88 45 ff             	mov    %al,-0x1(%rbp)
  1051c2:	0f b6 45 ff          	movzbl -0x1(%rbp),%eax
  1051c6:	3d b6 00 00 00       	cmp    $0xb6,%eax
  1051cb:	0f 87 0e 08 00 00    	ja     1059df <read_kb+0x832>
  1051d1:	89 c0                	mov    %eax,%eax
  1051d3:	48 8b 04 c5 48 05 10 	mov    0x100548(,%rax,8),%rax
  1051da:	00 
  1051db:	ff e0                	jmp    *%rax
  1051dd:	0f b6 05 7c 9f 00 00 	movzbl 0x9f7c(%rip),%eax        # 10f160 <left_shift>
  1051e4:	84 c0                	test   %al,%al
  1051e6:	75 0b                	jne    1051f3 <read_kb+0x46>
  1051e8:	0f b6 05 72 9f 00 00 	movzbl 0x9f72(%rip),%eax        # 10f161 <right_shift>
  1051ef:	84 c0                	test   %al,%al
  1051f1:	74 0a                	je     1051fd <read_kb+0x50>
  1051f3:	b8 41 00 00 00       	mov    $0x41,%eax
  1051f8:	e9 e7 07 00 00       	jmp    1059e4 <read_kb+0x837>
  1051fd:	b8 61 00 00 00       	mov    $0x61,%eax
  105202:	e9 dd 07 00 00       	jmp    1059e4 <read_kb+0x837>
  105207:	0f b6 05 52 9f 00 00 	movzbl 0x9f52(%rip),%eax        # 10f160 <left_shift>
  10520e:	84 c0                	test   %al,%al
  105210:	75 0b                	jne    10521d <read_kb+0x70>
  105212:	0f b6 05 48 9f 00 00 	movzbl 0x9f48(%rip),%eax        # 10f161 <right_shift>
  105219:	84 c0                	test   %al,%al
  10521b:	74 0a                	je     105227 <read_kb+0x7a>
  10521d:	b8 42 00 00 00       	mov    $0x42,%eax
  105222:	e9 bd 07 00 00       	jmp    1059e4 <read_kb+0x837>
  105227:	b8 62 00 00 00       	mov    $0x62,%eax
  10522c:	e9 b3 07 00 00       	jmp    1059e4 <read_kb+0x837>
  105231:	0f b6 05 28 9f 00 00 	movzbl 0x9f28(%rip),%eax        # 10f160 <left_shift>
  105238:	84 c0                	test   %al,%al
  10523a:	75 0b                	jne    105247 <read_kb+0x9a>
  10523c:	0f b6 05 1e 9f 00 00 	movzbl 0x9f1e(%rip),%eax        # 10f161 <right_shift>
  105243:	84 c0                	test   %al,%al
  105245:	74 0a                	je     105251 <read_kb+0xa4>
  105247:	b8 43 00 00 00       	mov    $0x43,%eax
  10524c:	e9 93 07 00 00       	jmp    1059e4 <read_kb+0x837>
  105251:	b8 63 00 00 00       	mov    $0x63,%eax
  105256:	e9 89 07 00 00       	jmp    1059e4 <read_kb+0x837>
  10525b:	0f b6 05 fe 9e 00 00 	movzbl 0x9efe(%rip),%eax        # 10f160 <left_shift>
  105262:	84 c0                	test   %al,%al
  105264:	75 0b                	jne    105271 <read_kb+0xc4>
  105266:	0f b6 05 f4 9e 00 00 	movzbl 0x9ef4(%rip),%eax        # 10f161 <right_shift>
  10526d:	84 c0                	test   %al,%al
  10526f:	74 0a                	je     10527b <read_kb+0xce>
  105271:	b8 44 00 00 00       	mov    $0x44,%eax
  105276:	e9 69 07 00 00       	jmp    1059e4 <read_kb+0x837>
  10527b:	b8 64 00 00 00       	mov    $0x64,%eax
  105280:	e9 5f 07 00 00       	jmp    1059e4 <read_kb+0x837>
  105285:	0f b6 05 d4 9e 00 00 	movzbl 0x9ed4(%rip),%eax        # 10f160 <left_shift>
  10528c:	84 c0                	test   %al,%al
  10528e:	75 0b                	jne    10529b <read_kb+0xee>
  105290:	0f b6 05 ca 9e 00 00 	movzbl 0x9eca(%rip),%eax        # 10f161 <right_shift>
  105297:	84 c0                	test   %al,%al
  105299:	74 0a                	je     1052a5 <read_kb+0xf8>
  10529b:	b8 45 00 00 00       	mov    $0x45,%eax
  1052a0:	e9 3f 07 00 00       	jmp    1059e4 <read_kb+0x837>
  1052a5:	b8 65 00 00 00       	mov    $0x65,%eax
  1052aa:	e9 35 07 00 00       	jmp    1059e4 <read_kb+0x837>
  1052af:	0f b6 05 aa 9e 00 00 	movzbl 0x9eaa(%rip),%eax        # 10f160 <left_shift>
  1052b6:	84 c0                	test   %al,%al
  1052b8:	75 0b                	jne    1052c5 <read_kb+0x118>
  1052ba:	0f b6 05 a0 9e 00 00 	movzbl 0x9ea0(%rip),%eax        # 10f161 <right_shift>
  1052c1:	84 c0                	test   %al,%al
  1052c3:	74 0a                	je     1052cf <read_kb+0x122>
  1052c5:	b8 46 00 00 00       	mov    $0x46,%eax
  1052ca:	e9 15 07 00 00       	jmp    1059e4 <read_kb+0x837>
  1052cf:	b8 66 00 00 00       	mov    $0x66,%eax
  1052d4:	e9 0b 07 00 00       	jmp    1059e4 <read_kb+0x837>
  1052d9:	0f b6 05 80 9e 00 00 	movzbl 0x9e80(%rip),%eax        # 10f160 <left_shift>
  1052e0:	84 c0                	test   %al,%al
  1052e2:	75 0b                	jne    1052ef <read_kb+0x142>
  1052e4:	0f b6 05 76 9e 00 00 	movzbl 0x9e76(%rip),%eax        # 10f161 <right_shift>
  1052eb:	84 c0                	test   %al,%al
  1052ed:	74 0a                	je     1052f9 <read_kb+0x14c>
  1052ef:	b8 47 00 00 00       	mov    $0x47,%eax
  1052f4:	e9 eb 06 00 00       	jmp    1059e4 <read_kb+0x837>
  1052f9:	b8 67 00 00 00       	mov    $0x67,%eax
  1052fe:	e9 e1 06 00 00       	jmp    1059e4 <read_kb+0x837>
  105303:	0f b6 05 56 9e 00 00 	movzbl 0x9e56(%rip),%eax        # 10f160 <left_shift>
  10530a:	84 c0                	test   %al,%al
  10530c:	75 0b                	jne    105319 <read_kb+0x16c>
  10530e:	0f b6 05 4c 9e 00 00 	movzbl 0x9e4c(%rip),%eax        # 10f161 <right_shift>
  105315:	84 c0                	test   %al,%al
  105317:	74 0a                	je     105323 <read_kb+0x176>
  105319:	b8 48 00 00 00       	mov    $0x48,%eax
  10531e:	e9 c1 06 00 00       	jmp    1059e4 <read_kb+0x837>
  105323:	b8 68 00 00 00       	mov    $0x68,%eax
  105328:	e9 b7 06 00 00       	jmp    1059e4 <read_kb+0x837>
  10532d:	0f b6 05 2c 9e 00 00 	movzbl 0x9e2c(%rip),%eax        # 10f160 <left_shift>
  105334:	84 c0                	test   %al,%al
  105336:	75 0b                	jne    105343 <read_kb+0x196>
  105338:	0f b6 05 22 9e 00 00 	movzbl 0x9e22(%rip),%eax        # 10f161 <right_shift>
  10533f:	84 c0                	test   %al,%al
  105341:	74 0a                	je     10534d <read_kb+0x1a0>
  105343:	b8 49 00 00 00       	mov    $0x49,%eax
  105348:	e9 97 06 00 00       	jmp    1059e4 <read_kb+0x837>
  10534d:	b8 69 00 00 00       	mov    $0x69,%eax
  105352:	e9 8d 06 00 00       	jmp    1059e4 <read_kb+0x837>
  105357:	0f b6 05 02 9e 00 00 	movzbl 0x9e02(%rip),%eax        # 10f160 <left_shift>
  10535e:	84 c0                	test   %al,%al
  105360:	75 0b                	jne    10536d <read_kb+0x1c0>
  105362:	0f b6 05 f8 9d 00 00 	movzbl 0x9df8(%rip),%eax        # 10f161 <right_shift>
  105369:	84 c0                	test   %al,%al
  10536b:	74 0a                	je     105377 <read_kb+0x1ca>
  10536d:	b8 4a 00 00 00       	mov    $0x4a,%eax
  105372:	e9 6d 06 00 00       	jmp    1059e4 <read_kb+0x837>
  105377:	b8 6a 00 00 00       	mov    $0x6a,%eax
  10537c:	e9 63 06 00 00       	jmp    1059e4 <read_kb+0x837>
  105381:	0f b6 05 d8 9d 00 00 	movzbl 0x9dd8(%rip),%eax        # 10f160 <left_shift>
  105388:	84 c0                	test   %al,%al
  10538a:	75 0b                	jne    105397 <read_kb+0x1ea>
  10538c:	0f b6 05 ce 9d 00 00 	movzbl 0x9dce(%rip),%eax        # 10f161 <right_shift>
  105393:	84 c0                	test   %al,%al
  105395:	74 0a                	je     1053a1 <read_kb+0x1f4>
  105397:	b8 4b 00 00 00       	mov    $0x4b,%eax
  10539c:	e9 43 06 00 00       	jmp    1059e4 <read_kb+0x837>
  1053a1:	b8 6b 00 00 00       	mov    $0x6b,%eax
  1053a6:	e9 39 06 00 00       	jmp    1059e4 <read_kb+0x837>
  1053ab:	0f b6 05 ae 9d 00 00 	movzbl 0x9dae(%rip),%eax        # 10f160 <left_shift>
  1053b2:	84 c0                	test   %al,%al
  1053b4:	75 0b                	jne    1053c1 <read_kb+0x214>
  1053b6:	0f b6 05 a4 9d 00 00 	movzbl 0x9da4(%rip),%eax        # 10f161 <right_shift>
  1053bd:	84 c0                	test   %al,%al
  1053bf:	74 0a                	je     1053cb <read_kb+0x21e>
  1053c1:	b8 4c 00 00 00       	mov    $0x4c,%eax
  1053c6:	e9 19 06 00 00       	jmp    1059e4 <read_kb+0x837>
  1053cb:	b8 6c 00 00 00       	mov    $0x6c,%eax
  1053d0:	e9 0f 06 00 00       	jmp    1059e4 <read_kb+0x837>
  1053d5:	0f b6 05 84 9d 00 00 	movzbl 0x9d84(%rip),%eax        # 10f160 <left_shift>
  1053dc:	84 c0                	test   %al,%al
  1053de:	75 0b                	jne    1053eb <read_kb+0x23e>
  1053e0:	0f b6 05 7a 9d 00 00 	movzbl 0x9d7a(%rip),%eax        # 10f161 <right_shift>
  1053e7:	84 c0                	test   %al,%al
  1053e9:	74 0a                	je     1053f5 <read_kb+0x248>
  1053eb:	b8 4d 00 00 00       	mov    $0x4d,%eax
  1053f0:	e9 ef 05 00 00       	jmp    1059e4 <read_kb+0x837>
  1053f5:	b8 6d 00 00 00       	mov    $0x6d,%eax
  1053fa:	e9 e5 05 00 00       	jmp    1059e4 <read_kb+0x837>
  1053ff:	0f b6 05 5a 9d 00 00 	movzbl 0x9d5a(%rip),%eax        # 10f160 <left_shift>
  105406:	84 c0                	test   %al,%al
  105408:	75 0b                	jne    105415 <read_kb+0x268>
  10540a:	0f b6 05 50 9d 00 00 	movzbl 0x9d50(%rip),%eax        # 10f161 <right_shift>
  105411:	84 c0                	test   %al,%al
  105413:	74 0a                	je     10541f <read_kb+0x272>
  105415:	b8 4e 00 00 00       	mov    $0x4e,%eax
  10541a:	e9 c5 05 00 00       	jmp    1059e4 <read_kb+0x837>
  10541f:	b8 6e 00 00 00       	mov    $0x6e,%eax
  105424:	e9 bb 05 00 00       	jmp    1059e4 <read_kb+0x837>
  105429:	0f b6 05 30 9d 00 00 	movzbl 0x9d30(%rip),%eax        # 10f160 <left_shift>
  105430:	84 c0                	test   %al,%al
  105432:	75 0b                	jne    10543f <read_kb+0x292>
  105434:	0f b6 05 26 9d 00 00 	movzbl 0x9d26(%rip),%eax        # 10f161 <right_shift>
  10543b:	84 c0                	test   %al,%al
  10543d:	74 0a                	je     105449 <read_kb+0x29c>
  10543f:	b8 4f 00 00 00       	mov    $0x4f,%eax
  105444:	e9 9b 05 00 00       	jmp    1059e4 <read_kb+0x837>
  105449:	b8 6f 00 00 00       	mov    $0x6f,%eax
  10544e:	e9 91 05 00 00       	jmp    1059e4 <read_kb+0x837>
  105453:	0f b6 05 06 9d 00 00 	movzbl 0x9d06(%rip),%eax        # 10f160 <left_shift>
  10545a:	84 c0                	test   %al,%al
  10545c:	75 0b                	jne    105469 <read_kb+0x2bc>
  10545e:	0f b6 05 fc 9c 00 00 	movzbl 0x9cfc(%rip),%eax        # 10f161 <right_shift>
  105465:	84 c0                	test   %al,%al
  105467:	74 0a                	je     105473 <read_kb+0x2c6>
  105469:	b8 50 00 00 00       	mov    $0x50,%eax
  10546e:	e9 71 05 00 00       	jmp    1059e4 <read_kb+0x837>
  105473:	b8 70 00 00 00       	mov    $0x70,%eax
  105478:	e9 67 05 00 00       	jmp    1059e4 <read_kb+0x837>
  10547d:	0f b6 05 dc 9c 00 00 	movzbl 0x9cdc(%rip),%eax        # 10f160 <left_shift>
  105484:	84 c0                	test   %al,%al
  105486:	75 0b                	jne    105493 <read_kb+0x2e6>
  105488:	0f b6 05 d2 9c 00 00 	movzbl 0x9cd2(%rip),%eax        # 10f161 <right_shift>
  10548f:	84 c0                	test   %al,%al
  105491:	74 0a                	je     10549d <read_kb+0x2f0>
  105493:	b8 51 00 00 00       	mov    $0x51,%eax
  105498:	e9 47 05 00 00       	jmp    1059e4 <read_kb+0x837>
  10549d:	b8 71 00 00 00       	mov    $0x71,%eax
  1054a2:	e9 3d 05 00 00       	jmp    1059e4 <read_kb+0x837>
  1054a7:	0f b6 05 b2 9c 00 00 	movzbl 0x9cb2(%rip),%eax        # 10f160 <left_shift>
  1054ae:	84 c0                	test   %al,%al
  1054b0:	75 0b                	jne    1054bd <read_kb+0x310>
  1054b2:	0f b6 05 a8 9c 00 00 	movzbl 0x9ca8(%rip),%eax        # 10f161 <right_shift>
  1054b9:	84 c0                	test   %al,%al
  1054bb:	74 0a                	je     1054c7 <read_kb+0x31a>
  1054bd:	b8 52 00 00 00       	mov    $0x52,%eax
  1054c2:	e9 1d 05 00 00       	jmp    1059e4 <read_kb+0x837>
  1054c7:	b8 72 00 00 00       	mov    $0x72,%eax
  1054cc:	e9 13 05 00 00       	jmp    1059e4 <read_kb+0x837>
  1054d1:	0f b6 05 88 9c 00 00 	movzbl 0x9c88(%rip),%eax        # 10f160 <left_shift>
  1054d8:	84 c0                	test   %al,%al
  1054da:	75 0b                	jne    1054e7 <read_kb+0x33a>
  1054dc:	0f b6 05 7e 9c 00 00 	movzbl 0x9c7e(%rip),%eax        # 10f161 <right_shift>
  1054e3:	84 c0                	test   %al,%al
  1054e5:	74 0a                	je     1054f1 <read_kb+0x344>
  1054e7:	b8 53 00 00 00       	mov    $0x53,%eax
  1054ec:	e9 f3 04 00 00       	jmp    1059e4 <read_kb+0x837>
  1054f1:	b8 73 00 00 00       	mov    $0x73,%eax
  1054f6:	e9 e9 04 00 00       	jmp    1059e4 <read_kb+0x837>
  1054fb:	0f b6 05 5e 9c 00 00 	movzbl 0x9c5e(%rip),%eax        # 10f160 <left_shift>
  105502:	84 c0                	test   %al,%al
  105504:	75 0b                	jne    105511 <read_kb+0x364>
  105506:	0f b6 05 54 9c 00 00 	movzbl 0x9c54(%rip),%eax        # 10f161 <right_shift>
  10550d:	84 c0                	test   %al,%al
  10550f:	74 0a                	je     10551b <read_kb+0x36e>
  105511:	b8 54 00 00 00       	mov    $0x54,%eax
  105516:	e9 c9 04 00 00       	jmp    1059e4 <read_kb+0x837>
  10551b:	b8 74 00 00 00       	mov    $0x74,%eax
  105520:	e9 bf 04 00 00       	jmp    1059e4 <read_kb+0x837>
  105525:	0f b6 05 34 9c 00 00 	movzbl 0x9c34(%rip),%eax        # 10f160 <left_shift>
  10552c:	84 c0                	test   %al,%al
  10552e:	75 0b                	jne    10553b <read_kb+0x38e>
  105530:	0f b6 05 2a 9c 00 00 	movzbl 0x9c2a(%rip),%eax        # 10f161 <right_shift>
  105537:	84 c0                	test   %al,%al
  105539:	74 0a                	je     105545 <read_kb+0x398>
  10553b:	b8 55 00 00 00       	mov    $0x55,%eax
  105540:	e9 9f 04 00 00       	jmp    1059e4 <read_kb+0x837>
  105545:	b8 75 00 00 00       	mov    $0x75,%eax
  10554a:	e9 95 04 00 00       	jmp    1059e4 <read_kb+0x837>
  10554f:	0f b6 05 0a 9c 00 00 	movzbl 0x9c0a(%rip),%eax        # 10f160 <left_shift>
  105556:	84 c0                	test   %al,%al
  105558:	75 0b                	jne    105565 <read_kb+0x3b8>
  10555a:	0f b6 05 00 9c 00 00 	movzbl 0x9c00(%rip),%eax        # 10f161 <right_shift>
  105561:	84 c0                	test   %al,%al
  105563:	74 0a                	je     10556f <read_kb+0x3c2>
  105565:	b8 56 00 00 00       	mov    $0x56,%eax
  10556a:	e9 75 04 00 00       	jmp    1059e4 <read_kb+0x837>
  10556f:	b8 76 00 00 00       	mov    $0x76,%eax
  105574:	e9 6b 04 00 00       	jmp    1059e4 <read_kb+0x837>
  105579:	0f b6 05 e0 9b 00 00 	movzbl 0x9be0(%rip),%eax        # 10f160 <left_shift>
  105580:	84 c0                	test   %al,%al
  105582:	75 0b                	jne    10558f <read_kb+0x3e2>
  105584:	0f b6 05 d6 9b 00 00 	movzbl 0x9bd6(%rip),%eax        # 10f161 <right_shift>
  10558b:	84 c0                	test   %al,%al
  10558d:	74 0a                	je     105599 <read_kb+0x3ec>
  10558f:	b8 57 00 00 00       	mov    $0x57,%eax
  105594:	e9 4b 04 00 00       	jmp    1059e4 <read_kb+0x837>
  105599:	b8 77 00 00 00       	mov    $0x77,%eax
  10559e:	e9 41 04 00 00       	jmp    1059e4 <read_kb+0x837>
  1055a3:	0f b6 05 b6 9b 00 00 	movzbl 0x9bb6(%rip),%eax        # 10f160 <left_shift>
  1055aa:	84 c0                	test   %al,%al
  1055ac:	75 0b                	jne    1055b9 <read_kb+0x40c>
  1055ae:	0f b6 05 ac 9b 00 00 	movzbl 0x9bac(%rip),%eax        # 10f161 <right_shift>
  1055b5:	84 c0                	test   %al,%al
  1055b7:	74 0a                	je     1055c3 <read_kb+0x416>
  1055b9:	b8 58 00 00 00       	mov    $0x58,%eax
  1055be:	e9 21 04 00 00       	jmp    1059e4 <read_kb+0x837>
  1055c3:	b8 78 00 00 00       	mov    $0x78,%eax
  1055c8:	e9 17 04 00 00       	jmp    1059e4 <read_kb+0x837>
  1055cd:	0f b6 05 8c 9b 00 00 	movzbl 0x9b8c(%rip),%eax        # 10f160 <left_shift>
  1055d4:	84 c0                	test   %al,%al
  1055d6:	75 0b                	jne    1055e3 <read_kb+0x436>
  1055d8:	0f b6 05 82 9b 00 00 	movzbl 0x9b82(%rip),%eax        # 10f161 <right_shift>
  1055df:	84 c0                	test   %al,%al
  1055e1:	74 0a                	je     1055ed <read_kb+0x440>
  1055e3:	b8 59 00 00 00       	mov    $0x59,%eax
  1055e8:	e9 f7 03 00 00       	jmp    1059e4 <read_kb+0x837>
  1055ed:	b8 79 00 00 00       	mov    $0x79,%eax
  1055f2:	e9 ed 03 00 00       	jmp    1059e4 <read_kb+0x837>
  1055f7:	0f b6 05 62 9b 00 00 	movzbl 0x9b62(%rip),%eax        # 10f160 <left_shift>
  1055fe:	84 c0                	test   %al,%al
  105600:	75 0b                	jne    10560d <read_kb+0x460>
  105602:	0f b6 05 58 9b 00 00 	movzbl 0x9b58(%rip),%eax        # 10f161 <right_shift>
  105609:	84 c0                	test   %al,%al
  10560b:	74 0a                	je     105617 <read_kb+0x46a>
  10560d:	b8 5a 00 00 00       	mov    $0x5a,%eax
  105612:	e9 cd 03 00 00       	jmp    1059e4 <read_kb+0x837>
  105617:	b8 7a 00 00 00       	mov    $0x7a,%eax
  10561c:	e9 c3 03 00 00       	jmp    1059e4 <read_kb+0x837>
  105621:	0f b6 05 38 9b 00 00 	movzbl 0x9b38(%rip),%eax        # 10f160 <left_shift>
  105628:	84 c0                	test   %al,%al
  10562a:	75 0b                	jne    105637 <read_kb+0x48a>
  10562c:	0f b6 05 2e 9b 00 00 	movzbl 0x9b2e(%rip),%eax        # 10f161 <right_shift>
  105633:	84 c0                	test   %al,%al
  105635:	74 0a                	je     105641 <read_kb+0x494>
  105637:	b8 21 00 00 00       	mov    $0x21,%eax
  10563c:	e9 a3 03 00 00       	jmp    1059e4 <read_kb+0x837>
  105641:	b8 31 00 00 00       	mov    $0x31,%eax
  105646:	e9 99 03 00 00       	jmp    1059e4 <read_kb+0x837>
  10564b:	0f b6 05 0e 9b 00 00 	movzbl 0x9b0e(%rip),%eax        # 10f160 <left_shift>
  105652:	84 c0                	test   %al,%al
  105654:	75 0b                	jne    105661 <read_kb+0x4b4>
  105656:	0f b6 05 04 9b 00 00 	movzbl 0x9b04(%rip),%eax        # 10f161 <right_shift>
  10565d:	84 c0                	test   %al,%al
  10565f:	74 0a                	je     10566b <read_kb+0x4be>
  105661:	b8 40 00 00 00       	mov    $0x40,%eax
  105666:	e9 79 03 00 00       	jmp    1059e4 <read_kb+0x837>
  10566b:	b8 32 00 00 00       	mov    $0x32,%eax
  105670:	e9 6f 03 00 00       	jmp    1059e4 <read_kb+0x837>
  105675:	0f b6 05 e4 9a 00 00 	movzbl 0x9ae4(%rip),%eax        # 10f160 <left_shift>
  10567c:	84 c0                	test   %al,%al
  10567e:	75 0b                	jne    10568b <read_kb+0x4de>
  105680:	0f b6 05 da 9a 00 00 	movzbl 0x9ada(%rip),%eax        # 10f161 <right_shift>
  105687:	84 c0                	test   %al,%al
  105689:	74 0a                	je     105695 <read_kb+0x4e8>
  10568b:	b8 23 00 00 00       	mov    $0x23,%eax
  105690:	e9 4f 03 00 00       	jmp    1059e4 <read_kb+0x837>
  105695:	b8 33 00 00 00       	mov    $0x33,%eax
  10569a:	e9 45 03 00 00       	jmp    1059e4 <read_kb+0x837>
  10569f:	0f b6 05 ba 9a 00 00 	movzbl 0x9aba(%rip),%eax        # 10f160 <left_shift>
  1056a6:	84 c0                	test   %al,%al
  1056a8:	75 0b                	jne    1056b5 <read_kb+0x508>
  1056aa:	0f b6 05 b0 9a 00 00 	movzbl 0x9ab0(%rip),%eax        # 10f161 <right_shift>
  1056b1:	84 c0                	test   %al,%al
  1056b3:	74 0a                	je     1056bf <read_kb+0x512>
  1056b5:	b8 24 00 00 00       	mov    $0x24,%eax
  1056ba:	e9 25 03 00 00       	jmp    1059e4 <read_kb+0x837>
  1056bf:	b8 34 00 00 00       	mov    $0x34,%eax
  1056c4:	e9 1b 03 00 00       	jmp    1059e4 <read_kb+0x837>
  1056c9:	0f b6 05 90 9a 00 00 	movzbl 0x9a90(%rip),%eax        # 10f160 <left_shift>
  1056d0:	84 c0                	test   %al,%al
  1056d2:	75 0b                	jne    1056df <read_kb+0x532>
  1056d4:	0f b6 05 86 9a 00 00 	movzbl 0x9a86(%rip),%eax        # 10f161 <right_shift>
  1056db:	84 c0                	test   %al,%al
  1056dd:	74 0a                	je     1056e9 <read_kb+0x53c>
  1056df:	b8 25 00 00 00       	mov    $0x25,%eax
  1056e4:	e9 fb 02 00 00       	jmp    1059e4 <read_kb+0x837>
  1056e9:	b8 35 00 00 00       	mov    $0x35,%eax
  1056ee:	e9 f1 02 00 00       	jmp    1059e4 <read_kb+0x837>
  1056f3:	0f b6 05 66 9a 00 00 	movzbl 0x9a66(%rip),%eax        # 10f160 <left_shift>
  1056fa:	84 c0                	test   %al,%al
  1056fc:	75 0b                	jne    105709 <read_kb+0x55c>
  1056fe:	0f b6 05 5c 9a 00 00 	movzbl 0x9a5c(%rip),%eax        # 10f161 <right_shift>
  105705:	84 c0                	test   %al,%al
  105707:	74 0a                	je     105713 <read_kb+0x566>
  105709:	b8 5e 00 00 00       	mov    $0x5e,%eax
  10570e:	e9 d1 02 00 00       	jmp    1059e4 <read_kb+0x837>
  105713:	b8 36 00 00 00       	mov    $0x36,%eax
  105718:	e9 c7 02 00 00       	jmp    1059e4 <read_kb+0x837>
  10571d:	0f b6 05 3c 9a 00 00 	movzbl 0x9a3c(%rip),%eax        # 10f160 <left_shift>
  105724:	84 c0                	test   %al,%al
  105726:	75 0b                	jne    105733 <read_kb+0x586>
  105728:	0f b6 05 32 9a 00 00 	movzbl 0x9a32(%rip),%eax        # 10f161 <right_shift>
  10572f:	84 c0                	test   %al,%al
  105731:	74 0a                	je     10573d <read_kb+0x590>
  105733:	b8 26 00 00 00       	mov    $0x26,%eax
  105738:	e9 a7 02 00 00       	jmp    1059e4 <read_kb+0x837>
  10573d:	b8 37 00 00 00       	mov    $0x37,%eax
  105742:	e9 9d 02 00 00       	jmp    1059e4 <read_kb+0x837>
  105747:	0f b6 05 12 9a 00 00 	movzbl 0x9a12(%rip),%eax        # 10f160 <left_shift>
  10574e:	84 c0                	test   %al,%al
  105750:	75 0b                	jne    10575d <read_kb+0x5b0>
  105752:	0f b6 05 08 9a 00 00 	movzbl 0x9a08(%rip),%eax        # 10f161 <right_shift>
  105759:	84 c0                	test   %al,%al
  10575b:	74 0a                	je     105767 <read_kb+0x5ba>
  10575d:	b8 2a 00 00 00       	mov    $0x2a,%eax
  105762:	e9 7d 02 00 00       	jmp    1059e4 <read_kb+0x837>
  105767:	b8 38 00 00 00       	mov    $0x38,%eax
  10576c:	e9 73 02 00 00       	jmp    1059e4 <read_kb+0x837>
  105771:	0f b6 05 e8 99 00 00 	movzbl 0x99e8(%rip),%eax        # 10f160 <left_shift>
  105778:	84 c0                	test   %al,%al
  10577a:	75 0b                	jne    105787 <read_kb+0x5da>
  10577c:	0f b6 05 de 99 00 00 	movzbl 0x99de(%rip),%eax        # 10f161 <right_shift>
  105783:	84 c0                	test   %al,%al
  105785:	74 0a                	je     105791 <read_kb+0x5e4>
  105787:	b8 28 00 00 00       	mov    $0x28,%eax
  10578c:	e9 53 02 00 00       	jmp    1059e4 <read_kb+0x837>
  105791:	b8 39 00 00 00       	mov    $0x39,%eax
  105796:	e9 49 02 00 00       	jmp    1059e4 <read_kb+0x837>
  10579b:	0f b6 05 be 99 00 00 	movzbl 0x99be(%rip),%eax        # 10f160 <left_shift>
  1057a2:	84 c0                	test   %al,%al
  1057a4:	75 0b                	jne    1057b1 <read_kb+0x604>
  1057a6:	0f b6 05 b4 99 00 00 	movzbl 0x99b4(%rip),%eax        # 10f161 <right_shift>
  1057ad:	84 c0                	test   %al,%al
  1057af:	74 0a                	je     1057bb <read_kb+0x60e>
  1057b1:	b8 29 00 00 00       	mov    $0x29,%eax
  1057b6:	e9 29 02 00 00       	jmp    1059e4 <read_kb+0x837>
  1057bb:	b8 30 00 00 00       	mov    $0x30,%eax
  1057c0:	e9 1f 02 00 00       	jmp    1059e4 <read_kb+0x837>
  1057c5:	0f b6 05 94 99 00 00 	movzbl 0x9994(%rip),%eax        # 10f160 <left_shift>
  1057cc:	84 c0                	test   %al,%al
  1057ce:	75 0b                	jne    1057db <read_kb+0x62e>
  1057d0:	0f b6 05 8a 99 00 00 	movzbl 0x998a(%rip),%eax        # 10f161 <right_shift>
  1057d7:	84 c0                	test   %al,%al
  1057d9:	74 0a                	je     1057e5 <read_kb+0x638>
  1057db:	b8 5f 00 00 00       	mov    $0x5f,%eax
  1057e0:	e9 ff 01 00 00       	jmp    1059e4 <read_kb+0x837>
  1057e5:	b8 2d 00 00 00       	mov    $0x2d,%eax
  1057ea:	e9 f5 01 00 00       	jmp    1059e4 <read_kb+0x837>
  1057ef:	0f b6 05 6a 99 00 00 	movzbl 0x996a(%rip),%eax        # 10f160 <left_shift>
  1057f6:	84 c0                	test   %al,%al
  1057f8:	75 0b                	jne    105805 <read_kb+0x658>
  1057fa:	0f b6 05 60 99 00 00 	movzbl 0x9960(%rip),%eax        # 10f161 <right_shift>
  105801:	84 c0                	test   %al,%al
  105803:	74 0a                	je     10580f <read_kb+0x662>
  105805:	b8 2b 00 00 00       	mov    $0x2b,%eax
  10580a:	e9 d5 01 00 00       	jmp    1059e4 <read_kb+0x837>
  10580f:	b8 3d 00 00 00       	mov    $0x3d,%eax
  105814:	e9 cb 01 00 00       	jmp    1059e4 <read_kb+0x837>
  105819:	0f b6 05 40 99 00 00 	movzbl 0x9940(%rip),%eax        # 10f160 <left_shift>
  105820:	84 c0                	test   %al,%al
  105822:	75 0b                	jne    10582f <read_kb+0x682>
  105824:	0f b6 05 36 99 00 00 	movzbl 0x9936(%rip),%eax        # 10f161 <right_shift>
  10582b:	84 c0                	test   %al,%al
  10582d:	74 0a                	je     105839 <read_kb+0x68c>
  10582f:	b8 7b 00 00 00       	mov    $0x7b,%eax
  105834:	e9 ab 01 00 00       	jmp    1059e4 <read_kb+0x837>
  105839:	b8 5b 00 00 00       	mov    $0x5b,%eax
  10583e:	e9 a1 01 00 00       	jmp    1059e4 <read_kb+0x837>
  105843:	0f b6 05 16 99 00 00 	movzbl 0x9916(%rip),%eax        # 10f160 <left_shift>
  10584a:	84 c0                	test   %al,%al
  10584c:	75 0b                	jne    105859 <read_kb+0x6ac>
  10584e:	0f b6 05 0c 99 00 00 	movzbl 0x990c(%rip),%eax        # 10f161 <right_shift>
  105855:	84 c0                	test   %al,%al
  105857:	74 0a                	je     105863 <read_kb+0x6b6>
  105859:	b8 7d 00 00 00       	mov    $0x7d,%eax
  10585e:	e9 81 01 00 00       	jmp    1059e4 <read_kb+0x837>
  105863:	b8 5d 00 00 00       	mov    $0x5d,%eax
  105868:	e9 77 01 00 00       	jmp    1059e4 <read_kb+0x837>
  10586d:	0f b6 05 ec 98 00 00 	movzbl 0x98ec(%rip),%eax        # 10f160 <left_shift>
  105874:	84 c0                	test   %al,%al
  105876:	75 0b                	jne    105883 <read_kb+0x6d6>
  105878:	0f b6 05 e2 98 00 00 	movzbl 0x98e2(%rip),%eax        # 10f161 <right_shift>
  10587f:	84 c0                	test   %al,%al
  105881:	74 0a                	je     10588d <read_kb+0x6e0>
  105883:	b8 3a 00 00 00       	mov    $0x3a,%eax
  105888:	e9 57 01 00 00       	jmp    1059e4 <read_kb+0x837>
  10588d:	b8 3b 00 00 00       	mov    $0x3b,%eax
  105892:	e9 4d 01 00 00       	jmp    1059e4 <read_kb+0x837>
  105897:	0f b6 05 c2 98 00 00 	movzbl 0x98c2(%rip),%eax        # 10f160 <left_shift>
  10589e:	84 c0                	test   %al,%al
  1058a0:	75 0b                	jne    1058ad <read_kb+0x700>
  1058a2:	0f b6 05 b8 98 00 00 	movzbl 0x98b8(%rip),%eax        # 10f161 <right_shift>
  1058a9:	84 c0                	test   %al,%al
  1058ab:	74 0a                	je     1058b7 <read_kb+0x70a>
  1058ad:	b8 22 00 00 00       	mov    $0x22,%eax
  1058b2:	e9 2d 01 00 00       	jmp    1059e4 <read_kb+0x837>
  1058b7:	b8 27 00 00 00       	mov    $0x27,%eax
  1058bc:	e9 23 01 00 00       	jmp    1059e4 <read_kb+0x837>
  1058c1:	0f b6 05 98 98 00 00 	movzbl 0x9898(%rip),%eax        # 10f160 <left_shift>
  1058c8:	84 c0                	test   %al,%al
  1058ca:	75 0b                	jne    1058d7 <read_kb+0x72a>
  1058cc:	0f b6 05 8e 98 00 00 	movzbl 0x988e(%rip),%eax        # 10f161 <right_shift>
  1058d3:	84 c0                	test   %al,%al
  1058d5:	74 0a                	je     1058e1 <read_kb+0x734>
  1058d7:	b8 7e 00 00 00       	mov    $0x7e,%eax
  1058dc:	e9 03 01 00 00       	jmp    1059e4 <read_kb+0x837>
  1058e1:	b8 60 00 00 00       	mov    $0x60,%eax
  1058e6:	e9 f9 00 00 00       	jmp    1059e4 <read_kb+0x837>
  1058eb:	0f b6 05 6e 98 00 00 	movzbl 0x986e(%rip),%eax        # 10f160 <left_shift>
  1058f2:	84 c0                	test   %al,%al
  1058f4:	75 0b                	jne    105901 <read_kb+0x754>
  1058f6:	0f b6 05 64 98 00 00 	movzbl 0x9864(%rip),%eax        # 10f161 <right_shift>
  1058fd:	84 c0                	test   %al,%al
  1058ff:	74 0a                	je     10590b <read_kb+0x75e>
  105901:	b8 3c 00 00 00       	mov    $0x3c,%eax
  105906:	e9 d9 00 00 00       	jmp    1059e4 <read_kb+0x837>
  10590b:	b8 2c 00 00 00       	mov    $0x2c,%eax
  105910:	e9 cf 00 00 00       	jmp    1059e4 <read_kb+0x837>
  105915:	0f b6 05 44 98 00 00 	movzbl 0x9844(%rip),%eax        # 10f160 <left_shift>
  10591c:	84 c0                	test   %al,%al
  10591e:	75 0b                	jne    10592b <read_kb+0x77e>
  105920:	0f b6 05 3a 98 00 00 	movzbl 0x983a(%rip),%eax        # 10f161 <right_shift>
  105927:	84 c0                	test   %al,%al
  105929:	74 0a                	je     105935 <read_kb+0x788>
  10592b:	b8 3e 00 00 00       	mov    $0x3e,%eax
  105930:	e9 af 00 00 00       	jmp    1059e4 <read_kb+0x837>
  105935:	b8 2e 00 00 00       	mov    $0x2e,%eax
  10593a:	e9 a5 00 00 00       	jmp    1059e4 <read_kb+0x837>
  10593f:	0f b6 05 1a 98 00 00 	movzbl 0x981a(%rip),%eax        # 10f160 <left_shift>
  105946:	84 c0                	test   %al,%al
  105948:	75 0b                	jne    105955 <read_kb+0x7a8>
  10594a:	0f b6 05 10 98 00 00 	movzbl 0x9810(%rip),%eax        # 10f161 <right_shift>
  105951:	84 c0                	test   %al,%al
  105953:	74 0a                	je     10595f <read_kb+0x7b2>
  105955:	b8 3f 00 00 00       	mov    $0x3f,%eax
  10595a:	e9 85 00 00 00       	jmp    1059e4 <read_kb+0x837>
  10595f:	b8 2f 00 00 00       	mov    $0x2f,%eax
  105964:	eb 7e                	jmp    1059e4 <read_kb+0x837>
  105966:	0f b6 05 f3 97 00 00 	movzbl 0x97f3(%rip),%eax        # 10f160 <left_shift>
  10596d:	84 c0                	test   %al,%al
  10596f:	75 0b                	jne    10597c <read_kb+0x7cf>
  105971:	0f b6 05 e9 97 00 00 	movzbl 0x97e9(%rip),%eax        # 10f161 <right_shift>
  105978:	84 c0                	test   %al,%al
  10597a:	74 07                	je     105983 <read_kb+0x7d6>
  10597c:	b8 7c 00 00 00       	mov    $0x7c,%eax
  105981:	eb 61                	jmp    1059e4 <read_kb+0x837>
  105983:	b8 5c 00 00 00       	mov    $0x5c,%eax
  105988:	eb 5a                	jmp    1059e4 <read_kb+0x837>
  10598a:	b8 08 00 00 00       	mov    $0x8,%eax
  10598f:	eb 53                	jmp    1059e4 <read_kb+0x837>
  105991:	b8 20 00 00 00       	mov    $0x20,%eax
  105996:	eb 4c                	jmp    1059e4 <read_kb+0x837>
  105998:	0f b6 05 c1 97 00 00 	movzbl 0x97c1(%rip),%eax        # 10f160 <left_shift>
  10599f:	84 c0                	test   %al,%al
  1059a1:	75 0b                	jne    1059ae <read_kb+0x801>
  1059a3:	0f b6 05 b7 97 00 00 	movzbl 0x97b7(%rip),%eax        # 10f161 <right_shift>
  1059aa:	84 c0                	test   %al,%al
  1059ac:	74 07                	je     1059b5 <read_kb+0x808>
  1059ae:	b8 0a 00 00 00       	mov    $0xa,%eax
  1059b3:	eb 2f                	jmp    1059e4 <read_kb+0x837>
  1059b5:	b8 0d 00 00 00       	mov    $0xd,%eax
  1059ba:	eb 28                	jmp    1059e4 <read_kb+0x837>
  1059bc:	c6 05 9d 97 00 00 01 	movb   $0x1,0x979d(%rip)        # 10f160 <left_shift>
  1059c3:	eb 1a                	jmp    1059df <read_kb+0x832>
  1059c5:	c6 05 94 97 00 00 00 	movb   $0x0,0x9794(%rip)        # 10f160 <left_shift>
  1059cc:	eb 11                	jmp    1059df <read_kb+0x832>
  1059ce:	c6 05 8c 97 00 00 01 	movb   $0x1,0x978c(%rip)        # 10f161 <right_shift>
  1059d5:	eb 08                	jmp    1059df <read_kb+0x832>
  1059d7:	c6 05 83 97 00 00 00 	movb   $0x0,0x9783(%rip)        # 10f161 <right_shift>
  1059de:	90                   	nop
  1059df:	b8 00 00 00 00       	mov    $0x0,%eax
  1059e4:	c9                   	leave
  1059e5:	c3                   	ret

00000000001059e6 <create_new_table>:
  1059e6:	55                   	push   %rbp
  1059e7:	48 89 e5             	mov    %rsp,%rbp
  1059ea:	48 83 ec 20          	sub    $0x20,%rsp
  1059ee:	48 89 7d e8          	mov    %rdi,-0x18(%rbp)
  1059f2:	48 8b 45 e8          	mov    -0x18(%rbp),%rax
  1059f6:	48 89 45 f8          	mov    %rax,-0x8(%rbp)
  1059fa:	e8 b7 f2 ff ff       	call   104cb6 <MMU_pf_alloc>
  1059ff:	48 89 45 f0          	mov    %rax,-0x10(%rbp)
  105a03:	48 8b 45 f0          	mov    -0x10(%rbp),%rax
  105a07:	48 c1 e8 0c          	shr    $0xc,%rax
  105a0b:	48 89 c2             	mov    %rax,%rdx
  105a0e:	48 b8 ff ff ff ff ff 	movabs $0xffffffffff,%rax
  105a15:	00 00 00 
  105a18:	48 89 d1             	mov    %rdx,%rcx
  105a1b:	48 21 c1             	and    %rax,%rcx
  105a1e:	48 8b 45 f8          	mov    -0x8(%rbp),%rax
  105a22:	48 ba ff ff ff ff ff 	movabs $0xffffffffff,%rdx
  105a29:	00 00 00 
  105a2c:	48 21 ca             	and    %rcx,%rdx
  105a2f:	48 c1 e2 0c          	shl    $0xc,%rdx
  105a33:	48 8b 08             	mov    (%rax),%rcx
  105a36:	48 be ff 0f 00 00 00 	movabs $0xfff0000000000fff,%rsi
  105a3d:	00 f0 ff 
  105a40:	48 21 f1             	and    %rsi,%rcx
  105a43:	48 09 ca             	or     %rcx,%rdx
  105a46:	48 89 10             	mov    %rdx,(%rax)
  105a49:	48 8b 45 f8          	mov    -0x8(%rbp),%rax
  105a4d:	0f b6 10             	movzbl (%rax),%edx
  105a50:	83 ca 01             	or     $0x1,%edx
  105a53:	88 10                	mov    %dl,(%rax)
  105a55:	48 8b 45 f8          	mov    -0x8(%rbp),%rax
  105a59:	0f b6 50 01          	movzbl 0x1(%rax),%edx
  105a5d:	83 e2 f1             	and    $0xfffffff1,%edx
  105a60:	88 50 01             	mov    %dl,0x1(%rax)
  105a63:	48 8b 45 f8          	mov    -0x8(%rbp),%rax
  105a67:	0f b6 10             	movzbl (%rax),%edx
  105a6a:	83 ca 02             	or     $0x2,%edx
  105a6d:	88 10                	mov    %dl,(%rax)
  105a6f:	48 8b 45 f0          	mov    -0x10(%rbp),%rax
  105a73:	ba 00 10 00 00       	mov    $0x1000,%edx
  105a78:	be 00 00 00 00       	mov    $0x0,%esi
  105a7d:	48 89 c7             	mov    %rax,%rdi
  105a80:	e8 9d 18 00 00       	call   107322 <memset>
  105a85:	48 8b 45 f0          	mov    -0x10(%rbp),%rax
  105a89:	c9                   	leave
  105a8a:	c3                   	ret

0000000000105a8b <virtual_to_physical>:
  105a8b:	55                   	push   %rbp
  105a8c:	48 89 e5             	mov    %rsp,%rbp
  105a8f:	48 89 7d b8          	mov    %rdi,-0x48(%rbp)
  105a93:	48 89 75 b0          	mov    %rsi,-0x50(%rbp)
  105a97:	48 8b 45 b8          	mov    -0x48(%rbp),%rax
  105a9b:	48 c1 e8 27          	shr    $0x27,%rax
  105a9f:	25 ff 01 00 00       	and    $0x1ff,%eax
  105aa4:	48 89 45 f8          	mov    %rax,-0x8(%rbp)
  105aa8:	48 8b 45 f8          	mov    -0x8(%rbp),%rax
  105aac:	48 8d 14 c5 00 00 00 	lea    0x0(,%rax,8),%rdx
  105ab3:	00 
  105ab4:	48 8b 45 b0          	mov    -0x50(%rbp),%rax
  105ab8:	48 01 d0             	add    %rdx,%rax
  105abb:	48 89 45 f0          	mov    %rax,-0x10(%rbp)
  105abf:	48 8b 45 f0          	mov    -0x10(%rbp),%rax
  105ac3:	0f b6 00             	movzbl (%rax),%eax
  105ac6:	83 e0 01             	and    $0x1,%eax
  105ac9:	84 c0                	test   %al,%al
  105acb:	75 0a                	jne    105ad7 <virtual_to_physical+0x4c>
  105acd:	b8 00 00 00 00       	mov    $0x0,%eax
  105ad2:	e9 7c 01 00 00       	jmp    105c53 <virtual_to_physical+0x1c8>
  105ad7:	48 8b 45 b8          	mov    -0x48(%rbp),%rax
  105adb:	48 c1 e8 1e          	shr    $0x1e,%rax
  105adf:	25 ff 01 00 00       	and    $0x1ff,%eax
  105ae4:	48 89 45 e8          	mov    %rax,-0x18(%rbp)
  105ae8:	48 8b 45 f0          	mov    -0x10(%rbp),%rax
  105aec:	48 8b 00             	mov    (%rax),%rax
  105aef:	48 c1 e8 0c          	shr    $0xc,%rax
  105af3:	48 ba ff ff ff ff ff 	movabs $0xffffffffff,%rdx
  105afa:	00 00 00 
  105afd:	48 21 d0             	and    %rdx,%rax
  105b00:	48 c1 e0 0c          	shl    $0xc,%rax
  105b04:	48 ba ff ff ff ff ff 	movabs $0xffffffffff,%rdx
  105b0b:	00 00 00 
  105b0e:	48 21 d0             	and    %rdx,%rax
  105b11:	48 89 c2             	mov    %rax,%rdx
  105b14:	48 b8 00 f0 ff ff ff 	movabs $0xffffffffff000,%rax
  105b1b:	ff 0f 00 
  105b1e:	48 21 d0             	and    %rdx,%rax
  105b21:	48 89 45 e0          	mov    %rax,-0x20(%rbp)
  105b25:	48 8b 45 e8          	mov    -0x18(%rbp),%rax
  105b29:	48 c1 e0 03          	shl    $0x3,%rax
  105b2d:	48 01 45 e0          	add    %rax,-0x20(%rbp)
  105b31:	48 8b 45 e0          	mov    -0x20(%rbp),%rax
  105b35:	0f b6 00             	movzbl (%rax),%eax
  105b38:	83 e0 01             	and    $0x1,%eax
  105b3b:	84 c0                	test   %al,%al
  105b3d:	75 0a                	jne    105b49 <virtual_to_physical+0xbe>
  105b3f:	b8 00 00 00 00       	mov    $0x0,%eax
  105b44:	e9 0a 01 00 00       	jmp    105c53 <virtual_to_physical+0x1c8>
  105b49:	48 8b 45 b8          	mov    -0x48(%rbp),%rax
  105b4d:	48 c1 e8 15          	shr    $0x15,%rax
  105b51:	25 ff 01 00 00       	and    $0x1ff,%eax
  105b56:	48 89 45 d8          	mov    %rax,-0x28(%rbp)
  105b5a:	48 8b 45 e0          	mov    -0x20(%rbp),%rax
  105b5e:	48 8b 00             	mov    (%rax),%rax
  105b61:	48 c1 e8 0c          	shr    $0xc,%rax
  105b65:	48 ba ff ff ff ff ff 	movabs $0xffffffffff,%rdx
  105b6c:	00 00 00 
  105b6f:	48 21 d0             	and    %rdx,%rax
  105b72:	48 c1 e0 0c          	shl    $0xc,%rax
  105b76:	48 ba ff ff ff ff ff 	movabs $0xffffffffff,%rdx
  105b7d:	00 00 00 
  105b80:	48 21 d0             	and    %rdx,%rax
  105b83:	48 89 c2             	mov    %rax,%rdx
  105b86:	48 b8 00 f0 ff ff ff 	movabs $0xffffffffff000,%rax
  105b8d:	ff 0f 00 
  105b90:	48 21 d0             	and    %rdx,%rax
  105b93:	48 89 45 d0          	mov    %rax,-0x30(%rbp)
  105b97:	48 8b 45 d8          	mov    -0x28(%rbp),%rax
  105b9b:	48 c1 e0 03          	shl    $0x3,%rax
  105b9f:	48 01 45 d0          	add    %rax,-0x30(%rbp)
  105ba3:	48 8b 45 d0          	mov    -0x30(%rbp),%rax
  105ba7:	0f b6 00             	movzbl (%rax),%eax
  105baa:	83 e0 01             	and    $0x1,%eax
  105bad:	84 c0                	test   %al,%al
  105baf:	75 0a                	jne    105bbb <virtual_to_physical+0x130>
  105bb1:	b8 00 00 00 00       	mov    $0x0,%eax
  105bb6:	e9 98 00 00 00       	jmp    105c53 <virtual_to_physical+0x1c8>
  105bbb:	48 8b 45 b8          	mov    -0x48(%rbp),%rax
  105bbf:	48 c1 e8 0c          	shr    $0xc,%rax
  105bc3:	25 ff 01 00 00       	and    $0x1ff,%eax
  105bc8:	48 89 45 c8          	mov    %rax,-0x38(%rbp)
  105bcc:	48 8b 45 d0          	mov    -0x30(%rbp),%rax
  105bd0:	48 8b 00             	mov    (%rax),%rax
  105bd3:	48 c1 e8 0c          	shr    $0xc,%rax
  105bd7:	48 ba ff ff ff ff ff 	movabs $0xffffffffff,%rdx
  105bde:	00 00 00 
  105be1:	48 21 d0             	and    %rdx,%rax
  105be4:	48 c1 e0 0c          	shl    $0xc,%rax
  105be8:	48 ba ff ff ff ff ff 	movabs $0xffffffffff,%rdx
  105bef:	00 00 00 
  105bf2:	48 21 d0             	and    %rdx,%rax
  105bf5:	48 89 c2             	mov    %rax,%rdx
  105bf8:	48 b8 00 f0 ff ff ff 	movabs $0xffffffffff000,%rax
  105bff:	ff 0f 00 
  105c02:	48 21 d0             	and    %rdx,%rax
  105c05:	48 89 45 c0          	mov    %rax,-0x40(%rbp)
  105c09:	48 8b 45 c8          	mov    -0x38(%rbp),%rax
  105c0d:	48 c1 e0 03          	shl    $0x3,%rax
  105c11:	48 01 45 c0          	add    %rax,-0x40(%rbp)
  105c15:	48 8b 45 c0          	mov    -0x40(%rbp),%rax
  105c19:	0f b6 00             	movzbl (%rax),%eax
  105c1c:	83 e0 01             	and    $0x1,%eax
  105c1f:	84 c0                	test   %al,%al
  105c21:	75 07                	jne    105c2a <virtual_to_physical+0x19f>
  105c23:	b8 00 00 00 00       	mov    $0x0,%eax
  105c28:	eb 29                	jmp    105c53 <virtual_to_physical+0x1c8>
  105c2a:	48 8b 45 c0          	mov    -0x40(%rbp),%rax
  105c2e:	48 8b 00             	mov    (%rax),%rax
  105c31:	48 c1 e8 0c          	shr    $0xc,%rax
  105c35:	48 ba ff ff ff ff ff 	movabs $0xffffffffff,%rdx
  105c3c:	00 00 00 
  105c3f:	48 21 d0             	and    %rdx,%rax
  105c42:	48 c1 e0 0c          	shl    $0xc,%rax
  105c46:	48 ba ff ff ff ff ff 	movabs $0xffffffffff,%rdx
  105c4d:	00 00 00 
  105c50:	48 21 d0             	and    %rdx,%rax
  105c53:	5d                   	pop    %rbp
  105c54:	c3                   	ret

0000000000105c55 <put_vaddr>:
  105c55:	55                   	push   %rbp
  105c56:	48 89 e5             	mov    %rsp,%rbp
  105c59:	48 83 ec 50          	sub    $0x50,%rsp
  105c5d:	48 89 7d b8          	mov    %rdi,-0x48(%rbp)
  105c61:	48 89 75 b0          	mov    %rsi,-0x50(%rbp)
  105c65:	48 8b 45 b8          	mov    -0x48(%rbp),%rax
  105c69:	48 c1 e8 27          	shr    $0x27,%rax
  105c6d:	25 ff 01 00 00       	and    $0x1ff,%eax
  105c72:	48 89 45 f8          	mov    %rax,-0x8(%rbp)
  105c76:	48 8b 45 f8          	mov    -0x8(%rbp),%rax
  105c7a:	48 8d 14 c5 00 00 00 	lea    0x0(,%rax,8),%rdx
  105c81:	00 
  105c82:	48 8b 45 b0          	mov    -0x50(%rbp),%rax
  105c86:	48 01 d0             	add    %rdx,%rax
  105c89:	48 89 45 f0          	mov    %rax,-0x10(%rbp)
  105c8d:	48 8b 45 f0          	mov    -0x10(%rbp),%rax
  105c91:	0f b6 00             	movzbl (%rax),%eax
  105c94:	83 e0 01             	and    $0x1,%eax
  105c97:	84 c0                	test   %al,%al
  105c99:	75 0c                	jne    105ca7 <put_vaddr+0x52>
  105c9b:	48 8b 45 f0          	mov    -0x10(%rbp),%rax
  105c9f:	48 89 c7             	mov    %rax,%rdi
  105ca2:	e8 3f fd ff ff       	call   1059e6 <create_new_table>
  105ca7:	48 8b 45 b8          	mov    -0x48(%rbp),%rax
  105cab:	48 c1 e8 1e          	shr    $0x1e,%rax
  105caf:	25 ff 01 00 00       	and    $0x1ff,%eax
  105cb4:	48 89 45 e8          	mov    %rax,-0x18(%rbp)
  105cb8:	48 8b 45 f0          	mov    -0x10(%rbp),%rax
  105cbc:	48 8b 00             	mov    (%rax),%rax
  105cbf:	48 c1 e8 0c          	shr    $0xc,%rax
  105cc3:	48 ba ff ff ff ff ff 	movabs $0xffffffffff,%rdx
  105cca:	00 00 00 
  105ccd:	48 21 d0             	and    %rdx,%rax
  105cd0:	48 c1 e0 0c          	shl    $0xc,%rax
  105cd4:	48 ba ff ff ff ff ff 	movabs $0xffffffffff,%rdx
  105cdb:	00 00 00 
  105cde:	48 21 d0             	and    %rdx,%rax
  105ce1:	48 89 c2             	mov    %rax,%rdx
  105ce4:	48 b8 00 f0 ff ff ff 	movabs $0xffffffffff000,%rax
  105ceb:	ff 0f 00 
  105cee:	48 21 d0             	and    %rdx,%rax
  105cf1:	48 89 45 e0          	mov    %rax,-0x20(%rbp)
  105cf5:	48 8b 45 e8          	mov    -0x18(%rbp),%rax
  105cf9:	48 c1 e0 03          	shl    $0x3,%rax
  105cfd:	48 01 45 e0          	add    %rax,-0x20(%rbp)
  105d01:	48 8b 45 e0          	mov    -0x20(%rbp),%rax
  105d05:	0f b6 00             	movzbl (%rax),%eax
  105d08:	83 e0 01             	and    $0x1,%eax
  105d0b:	84 c0                	test   %al,%al
  105d0d:	75 0c                	jne    105d1b <put_vaddr+0xc6>
  105d0f:	48 8b 45 e0          	mov    -0x20(%rbp),%rax
  105d13:	48 89 c7             	mov    %rax,%rdi
  105d16:	e8 cb fc ff ff       	call   1059e6 <create_new_table>
  105d1b:	48 8b 45 b8          	mov    -0x48(%rbp),%rax
  105d1f:	48 c1 e8 15          	shr    $0x15,%rax
  105d23:	25 ff 01 00 00       	and    $0x1ff,%eax
  105d28:	48 89 45 d8          	mov    %rax,-0x28(%rbp)
  105d2c:	48 8b 45 e0          	mov    -0x20(%rbp),%rax
  105d30:	48 8b 00             	mov    (%rax),%rax
  105d33:	48 c1 e8 0c          	shr    $0xc,%rax
  105d37:	48 ba ff ff ff ff ff 	movabs $0xffffffffff,%rdx
  105d3e:	00 00 00 
  105d41:	48 21 d0             	and    %rdx,%rax
  105d44:	48 c1 e0 0c          	shl    $0xc,%rax
  105d48:	48 ba ff ff ff ff ff 	movabs $0xffffffffff,%rdx
  105d4f:	00 00 00 
  105d52:	48 21 d0             	and    %rdx,%rax
  105d55:	48 89 c2             	mov    %rax,%rdx
  105d58:	48 b8 00 f0 ff ff ff 	movabs $0xffffffffff000,%rax
  105d5f:	ff 0f 00 
  105d62:	48 21 d0             	and    %rdx,%rax
  105d65:	48 89 45 d0          	mov    %rax,-0x30(%rbp)
  105d69:	48 8b 45 d8          	mov    -0x28(%rbp),%rax
  105d6d:	48 c1 e0 03          	shl    $0x3,%rax
  105d71:	48 01 45 d0          	add    %rax,-0x30(%rbp)
  105d75:	48 8b 45 d0          	mov    -0x30(%rbp),%rax
  105d79:	0f b6 00             	movzbl (%rax),%eax
  105d7c:	83 e0 01             	and    $0x1,%eax
  105d7f:	84 c0                	test   %al,%al
  105d81:	75 0c                	jne    105d8f <put_vaddr+0x13a>
  105d83:	48 8b 45 d0          	mov    -0x30(%rbp),%rax
  105d87:	48 89 c7             	mov    %rax,%rdi
  105d8a:	e8 57 fc ff ff       	call   1059e6 <create_new_table>
  105d8f:	48 8b 45 b8          	mov    -0x48(%rbp),%rax
  105d93:	48 c1 e8 0c          	shr    $0xc,%rax
  105d97:	25 ff 01 00 00       	and    $0x1ff,%eax
  105d9c:	48 89 45 c8          	mov    %rax,-0x38(%rbp)
  105da0:	48 8b 45 d0          	mov    -0x30(%rbp),%rax
  105da4:	48 8b 00             	mov    (%rax),%rax
  105da7:	48 c1 e8 0c          	shr    $0xc,%rax
  105dab:	48 ba ff ff ff ff ff 	movabs $0xffffffffff,%rdx
  105db2:	00 00 00 
  105db5:	48 21 d0             	and    %rdx,%rax
  105db8:	48 c1 e0 0c          	shl    $0xc,%rax
  105dbc:	48 ba ff ff ff ff ff 	movabs $0xffffffffff,%rdx
  105dc3:	00 00 00 
  105dc6:	48 21 d0             	and    %rdx,%rax
  105dc9:	48 89 c2             	mov    %rax,%rdx
  105dcc:	48 b8 00 f0 ff ff ff 	movabs $0xffffffffff000,%rax
  105dd3:	ff 0f 00 
  105dd6:	48 21 d0             	and    %rdx,%rax
  105dd9:	48 89 45 c0          	mov    %rax,-0x40(%rbp)
  105ddd:	48 8b 45 c8          	mov    -0x38(%rbp),%rax
  105de1:	48 c1 e0 03          	shl    $0x3,%rax
  105de5:	48 01 45 c0          	add    %rax,-0x40(%rbp)
  105de9:	48 8b 45 c0          	mov    -0x40(%rbp),%rax
  105ded:	0f b6 10             	movzbl (%rax),%edx
  105df0:	83 ca 01             	or     $0x1,%edx
  105df3:	88 10                	mov    %dl,(%rax)
  105df5:	48 8b 45 c0          	mov    -0x40(%rbp),%rax
  105df9:	0f b6 50 01          	movzbl 0x1(%rax),%edx
  105dfd:	83 e2 f1             	and    $0xfffffff1,%edx
  105e00:	83 ca 02             	or     $0x2,%edx
  105e03:	88 50 01             	mov    %dl,0x1(%rax)
  105e06:	48 8b 45 c0          	mov    -0x40(%rbp),%rax
  105e0a:	0f b6 10             	movzbl (%rax),%edx
  105e0d:	83 ca 02             	or     $0x2,%edx
  105e10:	88 10                	mov    %dl,(%rax)
  105e12:	48 8b 45 b8          	mov    -0x48(%rbp),%rax
  105e16:	48 c1 e8 0c          	shr    $0xc,%rax
  105e1a:	48 89 c2             	mov    %rax,%rdx
  105e1d:	48 b8 ff ff ff ff ff 	movabs $0xffffffffff,%rax
  105e24:	00 00 00 
  105e27:	48 89 d1             	mov    %rdx,%rcx
  105e2a:	48 21 c1             	and    %rax,%rcx
  105e2d:	48 8b 45 c0          	mov    -0x40(%rbp),%rax
  105e31:	48 ba ff ff ff ff ff 	movabs $0xffffffffff,%rdx
  105e38:	00 00 00 
  105e3b:	48 21 ca             	and    %rcx,%rdx
  105e3e:	48 c1 e2 0c          	shl    $0xc,%rdx
  105e42:	48 8b 08             	mov    (%rax),%rcx
  105e45:	48 be ff 0f 00 00 00 	movabs $0xfff0000000000fff,%rsi
  105e4c:	00 f0 ff 
  105e4f:	48 21 f1             	and    %rsi,%rcx
  105e52:	48 09 ca             	or     %rcx,%rdx
  105e55:	48 89 10             	mov    %rdx,(%rax)
  105e58:	90                   	nop
  105e59:	c9                   	leave
  105e5a:	c3                   	ret

0000000000105e5b <validate_id_map>:
  105e5b:	55                   	push   %rbp
  105e5c:	48 89 e5             	mov    %rsp,%rbp
  105e5f:	48 83 ec 20          	sub    $0x20,%rsp
  105e63:	48 89 7d e8          	mov    %rdi,-0x18(%rbp)
  105e67:	48 c7 45 f8 00 10 00 	movq   $0x1000,-0x8(%rbp)
  105e6e:	00 
  105e6f:	48 c7 45 f0 00 00 e0 	movq   $0x7e00000,-0x10(%rbp)
  105e76:	07 
  105e77:	eb 37                	jmp    105eb0 <validate_id_map+0x55>
  105e79:	48 8b 55 e8          	mov    -0x18(%rbp),%rdx
  105e7d:	48 8b 45 f8          	mov    -0x8(%rbp),%rax
  105e81:	48 89 d6             	mov    %rdx,%rsi
  105e84:	48 89 c7             	mov    %rax,%rdi
  105e87:	e8 ff fb ff ff       	call   105a8b <virtual_to_physical>
  105e8c:	48 39 45 f8          	cmp    %rax,-0x8(%rbp)
  105e90:	74 16                	je     105ea8 <validate_id_map+0x4d>
  105e92:	48 8b 45 f8          	mov    -0x8(%rbp),%rax
  105e96:	48 89 c6             	mov    %rax,%rsi
  105e99:	bf 00 0b 10 00       	mov    $0x100b00,%edi
  105e9e:	b8 00 00 00 00       	mov    $0x0,%eax
  105ea3:	e8 0c 0c 00 00       	call   106ab4 <printk>
  105ea8:	48 81 45 f8 00 10 00 	addq   $0x1000,-0x8(%rbp)
  105eaf:	00 
  105eb0:	48 8b 45 f8          	mov    -0x8(%rbp),%rax
  105eb4:	48 39 45 f0          	cmp    %rax,-0x10(%rbp)
  105eb8:	73 bf                	jae    105e79 <validate_id_map+0x1e>
  105eba:	90                   	nop
  105ebb:	90                   	nop
  105ebc:	c9                   	leave
  105ebd:	c3                   	ret

0000000000105ebe <page_fault_handler>:
  105ebe:	55                   	push   %rbp
  105ebf:	48 89 e5             	mov    %rsp,%rbp
  105ec2:	48 83 ec 70          	sub    $0x70,%rsp
  105ec6:	89 7d ac             	mov    %edi,-0x54(%rbp)
  105ec9:	48 89 75 a0          	mov    %rsi,-0x60(%rbp)
  105ecd:	48 89 55 98          	mov    %rdx,-0x68(%rbp)
  105ed1:	48 8b 05 90 92 00 00 	mov    0x9290(%rip),%rax        # 10f168 <ktable>
  105ed8:	48 89 45 f8          	mov    %rax,-0x8(%rbp)
  105edc:	48 8b 45 a0          	mov    -0x60(%rbp),%rax
  105ee0:	48 c1 e8 27          	shr    $0x27,%rax
  105ee4:	25 ff 01 00 00       	and    $0x1ff,%eax
  105ee9:	48 89 45 f0          	mov    %rax,-0x10(%rbp)
  105eed:	48 8b 45 f0          	mov    -0x10(%rbp),%rax
  105ef1:	48 8d 14 c5 00 00 00 	lea    0x0(,%rax,8),%rdx
  105ef8:	00 
  105ef9:	48 8b 45 f8          	mov    -0x8(%rbp),%rax
  105efd:	48 01 d0             	add    %rdx,%rax
  105f00:	48 89 45 e8          	mov    %rax,-0x18(%rbp)
  105f04:	48 8b 45 e8          	mov    -0x18(%rbp),%rax
  105f08:	0f b6 00             	movzbl (%rax),%eax
  105f0b:	83 e0 01             	and    $0x1,%eax
  105f0e:	84 c0                	test   %al,%al
  105f10:	75 0c                	jne    105f1e <page_fault_handler+0x60>
  105f12:	48 8b 45 e8          	mov    -0x18(%rbp),%rax
  105f16:	48 89 c7             	mov    %rax,%rdi
  105f19:	e8 c8 fa ff ff       	call   1059e6 <create_new_table>
  105f1e:	48 8b 45 a0          	mov    -0x60(%rbp),%rax
  105f22:	48 c1 e8 1e          	shr    $0x1e,%rax
  105f26:	25 ff 01 00 00       	and    $0x1ff,%eax
  105f2b:	48 89 45 e0          	mov    %rax,-0x20(%rbp)
  105f2f:	48 8b 45 e8          	mov    -0x18(%rbp),%rax
  105f33:	48 8b 00             	mov    (%rax),%rax
  105f36:	48 c1 e8 0c          	shr    $0xc,%rax
  105f3a:	48 ba ff ff ff ff ff 	movabs $0xffffffffff,%rdx
  105f41:	00 00 00 
  105f44:	48 21 d0             	and    %rdx,%rax
  105f47:	48 c1 e0 0c          	shl    $0xc,%rax
  105f4b:	48 ba ff ff ff ff ff 	movabs $0xffffffffff,%rdx
  105f52:	00 00 00 
  105f55:	48 21 d0             	and    %rdx,%rax
  105f58:	48 89 c2             	mov    %rax,%rdx
  105f5b:	48 b8 00 f0 ff ff ff 	movabs $0xffffffffff000,%rax
  105f62:	ff 0f 00 
  105f65:	48 21 d0             	and    %rdx,%rax
  105f68:	48 89 45 d8          	mov    %rax,-0x28(%rbp)
  105f6c:	48 8b 45 e0          	mov    -0x20(%rbp),%rax
  105f70:	48 c1 e0 03          	shl    $0x3,%rax
  105f74:	48 01 45 d8          	add    %rax,-0x28(%rbp)
  105f78:	48 8b 45 d8          	mov    -0x28(%rbp),%rax
  105f7c:	0f b6 00             	movzbl (%rax),%eax
  105f7f:	83 e0 01             	and    $0x1,%eax
  105f82:	84 c0                	test   %al,%al
  105f84:	75 0c                	jne    105f92 <page_fault_handler+0xd4>
  105f86:	48 8b 45 d8          	mov    -0x28(%rbp),%rax
  105f8a:	48 89 c7             	mov    %rax,%rdi
  105f8d:	e8 54 fa ff ff       	call   1059e6 <create_new_table>
  105f92:	48 8b 45 a0          	mov    -0x60(%rbp),%rax
  105f96:	48 c1 e8 15          	shr    $0x15,%rax
  105f9a:	25 ff 01 00 00       	and    $0x1ff,%eax
  105f9f:	48 89 45 d0          	mov    %rax,-0x30(%rbp)
  105fa3:	48 8b 45 d8          	mov    -0x28(%rbp),%rax
  105fa7:	48 8b 00             	mov    (%rax),%rax
  105faa:	48 c1 e8 0c          	shr    $0xc,%rax
  105fae:	48 ba ff ff ff ff ff 	movabs $0xffffffffff,%rdx
  105fb5:	00 00 00 
  105fb8:	48 21 d0             	and    %rdx,%rax
  105fbb:	48 c1 e0 0c          	shl    $0xc,%rax
  105fbf:	48 ba ff ff ff ff ff 	movabs $0xffffffffff,%rdx
  105fc6:	00 00 00 
  105fc9:	48 21 d0             	and    %rdx,%rax
  105fcc:	48 89 c2             	mov    %rax,%rdx
  105fcf:	48 b8 00 f0 ff ff ff 	movabs $0xffffffffff000,%rax
  105fd6:	ff 0f 00 
  105fd9:	48 21 d0             	and    %rdx,%rax
  105fdc:	48 89 45 c8          	mov    %rax,-0x38(%rbp)
  105fe0:	48 8b 45 d0          	mov    -0x30(%rbp),%rax
  105fe4:	48 c1 e0 03          	shl    $0x3,%rax
  105fe8:	48 01 45 c8          	add    %rax,-0x38(%rbp)
  105fec:	48 8b 45 c8          	mov    -0x38(%rbp),%rax
  105ff0:	0f b6 00             	movzbl (%rax),%eax
  105ff3:	83 e0 01             	and    $0x1,%eax
  105ff6:	84 c0                	test   %al,%al
  105ff8:	75 0c                	jne    106006 <page_fault_handler+0x148>
  105ffa:	48 8b 45 c8          	mov    -0x38(%rbp),%rax
  105ffe:	48 89 c7             	mov    %rax,%rdi
  106001:	e8 e0 f9 ff ff       	call   1059e6 <create_new_table>
  106006:	48 8b 45 a0          	mov    -0x60(%rbp),%rax
  10600a:	48 c1 e8 0c          	shr    $0xc,%rax
  10600e:	25 ff 01 00 00       	and    $0x1ff,%eax
  106013:	48 89 45 c0          	mov    %rax,-0x40(%rbp)
  106017:	48 8b 45 c8          	mov    -0x38(%rbp),%rax
  10601b:	48 8b 00             	mov    (%rax),%rax
  10601e:	48 c1 e8 0c          	shr    $0xc,%rax
  106022:	48 ba ff ff ff ff ff 	movabs $0xffffffffff,%rdx
  106029:	00 00 00 
  10602c:	48 21 d0             	and    %rdx,%rax
  10602f:	48 c1 e0 0c          	shl    $0xc,%rax
  106033:	48 ba ff ff ff ff ff 	movabs $0xffffffffff,%rdx
  10603a:	00 00 00 
  10603d:	48 21 d0             	and    %rdx,%rax
  106040:	48 89 c2             	mov    %rax,%rdx
  106043:	48 b8 00 f0 ff ff ff 	movabs $0xffffffffff000,%rax
  10604a:	ff 0f 00 
  10604d:	48 21 d0             	and    %rdx,%rax
  106050:	48 89 45 b8          	mov    %rax,-0x48(%rbp)
  106054:	48 8b 45 c0          	mov    -0x40(%rbp),%rax
  106058:	48 c1 e0 03          	shl    $0x3,%rax
  10605c:	48 01 45 b8          	add    %rax,-0x48(%rbp)
  106060:	48 8b 45 b8          	mov    -0x48(%rbp),%rax
  106064:	0f b6 40 01          	movzbl 0x1(%rax),%eax
  106068:	83 e0 0e             	and    $0xe,%eax
  10606b:	3c 06                	cmp    $0x6,%al
  10606d:	75 0e                	jne    10607d <page_fault_handler+0x1bf>
  10606f:	48 8b 45 b8          	mov    -0x48(%rbp),%rax
  106073:	48 89 c7             	mov    %rax,%rdi
  106076:	e8 6b f9 ff ff       	call   1059e6 <create_new_table>
  10607b:	eb 17                	jmp    106094 <page_fault_handler+0x1d6>
  10607d:	48 8b 45 a0          	mov    -0x60(%rbp),%rax
  106081:	48 89 c6             	mov    %rax,%rsi
  106084:	bf 30 0b 10 00       	mov    $0x100b30,%edi
  106089:	b8 00 00 00 00       	mov    $0x0,%eax
  10608e:	e8 21 0a 00 00       	call   106ab4 <printk>
  106093:	f4                   	hlt
  106094:	90                   	nop
  106095:	c9                   	leave
  106096:	c3                   	ret

0000000000106097 <pt_init>:
  106097:	55                   	push   %rbp
  106098:	48 89 e5             	mov    %rsp,%rbp
  10609b:	48 83 ec 30          	sub    $0x30,%rsp
  10609f:	48 89 7d d8          	mov    %rdi,-0x28(%rbp)
  1060a3:	e8 0e ec ff ff       	call   104cb6 <MMU_pf_alloc>
  1060a8:	48 89 45 f0          	mov    %rax,-0x10(%rbp)
  1060ac:	48 8b 45 f0          	mov    -0x10(%rbp),%rax
  1060b0:	ba 00 10 00 00       	mov    $0x1000,%edx
  1060b5:	be 00 00 00 00       	mov    $0x0,%esi
  1060ba:	48 89 c7             	mov    %rax,%rdi
  1060bd:	e8 60 12 00 00       	call   107322 <memset>
  1060c2:	48 8b 45 f0          	mov    -0x10(%rbp),%rax
  1060c6:	48 89 05 9b 90 00 00 	mov    %rax,0x909b(%rip)        # 10f168 <ktable>
  1060cd:	48 8b 45 f0          	mov    -0x10(%rbp),%rax
  1060d1:	48 89 c6             	mov    %rax,%rsi
  1060d4:	bf 00 00 00 00       	mov    $0x0,%edi
  1060d9:	e8 77 fb ff ff       	call   105c55 <put_vaddr>
  1060de:	48 8b 45 d8          	mov    -0x28(%rbp),%rax
  1060e2:	48 8b 00             	mov    (%rax),%rax
  1060e5:	48 89 45 f8          	mov    %rax,-0x8(%rbp)
  1060e9:	eb 0c                	jmp    1060f7 <pt_init+0x60>
  1060eb:	48 8b 45 d8          	mov    -0x28(%rbp),%rax
  1060ef:	48 8b 40 10          	mov    0x10(%rax),%rax
  1060f3:	48 89 45 d8          	mov    %rax,-0x28(%rbp)
  1060f7:	48 8b 45 d8          	mov    -0x28(%rbp),%rax
  1060fb:	48 8b 40 10          	mov    0x10(%rax),%rax
  1060ff:	48 85 c0             	test   %rax,%rax
  106102:	75 e7                	jne    1060eb <pt_init+0x54>
  106104:	48 8b 45 d8          	mov    -0x28(%rbp),%rax
  106108:	48 8b 40 08          	mov    0x8(%rax),%rax
  10610c:	48 89 45 e8          	mov    %rax,-0x18(%rbp)
  106110:	eb 1b                	jmp    10612d <pt_init+0x96>
  106112:	48 8b 55 f0          	mov    -0x10(%rbp),%rdx
  106116:	48 8b 45 f8          	mov    -0x8(%rbp),%rax
  10611a:	48 89 d6             	mov    %rdx,%rsi
  10611d:	48 89 c7             	mov    %rax,%rdi
  106120:	e8 30 fb ff ff       	call   105c55 <put_vaddr>
  106125:	48 81 45 f8 00 10 00 	addq   $0x1000,-0x8(%rbp)
  10612c:	00 
  10612d:	48 8b 45 f8          	mov    -0x8(%rbp),%rax
  106131:	48 39 45 e8          	cmp    %rax,-0x18(%rbp)
  106135:	73 db                	jae    106112 <pt_init+0x7b>
  106137:	48 8b 05 2a 90 00 00 	mov    0x902a(%rip),%rax        # 10f168 <ktable>
  10613e:	48 89 c7             	mov    %rax,%rdi
  106141:	e8 15 fd ff ff       	call   105e5b <validate_id_map>
  106146:	ba 00 00 00 00       	mov    $0x0,%edx
  10614b:	be be 5e 10 00       	mov    $0x105ebe,%esi
  106150:	bf 0e 00 00 00       	mov    $0xe,%edi
  106155:	e8 50 ce ff ff       	call   102faa <IRQ_set_handler>
  10615a:	90                   	nop
  10615b:	c9                   	leave
  10615c:	c3                   	ret

000000000010615d <enable_paging>:
  10615d:	55                   	push   %rbp
  10615e:	48 89 e5             	mov    %rsp,%rbp
  106161:	48 8b 05 00 90 00 00 	mov    0x9000(%rip),%rax        # 10f168 <ktable>
  106168:	0f 22 d8             	mov    %rax,%cr3
  10616b:	90                   	nop
  10616c:	5d                   	pop    %rbp
  10616d:	c3                   	ret

000000000010616e <MMU_alloc_page>:
  10616e:	55                   	push   %rbp
  10616f:	48 89 e5             	mov    %rsp,%rbp
  106172:	48 83 ec 50          	sub    $0x50,%rsp
  106176:	48 8b 05 eb 8f 00 00 	mov    0x8feb(%rip),%rax        # 10f168 <ktable>
  10617d:	48 89 45 f8          	mov    %rax,-0x8(%rbp)
  106181:	48 8b 05 08 16 00 00 	mov    0x1608(%rip),%rax        # 107790 <heap_vaddr>
  106188:	48 89 45 f0          	mov    %rax,-0x10(%rbp)
  10618c:	48 8b 45 f0          	mov    -0x10(%rbp),%rax
  106190:	48 c1 e8 27          	shr    $0x27,%rax
  106194:	25 ff 01 00 00       	and    $0x1ff,%eax
  106199:	48 89 45 e8          	mov    %rax,-0x18(%rbp)
  10619d:	48 8b 45 e8          	mov    -0x18(%rbp),%rax
  1061a1:	48 8d 14 c5 00 00 00 	lea    0x0(,%rax,8),%rdx
  1061a8:	00 
  1061a9:	48 8b 45 f8          	mov    -0x8(%rbp),%rax
  1061ad:	48 01 d0             	add    %rdx,%rax
  1061b0:	48 89 45 e0          	mov    %rax,-0x20(%rbp)
  1061b4:	48 8b 45 e0          	mov    -0x20(%rbp),%rax
  1061b8:	0f b6 00             	movzbl (%rax),%eax
  1061bb:	83 e0 01             	and    $0x1,%eax
  1061be:	84 c0                	test   %al,%al
  1061c0:	75 0c                	jne    1061ce <MMU_alloc_page+0x60>
  1061c2:	48 8b 45 e0          	mov    -0x20(%rbp),%rax
  1061c6:	48 89 c7             	mov    %rax,%rdi
  1061c9:	e8 18 f8 ff ff       	call   1059e6 <create_new_table>
  1061ce:	48 8b 45 f0          	mov    -0x10(%rbp),%rax
  1061d2:	48 c1 e8 1e          	shr    $0x1e,%rax
  1061d6:	25 ff 01 00 00       	and    $0x1ff,%eax
  1061db:	48 89 45 d8          	mov    %rax,-0x28(%rbp)
  1061df:	48 8b 45 e0          	mov    -0x20(%rbp),%rax
  1061e3:	48 8b 00             	mov    (%rax),%rax
  1061e6:	48 c1 e8 0c          	shr    $0xc,%rax
  1061ea:	48 ba ff ff ff ff ff 	movabs $0xffffffffff,%rdx
  1061f1:	00 00 00 
  1061f4:	48 21 d0             	and    %rdx,%rax
  1061f7:	48 c1 e0 0c          	shl    $0xc,%rax
  1061fb:	48 ba ff ff ff ff ff 	movabs $0xffffffffff,%rdx
  106202:	00 00 00 
  106205:	48 21 d0             	and    %rdx,%rax
  106208:	48 89 c2             	mov    %rax,%rdx
  10620b:	48 b8 00 f0 ff ff ff 	movabs $0xffffffffff000,%rax
  106212:	ff 0f 00 
  106215:	48 21 d0             	and    %rdx,%rax
  106218:	48 89 45 d0          	mov    %rax,-0x30(%rbp)
  10621c:	48 8b 45 d8          	mov    -0x28(%rbp),%rax
  106220:	48 c1 e0 03          	shl    $0x3,%rax
  106224:	48 01 45 d0          	add    %rax,-0x30(%rbp)
  106228:	48 8b 45 d0          	mov    -0x30(%rbp),%rax
  10622c:	0f b6 00             	movzbl (%rax),%eax
  10622f:	83 e0 01             	and    $0x1,%eax
  106232:	84 c0                	test   %al,%al
  106234:	75 0c                	jne    106242 <MMU_alloc_page+0xd4>
  106236:	48 8b 45 d0          	mov    -0x30(%rbp),%rax
  10623a:	48 89 c7             	mov    %rax,%rdi
  10623d:	e8 a4 f7 ff ff       	call   1059e6 <create_new_table>
  106242:	48 8b 45 f0          	mov    -0x10(%rbp),%rax
  106246:	48 c1 e8 15          	shr    $0x15,%rax
  10624a:	25 ff 01 00 00       	and    $0x1ff,%eax
  10624f:	48 89 45 c8          	mov    %rax,-0x38(%rbp)
  106253:	48 8b 45 d0          	mov    -0x30(%rbp),%rax
  106257:	48 8b 00             	mov    (%rax),%rax
  10625a:	48 c1 e8 0c          	shr    $0xc,%rax
  10625e:	48 ba ff ff ff ff ff 	movabs $0xffffffffff,%rdx
  106265:	00 00 00 
  106268:	48 21 d0             	and    %rdx,%rax
  10626b:	48 c1 e0 0c          	shl    $0xc,%rax
  10626f:	48 ba ff ff ff ff ff 	movabs $0xffffffffff,%rdx
  106276:	00 00 00 
  106279:	48 21 d0             	and    %rdx,%rax
  10627c:	48 89 c2             	mov    %rax,%rdx
  10627f:	48 b8 00 f0 ff ff ff 	movabs $0xffffffffff000,%rax
  106286:	ff 0f 00 
  106289:	48 21 d0             	and    %rdx,%rax
  10628c:	48 89 45 c0          	mov    %rax,-0x40(%rbp)
  106290:	48 8b 45 c8          	mov    -0x38(%rbp),%rax
  106294:	48 c1 e0 03          	shl    $0x3,%rax
  106298:	48 01 45 c0          	add    %rax,-0x40(%rbp)
  10629c:	48 8b 45 c0          	mov    -0x40(%rbp),%rax
  1062a0:	0f b6 00             	movzbl (%rax),%eax
  1062a3:	83 e0 01             	and    $0x1,%eax
  1062a6:	84 c0                	test   %al,%al
  1062a8:	75 0c                	jne    1062b6 <MMU_alloc_page+0x148>
  1062aa:	48 8b 45 c0          	mov    -0x40(%rbp),%rax
  1062ae:	48 89 c7             	mov    %rax,%rdi
  1062b1:	e8 30 f7 ff ff       	call   1059e6 <create_new_table>
  1062b6:	48 8b 45 f0          	mov    -0x10(%rbp),%rax
  1062ba:	48 c1 e8 0c          	shr    $0xc,%rax
  1062be:	25 ff 01 00 00       	and    $0x1ff,%eax
  1062c3:	48 89 45 b8          	mov    %rax,-0x48(%rbp)
  1062c7:	48 8b 45 c0          	mov    -0x40(%rbp),%rax
  1062cb:	48 8b 00             	mov    (%rax),%rax
  1062ce:	48 c1 e8 0c          	shr    $0xc,%rax
  1062d2:	48 ba ff ff ff ff ff 	movabs $0xffffffffff,%rdx
  1062d9:	00 00 00 
  1062dc:	48 21 d0             	and    %rdx,%rax
  1062df:	48 c1 e0 0c          	shl    $0xc,%rax
  1062e3:	48 ba ff ff ff ff ff 	movabs $0xffffffffff,%rdx
  1062ea:	00 00 00 
  1062ed:	48 21 d0             	and    %rdx,%rax
  1062f0:	48 89 c2             	mov    %rax,%rdx
  1062f3:	48 b8 00 f0 ff ff ff 	movabs $0xffffffffff000,%rax
  1062fa:	ff 0f 00 
  1062fd:	48 21 d0             	and    %rdx,%rax
  106300:	48 89 45 b0          	mov    %rax,-0x50(%rbp)
  106304:	48 8b 45 b8          	mov    -0x48(%rbp),%rax
  106308:	48 c1 e0 03          	shl    $0x3,%rax
  10630c:	48 01 45 b0          	add    %rax,-0x50(%rbp)
  106310:	48 8b 45 b0          	mov    -0x50(%rbp),%rax
  106314:	0f b6 50 01          	movzbl 0x1(%rax),%edx
  106318:	83 e2 f1             	and    $0xfffffff1,%edx
  10631b:	83 ca 06             	or     $0x6,%edx
  10631e:	88 50 01             	mov    %dl,0x1(%rax)
  106321:	48 8b 05 68 14 00 00 	mov    0x1468(%rip),%rax        # 107790 <heap_vaddr>
  106328:	48 05 00 10 00 00    	add    $0x1000,%rax
  10632e:	48 89 05 5b 14 00 00 	mov    %rax,0x145b(%rip)        # 107790 <heap_vaddr>
  106335:	48 8b 45 f0          	mov    -0x10(%rbp),%rax
  106339:	c9                   	leave
  10633a:	c3                   	ret

000000000010633b <MMU_alloc_pages>:
  10633b:	55                   	push   %rbp
  10633c:	48 89 e5             	mov    %rsp,%rbp
  10633f:	48 83 ec 20          	sub    $0x20,%rsp
  106343:	89 7d ec             	mov    %edi,-0x14(%rbp)
  106346:	b8 00 00 00 00       	mov    $0x0,%eax
  10634b:	e8 1e fe ff ff       	call   10616e <MMU_alloc_page>
  106350:	48 89 45 f0          	mov    %rax,-0x10(%rbp)
  106354:	c7 45 fc 01 00 00 00 	movl   $0x1,-0x4(%rbp)
  10635b:	eb 0e                	jmp    10636b <MMU_alloc_pages+0x30>
  10635d:	b8 00 00 00 00       	mov    $0x0,%eax
  106362:	e8 07 fe ff ff       	call   10616e <MMU_alloc_page>
  106367:	83 45 fc 01          	addl   $0x1,-0x4(%rbp)
  10636b:	8b 45 fc             	mov    -0x4(%rbp),%eax
  10636e:	3b 45 ec             	cmp    -0x14(%rbp),%eax
  106371:	7c ea                	jl     10635d <MMU_alloc_pages+0x22>
  106373:	48 8b 45 f0          	mov    -0x10(%rbp),%rax
  106377:	c9                   	leave
  106378:	c3                   	ret

0000000000106379 <MMU_free_page>:
  106379:	55                   	push   %rbp
  10637a:	48 89 e5             	mov    %rsp,%rbp
  10637d:	48 83 ec 70          	sub    $0x70,%rsp
  106381:	48 89 7d 98          	mov    %rdi,-0x68(%rbp)
  106385:	48 8b 45 98          	mov    -0x68(%rbp),%rax
  106389:	48 89 c6             	mov    %rax,%rsi
  10638c:	bf 6e 0b 10 00       	mov    $0x100b6e,%edi
  106391:	b8 00 00 00 00       	mov    $0x0,%eax
  106396:	e8 19 07 00 00       	call   106ab4 <printk>
  10639b:	48 8b 05 c6 8d 00 00 	mov    0x8dc6(%rip),%rax        # 10f168 <ktable>
  1063a2:	48 89 45 f8          	mov    %rax,-0x8(%rbp)
  1063a6:	48 8b 45 98          	mov    -0x68(%rbp),%rax
  1063aa:	48 89 45 f0          	mov    %rax,-0x10(%rbp)
  1063ae:	48 8b 45 f0          	mov    -0x10(%rbp),%rax
  1063b2:	48 c1 e8 27          	shr    $0x27,%rax
  1063b6:	25 ff 01 00 00       	and    $0x1ff,%eax
  1063bb:	48 89 45 e8          	mov    %rax,-0x18(%rbp)
  1063bf:	48 8b 45 e8          	mov    -0x18(%rbp),%rax
  1063c3:	48 8d 14 c5 00 00 00 	lea    0x0(,%rax,8),%rdx
  1063ca:	00 
  1063cb:	48 8b 45 f8          	mov    -0x8(%rbp),%rax
  1063cf:	48 01 d0             	add    %rdx,%rax
  1063d2:	48 89 45 e0          	mov    %rax,-0x20(%rbp)
  1063d6:	48 8b 45 e0          	mov    -0x20(%rbp),%rax
  1063da:	0f b6 00             	movzbl (%rax),%eax
  1063dd:	83 e0 01             	and    $0x1,%eax
  1063e0:	84 c0                	test   %al,%al
  1063e2:	75 14                	jne    1063f8 <MMU_free_page+0x7f>
  1063e4:	bf 8c 0b 10 00       	mov    $0x100b8c,%edi
  1063e9:	b8 00 00 00 00       	mov    $0x0,%eax
  1063ee:	e8 c1 06 00 00       	call   106ab4 <printk>
  1063f3:	e9 b9 01 00 00       	jmp    1065b1 <MMU_free_page+0x238>
  1063f8:	48 8b 45 f0          	mov    -0x10(%rbp),%rax
  1063fc:	48 c1 e8 1e          	shr    $0x1e,%rax
  106400:	25 ff 01 00 00       	and    $0x1ff,%eax
  106405:	48 89 45 d8          	mov    %rax,-0x28(%rbp)
  106409:	48 8b 45 e0          	mov    -0x20(%rbp),%rax
  10640d:	48 8b 00             	mov    (%rax),%rax
  106410:	48 c1 e8 0c          	shr    $0xc,%rax
  106414:	48 ba ff ff ff ff ff 	movabs $0xffffffffff,%rdx
  10641b:	00 00 00 
  10641e:	48 21 d0             	and    %rdx,%rax
  106421:	48 c1 e0 0c          	shl    $0xc,%rax
  106425:	48 ba ff ff ff ff ff 	movabs $0xffffffffff,%rdx
  10642c:	00 00 00 
  10642f:	48 21 d0             	and    %rdx,%rax
  106432:	48 89 c2             	mov    %rax,%rdx
  106435:	48 b8 00 f0 ff ff ff 	movabs $0xffffffffff000,%rax
  10643c:	ff 0f 00 
  10643f:	48 21 d0             	and    %rdx,%rax
  106442:	48 89 45 d0          	mov    %rax,-0x30(%rbp)
  106446:	48 8b 45 d8          	mov    -0x28(%rbp),%rax
  10644a:	48 c1 e0 03          	shl    $0x3,%rax
  10644e:	48 01 45 d0          	add    %rax,-0x30(%rbp)
  106452:	48 8b 45 d0          	mov    -0x30(%rbp),%rax
  106456:	0f b6 00             	movzbl (%rax),%eax
  106459:	83 e0 01             	and    $0x1,%eax
  10645c:	84 c0                	test   %al,%al
  10645e:	75 14                	jne    106474 <MMU_free_page+0xfb>
  106460:	bf 99 0b 10 00       	mov    $0x100b99,%edi
  106465:	b8 00 00 00 00       	mov    $0x0,%eax
  10646a:	e8 45 06 00 00       	call   106ab4 <printk>
  10646f:	e9 3d 01 00 00       	jmp    1065b1 <MMU_free_page+0x238>
  106474:	48 8b 45 f0          	mov    -0x10(%rbp),%rax
  106478:	48 c1 e8 15          	shr    $0x15,%rax
  10647c:	25 ff 01 00 00       	and    $0x1ff,%eax
  106481:	48 89 45 c8          	mov    %rax,-0x38(%rbp)
  106485:	48 8b 45 d0          	mov    -0x30(%rbp),%rax
  106489:	48 8b 00             	mov    (%rax),%rax
  10648c:	48 c1 e8 0c          	shr    $0xc,%rax
  106490:	48 ba ff ff ff ff ff 	movabs $0xffffffffff,%rdx
  106497:	00 00 00 
  10649a:	48 21 d0             	and    %rdx,%rax
  10649d:	48 c1 e0 0c          	shl    $0xc,%rax
  1064a1:	48 ba ff ff ff ff ff 	movabs $0xffffffffff,%rdx
  1064a8:	00 00 00 
  1064ab:	48 21 d0             	and    %rdx,%rax
  1064ae:	48 89 c2             	mov    %rax,%rdx
  1064b1:	48 b8 00 f0 ff ff ff 	movabs $0xffffffffff000,%rax
  1064b8:	ff 0f 00 
  1064bb:	48 21 d0             	and    %rdx,%rax
  1064be:	48 89 45 c0          	mov    %rax,-0x40(%rbp)
  1064c2:	48 8b 45 c8          	mov    -0x38(%rbp),%rax
  1064c6:	48 c1 e0 03          	shl    $0x3,%rax
  1064ca:	48 01 45 c0          	add    %rax,-0x40(%rbp)
  1064ce:	48 8b 45 c0          	mov    -0x40(%rbp),%rax
  1064d2:	0f b6 00             	movzbl (%rax),%eax
  1064d5:	83 e0 01             	and    $0x1,%eax
  1064d8:	84 c0                	test   %al,%al
  1064da:	75 14                	jne    1064f0 <MMU_free_page+0x177>
  1064dc:	bf a6 0b 10 00       	mov    $0x100ba6,%edi
  1064e1:	b8 00 00 00 00       	mov    $0x0,%eax
  1064e6:	e8 c9 05 00 00       	call   106ab4 <printk>
  1064eb:	e9 c1 00 00 00       	jmp    1065b1 <MMU_free_page+0x238>
  1064f0:	48 8b 45 f0          	mov    -0x10(%rbp),%rax
  1064f4:	48 c1 e8 0c          	shr    $0xc,%rax
  1064f8:	25 ff 01 00 00       	and    $0x1ff,%eax
  1064fd:	48 89 45 b8          	mov    %rax,-0x48(%rbp)
  106501:	48 8b 45 c0          	mov    -0x40(%rbp),%rax
  106505:	48 8b 00             	mov    (%rax),%rax
  106508:	48 c1 e8 0c          	shr    $0xc,%rax
  10650c:	48 ba ff ff ff ff ff 	movabs $0xffffffffff,%rdx
  106513:	00 00 00 
  106516:	48 21 d0             	and    %rdx,%rax
  106519:	48 c1 e0 0c          	shl    $0xc,%rax
  10651d:	48 ba ff ff ff ff ff 	movabs $0xffffffffff,%rdx
  106524:	00 00 00 
  106527:	48 21 d0             	and    %rdx,%rax
  10652a:	48 89 c2             	mov    %rax,%rdx
  10652d:	48 b8 00 f0 ff ff ff 	movabs $0xffffffffff000,%rax
  106534:	ff 0f 00 
  106537:	48 21 d0             	and    %rdx,%rax
  10653a:	48 89 45 b0          	mov    %rax,-0x50(%rbp)
  10653e:	48 8b 45 b8          	mov    -0x48(%rbp),%rax
  106542:	48 c1 e0 03          	shl    $0x3,%rax
  106546:	48 01 45 b0          	add    %rax,-0x50(%rbp)
  10654a:	48 8b 45 b0          	mov    -0x50(%rbp),%rax
  10654e:	0f b6 00             	movzbl (%rax),%eax
  106551:	83 e0 01             	and    $0x1,%eax
  106554:	84 c0                	test   %al,%al
  106556:	75 11                	jne    106569 <MMU_free_page+0x1f0>
  106558:	bf b3 0b 10 00       	mov    $0x100bb3,%edi
  10655d:	b8 00 00 00 00       	mov    $0x0,%eax
  106562:	e8 4d 05 00 00       	call   106ab4 <printk>
  106567:	eb 48                	jmp    1065b1 <MMU_free_page+0x238>
  106569:	48 8b 45 b0          	mov    -0x50(%rbp),%rax
  10656d:	0f b6 10             	movzbl (%rax),%edx
  106570:	83 e2 fe             	and    $0xfffffffe,%edx
  106573:	88 10                	mov    %dl,(%rax)
  106575:	48 8b 45 b0          	mov    -0x50(%rbp),%rax
  106579:	48 8b 00             	mov    (%rax),%rax
  10657c:	48 c1 e8 0c          	shr    $0xc,%rax
  106580:	48 ba ff ff ff ff ff 	movabs $0xffffffffff,%rdx
  106587:	00 00 00 
  10658a:	48 21 d0             	and    %rdx,%rax
  10658d:	48 89 45 a8          	mov    %rax,-0x58(%rbp)
  106591:	48 c1 65 a8 0c       	shlq   $0xc,-0x58(%rbp)
  106596:	bf c0 0b 10 00       	mov    $0x100bc0,%edi
  10659b:	b8 00 00 00 00       	mov    $0x0,%eax
  1065a0:	e8 0f 05 00 00       	call   106ab4 <printk>
  1065a5:	48 8b 45 a8          	mov    -0x58(%rbp),%rax
  1065a9:	48 89 c7             	mov    %rax,%rdi
  1065ac:	e8 c8 fd ff ff       	call   106379 <MMU_free_page>
  1065b1:	c9                   	leave
  1065b2:	c3                   	ret

00000000001065b3 <MMU_free_pages>:
  1065b3:	55                   	push   %rbp
  1065b4:	48 89 e5             	mov    %rsp,%rbp
  1065b7:	48 83 ec 20          	sub    $0x20,%rsp
  1065bb:	48 89 7d e8          	mov    %rdi,-0x18(%rbp)
  1065bf:	89 75 e4             	mov    %esi,-0x1c(%rbp)
  1065c2:	c7 45 fc 00 00 00 00 	movl   $0x0,-0x4(%rbp)
  1065c9:	eb 1c                	jmp    1065e7 <MMU_free_pages+0x34>
  1065cb:	8b 45 fc             	mov    -0x4(%rbp),%eax
  1065ce:	c1 e0 0c             	shl    $0xc,%eax
  1065d1:	48 63 d0             	movslq %eax,%rdx
  1065d4:	48 8b 45 e8          	mov    -0x18(%rbp),%rax
  1065d8:	48 01 d0             	add    %rdx,%rax
  1065db:	48 89 c7             	mov    %rax,%rdi
  1065de:	e8 96 fd ff ff       	call   106379 <MMU_free_page>
  1065e3:	83 45 fc 01          	addl   $0x1,-0x4(%rbp)
  1065e7:	8b 45 fc             	mov    -0x4(%rbp),%eax
  1065ea:	3b 45 e4             	cmp    -0x1c(%rbp),%eax
  1065ed:	7c dc                	jl     1065cb <MMU_free_pages+0x18>
  1065ef:	90                   	nop
  1065f0:	90                   	nop
  1065f1:	c9                   	leave
  1065f2:	c3                   	ret

00000000001065f3 <test_table>:
  1065f3:	55                   	push   %rbp
  1065f4:	48 89 e5             	mov    %rsp,%rbp
  1065f7:	48 83 ec 20          	sub    $0x20,%rsp
  1065fb:	bf d1 0b 10 00       	mov    $0x100bd1,%edi
  106600:	b8 00 00 00 00       	mov    $0x0,%eax
  106605:	e8 aa 04 00 00       	call   106ab4 <printk>
  10660a:	b8 00 00 00 00       	mov    $0x0,%eax
  10660f:	e8 5a fb ff ff       	call   10616e <MMU_alloc_page>
  106614:	48 89 45 f8          	mov    %rax,-0x8(%rbp)
  106618:	48 8b 45 f8          	mov    -0x8(%rbp),%rax
  10661c:	48 b9 11 11 11 11 11 	movabs $0x1111111111111111,%rcx
  106623:	11 11 11 
  106626:	48 89 08             	mov    %rcx,(%rax)
  106629:	b8 00 00 00 00       	mov    $0x0,%eax
  10662e:	e8 3b fb ff ff       	call   10616e <MMU_alloc_page>
  106633:	48 89 45 f0          	mov    %rax,-0x10(%rbp)
  106637:	48 8b 45 f0          	mov    -0x10(%rbp),%rax
  10663b:	48 b9 22 22 22 22 22 	movabs $0x2222222222222222,%rcx
  106642:	22 22 22 
  106645:	48 89 08             	mov    %rcx,(%rax)
  106648:	b8 00 00 00 00       	mov    $0x0,%eax
  10664d:	e8 1c fb ff ff       	call   10616e <MMU_alloc_page>
  106652:	48 89 45 e8          	mov    %rax,-0x18(%rbp)
  106656:	48 8b 45 e8          	mov    -0x18(%rbp),%rax
  10665a:	48 be 33 33 33 33 33 	movabs $0x3333333333333333,%rsi
  106661:	33 33 33 
  106664:	48 89 30             	mov    %rsi,(%rax)
  106667:	48 8b 45 f8          	mov    -0x8(%rbp),%rax
  10666b:	48 8b 10             	mov    (%rax),%rdx
  10666e:	48 8b 45 f8          	mov    -0x8(%rbp),%rax
  106672:	48 89 c6             	mov    %rax,%rsi
  106675:	bf f0 0b 10 00       	mov    $0x100bf0,%edi
  10667a:	b8 00 00 00 00       	mov    $0x0,%eax
  10667f:	e8 30 04 00 00       	call   106ab4 <printk>
  106684:	48 8b 45 f0          	mov    -0x10(%rbp),%rax
  106688:	48 8b 10             	mov    (%rax),%rdx
  10668b:	48 8b 45 f0          	mov    -0x10(%rbp),%rax
  10668f:	48 89 c6             	mov    %rax,%rsi
  106692:	bf 18 0c 10 00       	mov    $0x100c18,%edi
  106697:	b8 00 00 00 00       	mov    $0x0,%eax
  10669c:	e8 13 04 00 00       	call   106ab4 <printk>
  1066a1:	48 8b 45 e8          	mov    -0x18(%rbp),%rax
  1066a5:	48 8b 10             	mov    (%rax),%rdx
  1066a8:	48 8b 45 e8          	mov    -0x18(%rbp),%rax
  1066ac:	48 89 c6             	mov    %rax,%rsi
  1066af:	bf 40 0c 10 00       	mov    $0x100c40,%edi
  1066b4:	b8 00 00 00 00       	mov    $0x0,%eax
  1066b9:	e8 f6 03 00 00       	call   106ab4 <printk>
  1066be:	90                   	nop
  1066bf:	c9                   	leave
  1066c0:	c3                   	ret

00000000001066c1 <test_page_fault>:
  1066c1:	55                   	push   %rbp
  1066c2:	48 89 e5             	mov    %rsp,%rbp
  1066c5:	48 83 ec 10          	sub    $0x10,%rsp
  1066c9:	bf 68 0c 10 00       	mov    $0x100c68,%edi
  1066ce:	b8 00 00 00 00       	mov    $0x0,%eax
  1066d3:	e8 dc 03 00 00       	call   106ab4 <printk>
  1066d8:	48 8b 05 b1 10 00 00 	mov    0x10b1(%rip),%rax        # 107790 <heap_vaddr>
  1066df:	48 05 00 10 00 00    	add    $0x1000,%rax
  1066e5:	48 89 45 f8          	mov    %rax,-0x8(%rbp)
  1066e9:	48 8b 45 f8          	mov    -0x8(%rbp),%rax
  1066ed:	48 c7 00 ff ff ff ff 	movq   $0xffffffffffffffff,(%rax)
  1066f4:	90                   	nop
  1066f5:	c9                   	leave
  1066f6:	c3                   	ret

00000000001066f7 <init_state>:
  1066f7:	55                   	push   %rbp
  1066f8:	48 89 e5             	mov    %rsp,%rbp
  1066fb:	48 89 7d f8          	mov    %rdi,-0x8(%rbp)
  1066ff:	48 8b 55 f8          	mov    -0x8(%rbp),%rdx
  106703:	48 8b 45 f8          	mov    -0x8(%rbp),%rax
  106707:	48 89 50 10          	mov    %rdx,0x10(%rax)
  10670b:	48 8b 55 f8          	mov    -0x8(%rbp),%rdx
  10670f:	48 8b 45 f8          	mov    -0x8(%rbp),%rax
  106713:	48 89 50 18          	mov    %rdx,0x18(%rax)
  106717:	90                   	nop
  106718:	5d                   	pop    %rbp
  106719:	c3                   	ret

000000000010671a <serial_received>:
  10671a:	55                   	push   %rbp
  10671b:	48 89 e5             	mov    %rsp,%rbp
  10671e:	bf fd 03 00 00       	mov    $0x3fd,%edi
  106723:	e8 e0 0b 00 00       	call   107308 <inb>
  106728:	0f b6 c0             	movzbl %al,%eax
  10672b:	83 e0 01             	and    $0x1,%eax
  10672e:	5d                   	pop    %rbp
  10672f:	c3                   	ret

0000000000106730 <read_serial>:
  106730:	55                   	push   %rbp
  106731:	48 89 e5             	mov    %rsp,%rbp
  106734:	90                   	nop
  106735:	b8 00 00 00 00       	mov    $0x0,%eax
  10673a:	e8 db ff ff ff       	call   10671a <serial_received>
  10673f:	85 c0                	test   %eax,%eax
  106741:	74 f2                	je     106735 <read_serial+0x5>
  106743:	bf f8 03 00 00       	mov    $0x3f8,%edi
  106748:	e8 bb 0b 00 00       	call   107308 <inb>
  10674d:	5d                   	pop    %rbp
  10674e:	c3                   	ret

000000000010674f <is_transmit_empty>:
  10674f:	55                   	push   %rbp
  106750:	48 89 e5             	mov    %rsp,%rbp
  106753:	bf fd 03 00 00       	mov    $0x3fd,%edi
  106758:	e8 ab 0b 00 00       	call   107308 <inb>
  10675d:	0f b6 c0             	movzbl %al,%eax
  106760:	83 e0 20             	and    $0x20,%eax
  106763:	5d                   	pop    %rbp
  106764:	c3                   	ret

0000000000106765 <hw_write>:
  106765:	55                   	push   %rbp
  106766:	48 89 e5             	mov    %rsp,%rbp
  106769:	48 83 ec 10          	sub    $0x10,%rsp
  10676d:	48 89 7d f8          	mov    %rdi,-0x8(%rbp)
  106771:	0f b6 05 08 8a 00 00 	movzbl 0x8a08(%rip),%eax        # 10f180 <idle_state>
  106778:	84 c0                	test   %al,%al
  10677a:	75 16                	jne    106792 <hw_write+0x2d>
  10677c:	90                   	nop
  10677d:	b8 00 00 00 00       	mov    $0x0,%eax
  106782:	e8 c8 ff ff ff       	call   10674f <is_transmit_empty>
  106787:	85 c0                	test   %eax,%eax
  106789:	74 f2                	je     10677d <hw_write+0x18>
  10678b:	c6 05 ee 89 00 00 01 	movb   $0x1,0x89ee(%rip)        # 10f180 <idle_state>
  106792:	0f b6 05 e7 89 00 00 	movzbl 0x89e7(%rip),%eax        # 10f180 <idle_state>
  106799:	84 c0                	test   %al,%al
  10679b:	74 13                	je     1067b0 <hw_write+0x4b>
  10679d:	c6 05 dc 89 00 00 00 	movb   $0x0,0x89dc(%rip)        # 10f180 <idle_state>
  1067a4:	48 8b 45 f8          	mov    -0x8(%rbp),%rax
  1067a8:	48 89 c7             	mov    %rax,%rdi
  1067ab:	e8 8e 00 00 00       	call   10683e <consumer_next>
  1067b0:	90                   	nop
  1067b1:	c9                   	leave
  1067b2:	c3                   	ret

00000000001067b3 <serial_handler>:
  1067b3:	55                   	push   %rbp
  1067b4:	48 89 e5             	mov    %rsp,%rbp
  1067b7:	48 83 ec 30          	sub    $0x30,%rsp
  1067bb:	89 7d ec             	mov    %edi,-0x14(%rbp)
  1067be:	48 89 75 e0          	mov    %rsi,-0x20(%rbp)
  1067c2:	48 89 55 d8          	mov    %rdx,-0x28(%rbp)
  1067c6:	bf fa 03 00 00       	mov    $0x3fa,%edi
  1067cb:	e8 38 0b 00 00       	call   107308 <inb>
  1067d0:	3c 01                	cmp    $0x1,%al
  1067d2:	0f 97 c0             	seta   %al
  1067d5:	88 45 ff             	mov    %al,-0x1(%rbp)
  1067d8:	bf fd 03 00 00       	mov    $0x3fd,%edi
  1067dd:	e8 26 0b 00 00       	call   107308 <inb>
  1067e2:	88 45 fe             	mov    %al,-0x2(%rbp)
  1067e5:	80 7d ff 03          	cmpb   $0x3,-0x1(%rbp)
  1067e9:	75 0c                	jne    1067f7 <serial_handler+0x44>
  1067eb:	bf fd 03 00 00       	mov    $0x3fd,%edi
  1067f0:	e8 13 0b 00 00       	call   107308 <inb>
  1067f5:	eb 21                	jmp    106818 <serial_handler+0x65>
  1067f7:	80 7d ff 01          	cmpb   $0x1,-0x1(%rbp)
  1067fb:	75 1b                	jne    106818 <serial_handler+0x65>
  1067fd:	c6 05 7c 89 00 00 01 	movb   $0x1,0x897c(%rip)        # 10f180 <idle_state>
  106804:	48 8b 45 d8          	mov    -0x28(%rbp),%rax
  106808:	48 89 45 f0          	mov    %rax,-0x10(%rbp)
  10680c:	48 8b 45 f0          	mov    -0x10(%rbp),%rax
  106810:	48 89 c7             	mov    %rax,%rdi
  106813:	e8 4d ff ff ff       	call   106765 <hw_write>
  106818:	90                   	nop
  106819:	c9                   	leave
  10681a:	c3                   	ret

000000000010681b <consume_byte>:
  10681b:	55                   	push   %rbp
  10681c:	48 89 e5             	mov    %rsp,%rbp
  10681f:	48 83 ec 10          	sub    $0x10,%rsp
  106823:	89 f8                	mov    %edi,%eax
  106825:	88 45 fc             	mov    %al,-0x4(%rbp)
  106828:	0f b6 45 fc          	movzbl -0x4(%rbp),%eax
  10682c:	0f b6 c0             	movzbl %al,%eax
  10682f:	89 c6                	mov    %eax,%esi
  106831:	bf f8 03 00 00       	mov    $0x3f8,%edi
  106836:	e8 b2 0a 00 00       	call   1072ed <outb>
  10683b:	90                   	nop
  10683c:	c9                   	leave
  10683d:	c3                   	ret

000000000010683e <consumer_next>:
  10683e:	55                   	push   %rbp
  10683f:	48 89 e5             	mov    %rsp,%rbp
  106842:	48 83 ec 10          	sub    $0x10,%rsp
  106846:	48 89 7d f8          	mov    %rdi,-0x8(%rbp)
  10684a:	48 8b 45 f8          	mov    -0x8(%rbp),%rax
  10684e:	48 8b 50 10          	mov    0x10(%rax),%rdx
  106852:	48 8b 45 f8          	mov    -0x8(%rbp),%rax
  106856:	48 8b 40 18          	mov    0x18(%rax),%rax
  10685a:	48 39 c2             	cmp    %rax,%rdx
  10685d:	74 44                	je     1068a3 <consumer_next+0x65>
  10685f:	48 8b 45 f8          	mov    -0x8(%rbp),%rax
  106863:	48 8b 40 10          	mov    0x10(%rax),%rax
  106867:	48 8d 48 01          	lea    0x1(%rax),%rcx
  10686b:	48 8b 55 f8          	mov    -0x8(%rbp),%rdx
  10686f:	48 89 4a 10          	mov    %rcx,0x10(%rdx)
  106873:	0f b6 00             	movzbl (%rax),%eax
  106876:	0f be c0             	movsbl %al,%eax
  106879:	89 c7                	mov    %eax,%edi
  10687b:	e8 9b ff ff ff       	call   10681b <consume_byte>
  106880:	48 8b 45 f8          	mov    -0x8(%rbp),%rax
  106884:	48 8b 50 10          	mov    0x10(%rax),%rdx
  106888:	48 8b 45 f8          	mov    -0x8(%rbp),%rax
  10688c:	48 83 c0 10          	add    $0x10,%rax
  106890:	48 39 c2             	cmp    %rax,%rdx
  106893:	72 0f                	jb     1068a4 <consumer_next+0x66>
  106895:	48 8b 55 f8          	mov    -0x8(%rbp),%rdx
  106899:	48 8b 45 f8          	mov    -0x8(%rbp),%rax
  10689d:	48 89 50 10          	mov    %rdx,0x10(%rax)
  1068a1:	eb 01                	jmp    1068a4 <consumer_next+0x66>
  1068a3:	90                   	nop
  1068a4:	c9                   	leave
  1068a5:	c3                   	ret

00000000001068a6 <producer_add_char>:
  1068a6:	55                   	push   %rbp
  1068a7:	48 89 e5             	mov    %rsp,%rbp
  1068aa:	89 f8                	mov    %edi,%eax
  1068ac:	48 89 75 f0          	mov    %rsi,-0x10(%rbp)
  1068b0:	88 45 fc             	mov    %al,-0x4(%rbp)
  1068b3:	48 8b 45 f0          	mov    -0x10(%rbp),%rax
  1068b7:	48 8b 50 18          	mov    0x18(%rax),%rdx
  1068bb:	48 8b 45 f0          	mov    -0x10(%rbp),%rax
  1068bf:	48 8b 40 10          	mov    0x10(%rax),%rax
  1068c3:	48 83 e8 01          	sub    $0x1,%rax
  1068c7:	48 39 c2             	cmp    %rax,%rdx
  1068ca:	74 26                	je     1068f2 <producer_add_char+0x4c>
  1068cc:	48 8b 45 f0          	mov    -0x10(%rbp),%rax
  1068d0:	48 8b 50 10          	mov    0x10(%rax),%rdx
  1068d4:	48 8b 45 f0          	mov    -0x10(%rbp),%rax
  1068d8:	48 39 c2             	cmp    %rax,%rdx
  1068db:	75 1c                	jne    1068f9 <producer_add_char+0x53>
  1068dd:	48 8b 45 f0          	mov    -0x10(%rbp),%rax
  1068e1:	48 8b 50 18          	mov    0x18(%rax),%rdx
  1068e5:	48 8b 45 f0          	mov    -0x10(%rbp),%rax
  1068e9:	48 83 c0 0f          	add    $0xf,%rax
  1068ed:	48 39 c2             	cmp    %rax,%rdx
  1068f0:	75 07                	jne    1068f9 <producer_add_char+0x53>
  1068f2:	b8 ff ff ff ff       	mov    $0xffffffff,%eax
  1068f7:	eb 40                	jmp    106939 <producer_add_char+0x93>
  1068f9:	48 8b 45 f0          	mov    -0x10(%rbp),%rax
  1068fd:	48 8b 40 18          	mov    0x18(%rax),%rax
  106901:	48 8d 48 01          	lea    0x1(%rax),%rcx
  106905:	48 8b 55 f0          	mov    -0x10(%rbp),%rdx
  106909:	48 89 4a 18          	mov    %rcx,0x18(%rdx)
  10690d:	0f b6 55 fc          	movzbl -0x4(%rbp),%edx
  106911:	88 10                	mov    %dl,(%rax)
  106913:	48 8b 45 f0          	mov    -0x10(%rbp),%rax
  106917:	48 8b 50 18          	mov    0x18(%rax),%rdx
  10691b:	48 8b 45 f0          	mov    -0x10(%rbp),%rax
  10691f:	48 83 c0 10          	add    $0x10,%rax
  106923:	48 39 c2             	cmp    %rax,%rdx
  106926:	72 0c                	jb     106934 <producer_add_char+0x8e>
  106928:	48 8b 55 f0          	mov    -0x10(%rbp),%rdx
  10692c:	48 8b 45 f0          	mov    -0x10(%rbp),%rax
  106930:	48 89 50 18          	mov    %rdx,0x18(%rax)
  106934:	b8 00 00 00 00       	mov    $0x0,%eax
  106939:	5d                   	pop    %rbp
  10693a:	c3                   	ret

000000000010693b <SER_init>:
  10693b:	55                   	push   %rbp
  10693c:	48 89 e5             	mov    %rsp,%rbp
  10693f:	be 00 00 00 00       	mov    $0x0,%esi
  106944:	bf f9 03 00 00       	mov    $0x3f9,%edi
  106949:	e8 9f 09 00 00       	call   1072ed <outb>
  10694e:	be 80 00 00 00       	mov    $0x80,%esi
  106953:	bf fb 03 00 00       	mov    $0x3fb,%edi
  106958:	e8 90 09 00 00       	call   1072ed <outb>
  10695d:	be 03 00 00 00       	mov    $0x3,%esi
  106962:	bf f8 03 00 00       	mov    $0x3f8,%edi
  106967:	e8 81 09 00 00       	call   1072ed <outb>
  10696c:	be 00 00 00 00       	mov    $0x0,%esi
  106971:	bf f9 03 00 00       	mov    $0x3f9,%edi
  106976:	e8 72 09 00 00       	call   1072ed <outb>
  10697b:	be 03 00 00 00       	mov    $0x3,%esi
  106980:	bf fb 03 00 00       	mov    $0x3fb,%edi
  106985:	e8 63 09 00 00       	call   1072ed <outb>
  10698a:	be c7 00 00 00       	mov    $0xc7,%esi
  10698f:	bf fa 03 00 00       	mov    $0x3fa,%edi
  106994:	e8 54 09 00 00       	call   1072ed <outb>
  106999:	be 0b 00 00 00       	mov    $0xb,%esi
  10699e:	bf fc 03 00 00       	mov    $0x3fc,%edi
  1069a3:	e8 45 09 00 00       	call   1072ed <outb>
  1069a8:	be 1e 00 00 00       	mov    $0x1e,%esi
  1069ad:	bf fc 03 00 00       	mov    $0x3fc,%edi
  1069b2:	e8 36 09 00 00       	call   1072ed <outb>
  1069b7:	be ae 00 00 00       	mov    $0xae,%esi
  1069bc:	bf f8 03 00 00       	mov    $0x3f8,%edi
  1069c1:	e8 27 09 00 00       	call   1072ed <outb>
  1069c6:	be 02 00 00 00       	mov    $0x2,%esi
  1069cb:	bf f9 03 00 00       	mov    $0x3f9,%edi
  1069d0:	e8 18 09 00 00       	call   1072ed <outb>
  1069d5:	bf f8 03 00 00       	mov    $0x3f8,%edi
  1069da:	e8 29 09 00 00       	call   107308 <inb>
  1069df:	3c ae                	cmp    $0xae,%al
  1069e1:	75 3a                	jne    106a1d <SER_init+0xe2>
  1069e3:	be 0f 00 00 00       	mov    $0xf,%esi
  1069e8:	bf fc 03 00 00       	mov    $0x3fc,%edi
  1069ed:	e8 fb 08 00 00       	call   1072ed <outb>
  1069f2:	48 c7 05 8b 87 00 00 	movq   $0x10f1a0,0x878b(%rip)        # 10f188 <global_state>
  1069f9:	a0 f1 10 00 
  1069fd:	ba a0 f1 10 00       	mov    $0x10f1a0,%edx
  106a02:	be b3 67 10 00       	mov    $0x1067b3,%esi
  106a07:	bf 24 00 00 00       	mov    $0x24,%edi
  106a0c:	e8 99 c5 ff ff       	call   102faa <IRQ_set_handler>
  106a11:	bf 04 00 00 00       	mov    $0x4,%edi
  106a16:	e8 b8 c4 ff ff       	call   102ed3 <IRQ_clear_mask>
  106a1b:	eb 01                	jmp    106a1e <SER_init+0xe3>
  106a1d:	90                   	nop
  106a1e:	5d                   	pop    %rbp
  106a1f:	c3                   	ret

0000000000106a20 <SER_write>:
  106a20:	55                   	push   %rbp
  106a21:	48 89 e5             	mov    %rsp,%rbp
  106a24:	48 83 ec 20          	sub    $0x20,%rsp
  106a28:	48 89 7d e8          	mov    %rdi,-0x18(%rbp)
  106a2c:	89 75 e4             	mov    %esi,-0x1c(%rbp)
  106a2f:	c6 45 ff 00          	movb   $0x0,-0x1(%rbp)
  106a33:	b8 00 00 00 00       	mov    $0x0,%eax
  106a38:	e8 35 c0 ff ff       	call   102a72 <are_interrupts_enabled>
  106a3d:	84 c0                	test   %al,%al
  106a3f:	74 0e                	je     106a4f <SER_write+0x2f>
  106a41:	c6 45 ff 01          	movb   $0x1,-0x1(%rbp)
  106a45:	b8 00 00 00 00       	mov    $0x0,%eax
  106a4a:	e8 05 c0 ff ff       	call   102a54 <CLI>
  106a4f:	c7 45 f8 00 00 00 00 	movl   $0x0,-0x8(%rbp)
  106a56:	eb 2d                	jmp    106a85 <SER_write+0x65>
  106a58:	48 8b 15 29 87 00 00 	mov    0x8729(%rip),%rdx        # 10f188 <global_state>
  106a5f:	8b 45 f8             	mov    -0x8(%rbp),%eax
  106a62:	48 63 c8             	movslq %eax,%rcx
  106a65:	48 8b 45 e8          	mov    -0x18(%rbp),%rax
  106a69:	48 01 c8             	add    %rcx,%rax
  106a6c:	0f b6 00             	movzbl (%rax),%eax
  106a6f:	0f be c0             	movsbl %al,%eax
  106a72:	48 89 d6             	mov    %rdx,%rsi
  106a75:	89 c7                	mov    %eax,%edi
  106a77:	e8 2a fe ff ff       	call   1068a6 <producer_add_char>
  106a7c:	83 f8 ff             	cmp    $0xffffffff,%eax
  106a7f:	74 0e                	je     106a8f <SER_write+0x6f>
  106a81:	83 45 f8 01          	addl   $0x1,-0x8(%rbp)
  106a85:	8b 45 f8             	mov    -0x8(%rbp),%eax
  106a88:	3b 45 e4             	cmp    -0x1c(%rbp),%eax
  106a8b:	7c cb                	jl     106a58 <SER_write+0x38>
  106a8d:	eb 01                	jmp    106a90 <SER_write+0x70>
  106a8f:	90                   	nop
  106a90:	48 8b 05 f1 86 00 00 	mov    0x86f1(%rip),%rax        # 10f188 <global_state>
  106a97:	48 89 c7             	mov    %rax,%rdi
  106a9a:	e8 c6 fc ff ff       	call   106765 <hw_write>
  106a9f:	80 7d ff 01          	cmpb   $0x1,-0x1(%rbp)
  106aa3:	75 0a                	jne    106aaf <SER_write+0x8f>
  106aa5:	b8 00 00 00 00       	mov    $0x0,%eax
  106aaa:	e8 b4 bf ff ff       	call   102a63 <STI>
  106aaf:	8b 45 f8             	mov    -0x8(%rbp),%eax
  106ab2:	c9                   	leave
  106ab3:	c3                   	ret

0000000000106ab4 <printk>:
  106ab4:	55                   	push   %rbp
  106ab5:	48 89 e5             	mov    %rsp,%rbp
  106ab8:	48 81 ec f0 00 00 00 	sub    $0xf0,%rsp
  106abf:	48 89 bd 18 ff ff ff 	mov    %rdi,-0xe8(%rbp)
  106ac6:	48 89 b5 58 ff ff ff 	mov    %rsi,-0xa8(%rbp)
  106acd:	48 89 95 60 ff ff ff 	mov    %rdx,-0xa0(%rbp)
  106ad4:	48 89 8d 68 ff ff ff 	mov    %rcx,-0x98(%rbp)
  106adb:	4c 89 85 70 ff ff ff 	mov    %r8,-0x90(%rbp)
  106ae2:	4c 89 8d 78 ff ff ff 	mov    %r9,-0x88(%rbp)
  106ae9:	84 c0                	test   %al,%al
  106aeb:	74 20                	je     106b0d <printk+0x59>
  106aed:	0f 29 45 80          	movaps %xmm0,-0x80(%rbp)
  106af1:	0f 29 4d 90          	movaps %xmm1,-0x70(%rbp)
  106af5:	0f 29 55 a0          	movaps %xmm2,-0x60(%rbp)
  106af9:	0f 29 5d b0          	movaps %xmm3,-0x50(%rbp)
  106afd:	0f 29 65 c0          	movaps %xmm4,-0x40(%rbp)
  106b01:	0f 29 6d d0          	movaps %xmm5,-0x30(%rbp)
  106b05:	0f 29 75 e0          	movaps %xmm6,-0x20(%rbp)
  106b09:	0f 29 7d f0          	movaps %xmm7,-0x10(%rbp)
  106b0d:	c7 85 20 ff ff ff 08 	movl   $0x8,-0xe0(%rbp)
  106b14:	00 00 00 
  106b17:	c7 85 24 ff ff ff 30 	movl   $0x30,-0xdc(%rbp)
  106b1e:	00 00 00 
  106b21:	48 8d 45 10          	lea    0x10(%rbp),%rax
  106b25:	48 89 85 28 ff ff ff 	mov    %rax,-0xd8(%rbp)
  106b2c:	48 8d 85 50 ff ff ff 	lea    -0xb0(%rbp),%rax
  106b33:	48 89 85 30 ff ff ff 	mov    %rax,-0xd0(%rbp)
  106b3a:	e9 24 04 00 00       	jmp    106f63 <printk+0x4af>
  106b3f:	48 8b 85 18 ff ff ff 	mov    -0xe8(%rbp),%rax
  106b46:	0f b6 00             	movzbl (%rax),%eax
  106b49:	3c 25                	cmp    $0x25,%al
  106b4b:	0f 85 e2 03 00 00    	jne    106f33 <printk+0x47f>
  106b51:	48 83 85 18 ff ff ff 	addq   $0x1,-0xe8(%rbp)
  106b58:	01 
  106b59:	48 8b 85 18 ff ff ff 	mov    -0xe8(%rbp),%rax
  106b60:	0f b6 00             	movzbl (%rax),%eax
  106b63:	0f be c0             	movsbl %al,%eax
  106b66:	83 f8 25             	cmp    $0x25,%eax
  106b69:	74 33                	je     106b9e <printk+0xea>
  106b6b:	83 f8 25             	cmp    $0x25,%eax
  106b6e:	0f 8c e7 03 00 00    	jl     106f5b <printk+0x4a7>
  106b74:	83 f8 78             	cmp    $0x78,%eax
  106b77:	0f 8f de 03 00 00    	jg     106f5b <printk+0x4a7>
  106b7d:	83 f8 63             	cmp    $0x63,%eax
  106b80:	0f 8c d5 03 00 00    	jl     106f5b <printk+0x4a7>
  106b86:	83 e8 63             	sub    $0x63,%eax
  106b89:	83 f8 15             	cmp    $0x15,%eax
  106b8c:	0f 87 c9 03 00 00    	ja     106f5b <printk+0x4a7>
  106b92:	89 c0                	mov    %eax,%eax
  106b94:	48 8b 04 c5 b8 0c 10 	mov    0x100cb8(,%rax,8),%rax
  106b9b:	00 
  106b9c:	ff e0                	jmp    *%rax
  106b9e:	bf 25 00 00 00       	mov    $0x25,%edi
  106ba3:	e8 5c 04 00 00       	call   107004 <print_uchar>
  106ba8:	e9 ae 03 00 00       	jmp    106f5b <printk+0x4a7>
  106bad:	8b 85 20 ff ff ff    	mov    -0xe0(%rbp),%eax
  106bb3:	83 f8 2f             	cmp    $0x2f,%eax
  106bb6:	77 23                	ja     106bdb <printk+0x127>
  106bb8:	48 8b 85 30 ff ff ff 	mov    -0xd0(%rbp),%rax
  106bbf:	8b 95 20 ff ff ff    	mov    -0xe0(%rbp),%edx
  106bc5:	89 d2                	mov    %edx,%edx
  106bc7:	48 01 d0             	add    %rdx,%rax
  106bca:	8b 95 20 ff ff ff    	mov    -0xe0(%rbp),%edx
  106bd0:	83 c2 08             	add    $0x8,%edx
  106bd3:	89 95 20 ff ff ff    	mov    %edx,-0xe0(%rbp)
  106bd9:	eb 12                	jmp    106bed <printk+0x139>
  106bdb:	48 8b 85 28 ff ff ff 	mov    -0xd8(%rbp),%rax
  106be2:	48 8d 50 08          	lea    0x8(%rax),%rdx
  106be6:	48 89 95 28 ff ff ff 	mov    %rdx,-0xd8(%rbp)
  106bed:	8b 00                	mov    (%rax),%eax
  106bef:	be 01 00 00 00       	mov    $0x1,%esi
  106bf4:	89 c7                	mov    %eax,%edi
  106bf6:	e8 4f 05 00 00       	call   10714a <print_int>
  106bfb:	e9 5b 03 00 00       	jmp    106f5b <printk+0x4a7>
  106c00:	8b 85 20 ff ff ff    	mov    -0xe0(%rbp),%eax
  106c06:	83 f8 2f             	cmp    $0x2f,%eax
  106c09:	77 23                	ja     106c2e <printk+0x17a>
  106c0b:	48 8b 85 30 ff ff ff 	mov    -0xd0(%rbp),%rax
  106c12:	8b 95 20 ff ff ff    	mov    -0xe0(%rbp),%edx
  106c18:	89 d2                	mov    %edx,%edx
  106c1a:	48 01 d0             	add    %rdx,%rax
  106c1d:	8b 95 20 ff ff ff    	mov    -0xe0(%rbp),%edx
  106c23:	83 c2 08             	add    $0x8,%edx
  106c26:	89 95 20 ff ff ff    	mov    %edx,-0xe0(%rbp)
  106c2c:	eb 12                	jmp    106c40 <printk+0x18c>
  106c2e:	48 8b 85 28 ff ff ff 	mov    -0xd8(%rbp),%rax
  106c35:	48 8d 50 08          	lea    0x8(%rax),%rdx
  106c39:	48 89 95 28 ff ff ff 	mov    %rdx,-0xd8(%rbp)
  106c40:	8b 00                	mov    (%rax),%eax
  106c42:	be 00 00 00 00       	mov    $0x0,%esi
  106c47:	89 c7                	mov    %eax,%edi
  106c49:	e8 fc 04 00 00       	call   10714a <print_int>
  106c4e:	e9 08 03 00 00       	jmp    106f5b <printk+0x4a7>
  106c53:	8b 85 20 ff ff ff    	mov    -0xe0(%rbp),%eax
  106c59:	83 f8 2f             	cmp    $0x2f,%eax
  106c5c:	77 23                	ja     106c81 <printk+0x1cd>
  106c5e:	48 8b 85 30 ff ff ff 	mov    -0xd0(%rbp),%rax
  106c65:	8b 95 20 ff ff ff    	mov    -0xe0(%rbp),%edx
  106c6b:	89 d2                	mov    %edx,%edx
  106c6d:	48 01 d0             	add    %rdx,%rax
  106c70:	8b 95 20 ff ff ff    	mov    -0xe0(%rbp),%edx
  106c76:	83 c2 08             	add    $0x8,%edx
  106c79:	89 95 20 ff ff ff    	mov    %edx,-0xe0(%rbp)
  106c7f:	eb 12                	jmp    106c93 <printk+0x1df>
  106c81:	48 8b 85 28 ff ff ff 	mov    -0xd8(%rbp),%rax
  106c88:	48 8d 50 08          	lea    0x8(%rax),%rdx
  106c8c:	48 89 95 28 ff ff ff 	mov    %rdx,-0xd8(%rbp)
  106c93:	8b 00                	mov    (%rax),%eax
  106c95:	48 98                	cltq
  106c97:	be 00 00 00 00       	mov    $0x0,%esi
  106c9c:	48 89 c7             	mov    %rax,%rdi
  106c9f:	e8 ab 05 00 00       	call   10724f <print_long_hex>
  106ca4:	e9 b2 02 00 00       	jmp    106f5b <printk+0x4a7>
  106ca9:	8b 85 20 ff ff ff    	mov    -0xe0(%rbp),%eax
  106caf:	83 f8 2f             	cmp    $0x2f,%eax
  106cb2:	77 23                	ja     106cd7 <printk+0x223>
  106cb4:	48 8b 85 30 ff ff ff 	mov    -0xd0(%rbp),%rax
  106cbb:	8b 95 20 ff ff ff    	mov    -0xe0(%rbp),%edx
  106cc1:	89 d2                	mov    %edx,%edx
  106cc3:	48 01 d0             	add    %rdx,%rax
  106cc6:	8b 95 20 ff ff ff    	mov    -0xe0(%rbp),%edx
  106ccc:	83 c2 08             	add    $0x8,%edx
  106ccf:	89 95 20 ff ff ff    	mov    %edx,-0xe0(%rbp)
  106cd5:	eb 12                	jmp    106ce9 <printk+0x235>
  106cd7:	48 8b 85 28 ff ff ff 	mov    -0xd8(%rbp),%rax
  106cde:	48 8d 50 08          	lea    0x8(%rax),%rdx
  106ce2:	48 89 95 28 ff ff ff 	mov    %rdx,-0xd8(%rbp)
  106ce9:	8b 00                	mov    (%rax),%eax
  106ceb:	0f be c0             	movsbl %al,%eax
  106cee:	89 c7                	mov    %eax,%edi
  106cf0:	e8 87 02 00 00       	call   106f7c <print_char>
  106cf5:	e9 61 02 00 00       	jmp    106f5b <printk+0x4a7>
  106cfa:	8b 85 20 ff ff ff    	mov    -0xe0(%rbp),%eax
  106d00:	83 f8 2f             	cmp    $0x2f,%eax
  106d03:	77 23                	ja     106d28 <printk+0x274>
  106d05:	48 8b 85 30 ff ff ff 	mov    -0xd0(%rbp),%rax
  106d0c:	8b 95 20 ff ff ff    	mov    -0xe0(%rbp),%edx
  106d12:	89 d2                	mov    %edx,%edx
  106d14:	48 01 d0             	add    %rdx,%rax
  106d17:	8b 95 20 ff ff ff    	mov    -0xe0(%rbp),%edx
  106d1d:	83 c2 08             	add    $0x8,%edx
  106d20:	89 95 20 ff ff ff    	mov    %edx,-0xe0(%rbp)
  106d26:	eb 12                	jmp    106d3a <printk+0x286>
  106d28:	48 8b 85 28 ff ff ff 	mov    -0xd8(%rbp),%rax
  106d2f:	48 8d 50 08          	lea    0x8(%rax),%rdx
  106d33:	48 89 95 28 ff ff ff 	mov    %rdx,-0xd8(%rbp)
  106d3a:	48 8b 00             	mov    (%rax),%rax
  106d3d:	be 01 00 00 00       	mov    $0x1,%esi
  106d42:	48 89 c7             	mov    %rax,%rdi
  106d45:	e8 05 05 00 00       	call   10724f <print_long_hex>
  106d4a:	e9 0c 02 00 00       	jmp    106f5b <printk+0x4a7>
  106d4f:	8b 85 20 ff ff ff    	mov    -0xe0(%rbp),%eax
  106d55:	83 f8 2f             	cmp    $0x2f,%eax
  106d58:	77 23                	ja     106d7d <printk+0x2c9>
  106d5a:	48 8b 85 30 ff ff ff 	mov    -0xd0(%rbp),%rax
  106d61:	8b 95 20 ff ff ff    	mov    -0xe0(%rbp),%edx
  106d67:	89 d2                	mov    %edx,%edx
  106d69:	48 01 d0             	add    %rdx,%rax
  106d6c:	8b 95 20 ff ff ff    	mov    -0xe0(%rbp),%edx
  106d72:	83 c2 08             	add    $0x8,%edx
  106d75:	89 95 20 ff ff ff    	mov    %edx,-0xe0(%rbp)
  106d7b:	eb 12                	jmp    106d8f <printk+0x2db>
  106d7d:	48 8b 85 28 ff ff ff 	mov    -0xd8(%rbp),%rax
  106d84:	48 8d 50 08          	lea    0x8(%rax),%rdx
  106d88:	48 89 95 28 ff ff ff 	mov    %rdx,-0xd8(%rbp)
  106d8f:	48 8b 00             	mov    (%rax),%rax
  106d92:	48 89 c7             	mov    %rax,%rdi
  106d95:	e8 10 02 00 00       	call   106faa <print_str>
  106d9a:	e9 bc 01 00 00       	jmp    106f5b <printk+0x4a7>
  106d9f:	8b 85 20 ff ff ff    	mov    -0xe0(%rbp),%eax
  106da5:	83 f8 2f             	cmp    $0x2f,%eax
  106da8:	77 23                	ja     106dcd <printk+0x319>
  106daa:	48 8b 85 30 ff ff ff 	mov    -0xd0(%rbp),%rax
  106db1:	8b 95 20 ff ff ff    	mov    -0xe0(%rbp),%edx
  106db7:	89 d2                	mov    %edx,%edx
  106db9:	48 01 d0             	add    %rdx,%rax
  106dbc:	8b 95 20 ff ff ff    	mov    -0xe0(%rbp),%edx
  106dc2:	83 c2 08             	add    $0x8,%edx
  106dc5:	89 95 20 ff ff ff    	mov    %edx,-0xe0(%rbp)
  106dcb:	eb 12                	jmp    106ddf <printk+0x32b>
  106dcd:	48 8b 85 28 ff ff ff 	mov    -0xd8(%rbp),%rax
  106dd4:	48 8d 50 08          	lea    0x8(%rax),%rdx
  106dd8:	48 89 95 28 ff ff ff 	mov    %rdx,-0xd8(%rbp)
  106ddf:	8b 00                	mov    (%rax),%eax
  106de1:	66 89 85 3e ff ff ff 	mov    %ax,-0xc2(%rbp)
  106de8:	0f bf 85 3e ff ff ff 	movswl -0xc2(%rbp),%eax
  106def:	be 01 00 00 00       	mov    $0x1,%esi
  106df4:	89 c7                	mov    %eax,%edi
  106df6:	e8 38 02 00 00       	call   107033 <print_short>
  106dfb:	e9 5b 01 00 00       	jmp    106f5b <printk+0x4a7>
  106e00:	48 83 85 18 ff ff ff 	addq   $0x1,-0xe8(%rbp)
  106e07:	01 
  106e08:	48 8b 85 18 ff ff ff 	mov    -0xe8(%rbp),%rax
  106e0f:	0f b6 00             	movzbl (%rax),%eax
  106e12:	3c 6c                	cmp    $0x6c,%al
  106e14:	75 63                	jne    106e79 <printk+0x3c5>
  106e16:	8b 85 20 ff ff ff    	mov    -0xe0(%rbp),%eax
  106e1c:	83 f8 2f             	cmp    $0x2f,%eax
  106e1f:	77 23                	ja     106e44 <printk+0x390>
  106e21:	48 8b 85 30 ff ff ff 	mov    -0xd0(%rbp),%rax
  106e28:	8b 95 20 ff ff ff    	mov    -0xe0(%rbp),%edx
  106e2e:	89 d2                	mov    %edx,%edx
  106e30:	48 01 d0             	add    %rdx,%rax
  106e33:	8b 95 20 ff ff ff    	mov    -0xe0(%rbp),%edx
  106e39:	83 c2 08             	add    $0x8,%edx
  106e3c:	89 95 20 ff ff ff    	mov    %edx,-0xe0(%rbp)
  106e42:	eb 12                	jmp    106e56 <printk+0x3a2>
  106e44:	48 8b 85 28 ff ff ff 	mov    -0xd8(%rbp),%rax
  106e4b:	48 8d 50 08          	lea    0x8(%rax),%rdx
  106e4f:	48 89 95 28 ff ff ff 	mov    %rdx,-0xd8(%rbp)
  106e56:	48 8b 00             	mov    (%rax),%rax
  106e59:	48 89 85 40 ff ff ff 	mov    %rax,-0xc0(%rbp)
  106e60:	48 8b 85 40 ff ff ff 	mov    -0xc0(%rbp),%rax
  106e67:	be 01 00 00 00       	mov    $0x1,%esi
  106e6c:	48 89 c7             	mov    %rax,%rdi
  106e6f:	e8 db 03 00 00       	call   10724f <print_long_hex>
  106e74:	e9 e2 00 00 00       	jmp    106f5b <printk+0x4a7>
  106e79:	48 83 ad 18 ff ff ff 	subq   $0x1,-0xe8(%rbp)
  106e80:	01 
  106e81:	8b 85 20 ff ff ff    	mov    -0xe0(%rbp),%eax
  106e87:	83 f8 2f             	cmp    $0x2f,%eax
  106e8a:	77 23                	ja     106eaf <printk+0x3fb>
  106e8c:	48 8b 85 30 ff ff ff 	mov    -0xd0(%rbp),%rax
  106e93:	8b 95 20 ff ff ff    	mov    -0xe0(%rbp),%edx
  106e99:	89 d2                	mov    %edx,%edx
  106e9b:	48 01 d0             	add    %rdx,%rax
  106e9e:	8b 95 20 ff ff ff    	mov    -0xe0(%rbp),%edx
  106ea4:	83 c2 08             	add    $0x8,%edx
  106ea7:	89 95 20 ff ff ff    	mov    %edx,-0xe0(%rbp)
  106ead:	eb 12                	jmp    106ec1 <printk+0x40d>
  106eaf:	48 8b 85 28 ff ff ff 	mov    -0xd8(%rbp),%rax
  106eb6:	48 8d 50 08          	lea    0x8(%rax),%rdx
  106eba:	48 89 95 28 ff ff ff 	mov    %rdx,-0xd8(%rbp)
  106ec1:	48 8b 00             	mov    (%rax),%rax
  106ec4:	48 89 85 48 ff ff ff 	mov    %rax,-0xb8(%rbp)
  106ecb:	48 8b 85 48 ff ff ff 	mov    -0xb8(%rbp),%rax
  106ed2:	be 00 00 00 00       	mov    $0x0,%esi
  106ed7:	48 89 c7             	mov    %rax,%rdi
  106eda:	e8 70 03 00 00       	call   10724f <print_long_hex>
  106edf:	eb 7a                	jmp    106f5b <printk+0x4a7>
  106ee1:	8b 85 20 ff ff ff    	mov    -0xe0(%rbp),%eax
  106ee7:	83 f8 2f             	cmp    $0x2f,%eax
  106eea:	77 23                	ja     106f0f <printk+0x45b>
  106eec:	48 8b 85 30 ff ff ff 	mov    -0xd0(%rbp),%rax
  106ef3:	8b 95 20 ff ff ff    	mov    -0xe0(%rbp),%edx
  106ef9:	89 d2                	mov    %edx,%edx
  106efb:	48 01 d0             	add    %rdx,%rax
  106efe:	8b 95 20 ff ff ff    	mov    -0xe0(%rbp),%edx
  106f04:	83 c2 08             	add    $0x8,%edx
  106f07:	89 95 20 ff ff ff    	mov    %edx,-0xe0(%rbp)
  106f0d:	eb 12                	jmp    106f21 <printk+0x46d>
  106f0f:	48 8b 85 28 ff ff ff 	mov    -0xd8(%rbp),%rax
  106f16:	48 8d 50 08          	lea    0x8(%rax),%rdx
  106f1a:	48 89 95 28 ff ff ff 	mov    %rdx,-0xd8(%rbp)
  106f21:	48 8b 00             	mov    (%rax),%rax
  106f24:	be 01 00 00 00       	mov    $0x1,%esi
  106f29:	48 89 c7             	mov    %rax,%rdi
  106f2c:	e8 1e 03 00 00       	call   10724f <print_long_hex>
  106f31:	eb 28                	jmp    106f5b <printk+0x4a7>
  106f33:	48 8b 85 18 ff ff ff 	mov    -0xe8(%rbp),%rax
  106f3a:	0f b6 00             	movzbl (%rax),%eax
  106f3d:	0f be c0             	movsbl %al,%eax
  106f40:	89 c7                	mov    %eax,%edi
  106f42:	e8 61 05 00 00       	call   1074a8 <VGA_display_char>
  106f47:	48 8b 85 18 ff ff ff 	mov    -0xe8(%rbp),%rax
  106f4e:	be 01 00 00 00       	mov    $0x1,%esi
  106f53:	48 89 c7             	mov    %rax,%rdi
  106f56:	e8 c5 fa ff ff       	call   106a20 <SER_write>
  106f5b:	48 83 85 18 ff ff ff 	addq   $0x1,-0xe8(%rbp)
  106f62:	01 
  106f63:	48 8b 85 18 ff ff ff 	mov    -0xe8(%rbp),%rax
  106f6a:	0f b6 00             	movzbl (%rax),%eax
  106f6d:	84 c0                	test   %al,%al
  106f6f:	0f 85 ca fb ff ff    	jne    106b3f <printk+0x8b>
  106f75:	b8 00 00 00 00       	mov    $0x0,%eax
  106f7a:	c9                   	leave
  106f7b:	c3                   	ret

0000000000106f7c <print_char>:
  106f7c:	55                   	push   %rbp
  106f7d:	48 89 e5             	mov    %rsp,%rbp
  106f80:	48 83 ec 10          	sub    $0x10,%rsp
  106f84:	89 f8                	mov    %edi,%eax
  106f86:	88 45 fc             	mov    %al,-0x4(%rbp)
  106f89:	80 7d fc 00          	cmpb   $0x0,-0x4(%rbp)
  106f8d:	79 0a                	jns    106f99 <print_char+0x1d>
  106f8f:	bf 2d 00 00 00       	mov    $0x2d,%edi
  106f94:	e8 e3 ff ff ff       	call   106f7c <print_char>
  106f99:	0f b6 45 fc          	movzbl -0x4(%rbp),%eax
  106f9d:	0f b6 c0             	movzbl %al,%eax
  106fa0:	89 c7                	mov    %eax,%edi
  106fa2:	e8 5d 00 00 00       	call   107004 <print_uchar>
  106fa7:	90                   	nop
  106fa8:	c9                   	leave
  106fa9:	c3                   	ret

0000000000106faa <print_str>:
  106faa:	55                   	push   %rbp
  106fab:	48 89 e5             	mov    %rsp,%rbp
  106fae:	48 83 ec 20          	sub    $0x20,%rsp
  106fb2:	48 89 7d e8          	mov    %rdi,-0x18(%rbp)
  106fb6:	48 8b 45 e8          	mov    -0x18(%rbp),%rax
  106fba:	48 89 c7             	mov    %rax,%rdi
  106fbd:	e8 a5 06 00 00       	call   107667 <VGA_display_str>
  106fc2:	48 8b 45 e8          	mov    -0x18(%rbp),%rax
  106fc6:	48 89 c7             	mov    %rax,%rdi
  106fc9:	e8 f1 03 00 00       	call   1073bf <strlen>
  106fce:	89 45 f8             	mov    %eax,-0x8(%rbp)
  106fd1:	c7 45 fc 00 00 00 00 	movl   $0x0,-0x4(%rbp)
  106fd8:	8b 45 f8             	mov    -0x8(%rbp),%eax
  106fdb:	2b 45 fc             	sub    -0x4(%rbp),%eax
  106fde:	8b 55 fc             	mov    -0x4(%rbp),%edx
  106fe1:	48 63 ca             	movslq %edx,%rcx
  106fe4:	48 8b 55 e8          	mov    -0x18(%rbp),%rdx
  106fe8:	48 01 ca             	add    %rcx,%rdx
  106feb:	89 c6                	mov    %eax,%esi
  106fed:	48 89 d7             	mov    %rdx,%rdi
  106ff0:	e8 2b fa ff ff       	call   106a20 <SER_write>
  106ff5:	01 45 fc             	add    %eax,-0x4(%rbp)
  106ff8:	8b 45 fc             	mov    -0x4(%rbp),%eax
  106ffb:	3b 45 f8             	cmp    -0x8(%rbp),%eax
  106ffe:	75 d8                	jne    106fd8 <print_str+0x2e>
  107000:	90                   	nop
  107001:	90                   	nop
  107002:	c9                   	leave
  107003:	c3                   	ret

0000000000107004 <print_uchar>:
  107004:	55                   	push   %rbp
  107005:	48 89 e5             	mov    %rsp,%rbp
  107008:	48 83 ec 10          	sub    $0x10,%rsp
  10700c:	89 f8                	mov    %edi,%eax
  10700e:	88 45 fc             	mov    %al,-0x4(%rbp)
  107011:	0f b6 45 fc          	movzbl -0x4(%rbp),%eax
  107015:	0f be c0             	movsbl %al,%eax
  107018:	89 c7                	mov    %eax,%edi
  10701a:	e8 89 04 00 00       	call   1074a8 <VGA_display_char>
  10701f:	48 8d 45 fc          	lea    -0x4(%rbp),%rax
  107023:	be 01 00 00 00       	mov    $0x1,%esi
  107028:	48 89 c7             	mov    %rax,%rdi
  10702b:	e8 f0 f9 ff ff       	call   106a20 <SER_write>
  107030:	90                   	nop
  107031:	c9                   	leave
  107032:	c3                   	ret

0000000000107033 <print_short>:
  107033:	55                   	push   %rbp
  107034:	48 89 e5             	mov    %rsp,%rbp
  107037:	48 83 ec 20          	sub    $0x20,%rsp
  10703b:	89 fa                	mov    %edi,%edx
  10703d:	89 f0                	mov    %esi,%eax
  10703f:	66 89 55 ec          	mov    %dx,-0x14(%rbp)
  107043:	88 45 e8             	mov    %al,-0x18(%rbp)
  107046:	c7 45 f2 00 00 00 00 	movl   $0x0,-0xe(%rbp)
  10704d:	c6 45 f6 00          	movb   $0x0,-0xa(%rbp)
  107051:	c7 45 fc 00 00 00 00 	movl   $0x0,-0x4(%rbp)
  107058:	80 7d e8 00          	cmpb   $0x0,-0x18(%rbp)
  10705c:	0f 84 85 00 00 00    	je     1070e7 <print_short+0xb4>
  107062:	66 83 7d ec 00       	cmpw   $0x0,-0x14(%rbp)
  107067:	79 7e                	jns    1070e7 <print_short+0xb4>
  107069:	bf 2d 00 00 00       	mov    $0x2d,%edi
  10706e:	e8 09 ff ff ff       	call   106f7c <print_char>
  107073:	0f b7 45 ec          	movzwl -0x14(%rbp),%eax
  107077:	f7 d8                	neg    %eax
  107079:	66 89 45 ec          	mov    %ax,-0x14(%rbp)
  10707d:	eb 68                	jmp    1070e7 <print_short+0xb4>
  10707f:	0f b7 55 ec          	movzwl -0x14(%rbp),%edx
  107083:	0f bf c2             	movswl %dx,%eax
  107086:	69 c0 67 66 00 00    	imul   $0x6667,%eax,%eax
  10708c:	c1 e8 10             	shr    $0x10,%eax
  10708f:	66 c1 f8 02          	sar    $0x2,%ax
  107093:	89 d6                	mov    %edx,%esi
  107095:	66 c1 fe 0f          	sar    $0xf,%si
  107099:	29 f0                	sub    %esi,%eax
  10709b:	89 c1                	mov    %eax,%ecx
  10709d:	89 c8                	mov    %ecx,%eax
  10709f:	c1 e0 02             	shl    $0x2,%eax
  1070a2:	01 c8                	add    %ecx,%eax
  1070a4:	01 c0                	add    %eax,%eax
  1070a6:	89 d1                	mov    %edx,%ecx
  1070a8:	29 c1                	sub    %eax,%ecx
  1070aa:	88 4d f7             	mov    %cl,-0x9(%rbp)
  1070ad:	0f b6 45 f7          	movzbl -0x9(%rbp),%eax
  1070b1:	8d 48 30             	lea    0x30(%rax),%ecx
  1070b4:	8b 45 fc             	mov    -0x4(%rbp),%eax
  1070b7:	8d 50 01             	lea    0x1(%rax),%edx
  1070ba:	89 55 fc             	mov    %edx,-0x4(%rbp)
  1070bd:	89 ca                	mov    %ecx,%edx
  1070bf:	48 98                	cltq
  1070c1:	88 54 05 f2          	mov    %dl,-0xe(%rbp,%rax,1)
  1070c5:	0f b7 45 ec          	movzwl -0x14(%rbp),%eax
  1070c9:	0f bf d0             	movswl %ax,%edx
  1070cc:	69 d2 67 66 00 00    	imul   $0x6667,%edx,%edx
  1070d2:	c1 ea 10             	shr    $0x10,%edx
  1070d5:	66 c1 fa 02          	sar    $0x2,%dx
  1070d9:	66 c1 f8 0f          	sar    $0xf,%ax
  1070dd:	89 c1                	mov    %eax,%ecx
  1070df:	89 d0                	mov    %edx,%eax
  1070e1:	29 c8                	sub    %ecx,%eax
  1070e3:	66 89 45 ec          	mov    %ax,-0x14(%rbp)
  1070e7:	66 83 7d ec 00       	cmpw   $0x0,-0x14(%rbp)
  1070ec:	7f 91                	jg     10707f <print_short+0x4c>
  1070ee:	c7 45 f8 00 00 00 00 	movl   $0x0,-0x8(%rbp)
  1070f5:	c7 45 fc 04 00 00 00 	movl   $0x4,-0x4(%rbp)
  1070fc:	eb 33                	jmp    107131 <print_short+0xfe>
  1070fe:	8b 45 fc             	mov    -0x4(%rbp),%eax
  107101:	48 98                	cltq
  107103:	0f b6 44 05 f2       	movzbl -0xe(%rbp,%rax,1),%eax
  107108:	84 c0                	test   %al,%al
  10710a:	74 07                	je     107113 <print_short+0xe0>
  10710c:	c7 45 f8 01 00 00 00 	movl   $0x1,-0x8(%rbp)
  107113:	83 7d f8 00          	cmpl   $0x0,-0x8(%rbp)
  107117:	74 14                	je     10712d <print_short+0xfa>
  107119:	8b 45 fc             	mov    -0x4(%rbp),%eax
  10711c:	48 98                	cltq
  10711e:	0f b6 44 05 f2       	movzbl -0xe(%rbp,%rax,1),%eax
  107123:	0f be c0             	movsbl %al,%eax
  107126:	89 c7                	mov    %eax,%edi
  107128:	e8 4f fe ff ff       	call   106f7c <print_char>
  10712d:	83 6d fc 01          	subl   $0x1,-0x4(%rbp)
  107131:	83 7d fc 00          	cmpl   $0x0,-0x4(%rbp)
  107135:	79 c7                	jns    1070fe <print_short+0xcb>
  107137:	83 7d f8 00          	cmpl   $0x0,-0x8(%rbp)
  10713b:	75 0a                	jne    107147 <print_short+0x114>
  10713d:	bf 30 00 00 00       	mov    $0x30,%edi
  107142:	e8 35 fe ff ff       	call   106f7c <print_char>
  107147:	90                   	nop
  107148:	c9                   	leave
  107149:	c3                   	ret

000000000010714a <print_int>:
  10714a:	55                   	push   %rbp
  10714b:	48 89 e5             	mov    %rsp,%rbp
  10714e:	48 83 ec 30          	sub    $0x30,%rsp
  107152:	89 7d dc             	mov    %edi,-0x24(%rbp)
  107155:	89 f0                	mov    %esi,%eax
  107157:	88 45 d8             	mov    %al,-0x28(%rbp)
  10715a:	48 c7 45 ed 00 00 00 	movq   $0x0,-0x13(%rbp)
  107161:	00 
  107162:	66 c7 45 f5 00 00    	movw   $0x0,-0xb(%rbp)
  107168:	c7 45 fc 00 00 00 00 	movl   $0x0,-0x4(%rbp)
  10716f:	80 7d d8 00          	cmpb   $0x0,-0x28(%rbp)
  107173:	74 78                	je     1071ed <print_int+0xa3>
  107175:	83 7d dc 00          	cmpl   $0x0,-0x24(%rbp)
  107179:	79 72                	jns    1071ed <print_int+0xa3>
  10717b:	bf 2d 00 00 00       	mov    $0x2d,%edi
  107180:	e8 f7 fd ff ff       	call   106f7c <print_char>
  107185:	f7 5d dc             	negl   -0x24(%rbp)
  107188:	eb 63                	jmp    1071ed <print_int+0xa3>
  10718a:	8b 4d dc             	mov    -0x24(%rbp),%ecx
  10718d:	48 63 c1             	movslq %ecx,%rax
  107190:	48 69 c0 67 66 66 66 	imul   $0x66666667,%rax,%rax
  107197:	48 c1 e8 20          	shr    $0x20,%rax
  10719b:	89 c2                	mov    %eax,%edx
  10719d:	c1 fa 02             	sar    $0x2,%edx
  1071a0:	89 c8                	mov    %ecx,%eax
  1071a2:	c1 f8 1f             	sar    $0x1f,%eax
  1071a5:	29 c2                	sub    %eax,%edx
  1071a7:	89 d0                	mov    %edx,%eax
  1071a9:	c1 e0 02             	shl    $0x2,%eax
  1071ac:	01 d0                	add    %edx,%eax
  1071ae:	01 c0                	add    %eax,%eax
  1071b0:	29 c1                	sub    %eax,%ecx
  1071b2:	89 ca                	mov    %ecx,%edx
  1071b4:	88 55 f7             	mov    %dl,-0x9(%rbp)
  1071b7:	0f b6 45 f7          	movzbl -0x9(%rbp),%eax
  1071bb:	8d 48 30             	lea    0x30(%rax),%ecx
  1071be:	8b 45 fc             	mov    -0x4(%rbp),%eax
  1071c1:	8d 50 01             	lea    0x1(%rax),%edx
  1071c4:	89 55 fc             	mov    %edx,-0x4(%rbp)
  1071c7:	89 ca                	mov    %ecx,%edx
  1071c9:	48 98                	cltq
  1071cb:	88 54 05 ed          	mov    %dl,-0x13(%rbp,%rax,1)
  1071cf:	8b 45 dc             	mov    -0x24(%rbp),%eax
  1071d2:	48 63 d0             	movslq %eax,%rdx
  1071d5:	48 69 d2 67 66 66 66 	imul   $0x66666667,%rdx,%rdx
  1071dc:	48 c1 ea 20          	shr    $0x20,%rdx
  1071e0:	89 d1                	mov    %edx,%ecx
  1071e2:	c1 f9 02             	sar    $0x2,%ecx
  1071e5:	99                   	cltd
  1071e6:	89 c8                	mov    %ecx,%eax
  1071e8:	29 d0                	sub    %edx,%eax
  1071ea:	89 45 dc             	mov    %eax,-0x24(%rbp)
  1071ed:	83 7d dc 00          	cmpl   $0x0,-0x24(%rbp)
  1071f1:	7f 97                	jg     10718a <print_int+0x40>
  1071f3:	c7 45 f8 00 00 00 00 	movl   $0x0,-0x8(%rbp)
  1071fa:	c7 45 fc 09 00 00 00 	movl   $0x9,-0x4(%rbp)
  107201:	eb 33                	jmp    107236 <print_int+0xec>
  107203:	8b 45 fc             	mov    -0x4(%rbp),%eax
  107206:	48 98                	cltq
  107208:	0f b6 44 05 ed       	movzbl -0x13(%rbp,%rax,1),%eax
  10720d:	84 c0                	test   %al,%al
  10720f:	74 07                	je     107218 <print_int+0xce>
  107211:	c7 45 f8 01 00 00 00 	movl   $0x1,-0x8(%rbp)
  107218:	83 7d f8 00          	cmpl   $0x0,-0x8(%rbp)
  10721c:	74 14                	je     107232 <print_int+0xe8>
  10721e:	8b 45 fc             	mov    -0x4(%rbp),%eax
  107221:	48 98                	cltq
  107223:	0f b6 44 05 ed       	movzbl -0x13(%rbp,%rax,1),%eax
  107228:	0f be c0             	movsbl %al,%eax
  10722b:	89 c7                	mov    %eax,%edi
  10722d:	e8 4a fd ff ff       	call   106f7c <print_char>
  107232:	83 6d fc 01          	subl   $0x1,-0x4(%rbp)
  107236:	83 7d fc 00          	cmpl   $0x0,-0x4(%rbp)
  10723a:	79 c7                	jns    107203 <print_int+0xb9>
  10723c:	83 7d f8 00          	cmpl   $0x0,-0x8(%rbp)
  107240:	75 0a                	jne    10724c <print_int+0x102>
  107242:	bf 30 00 00 00       	mov    $0x30,%edi
  107247:	e8 30 fd ff ff       	call   106f7c <print_char>
  10724c:	90                   	nop
  10724d:	c9                   	leave
  10724e:	c3                   	ret

000000000010724f <print_long_hex>:
  10724f:	55                   	push   %rbp
  107250:	48 89 e5             	mov    %rsp,%rbp
  107253:	48 83 ec 20          	sub    $0x20,%rsp
  107257:	48 89 7d e8          	mov    %rdi,-0x18(%rbp)
  10725b:	89 f0                	mov    %esi,%eax
  10725d:	88 45 e4             	mov    %al,-0x1c(%rbp)
  107260:	80 7d e4 00          	cmpb   $0x0,-0x1c(%rbp)
  107264:	74 06                	je     10726c <print_long_hex+0x1d>
  107266:	c6 45 fb 10          	movb   $0x10,-0x5(%rbp)
  10726a:	eb 04                	jmp    107270 <print_long_hex+0x21>
  10726c:	c6 45 fb 08          	movb   $0x8,-0x5(%rbp)
  107270:	bf 68 0d 10 00       	mov    $0x100d68,%edi
  107275:	e8 30 fd ff ff       	call   106faa <print_str>
  10727a:	c7 45 fc 00 00 00 00 	movl   $0x0,-0x4(%rbp)
  107281:	eb 5d                	jmp    1072e0 <print_long_hex+0x91>
  107283:	0f be 45 fb          	movsbl -0x5(%rbp),%eax
  107287:	2b 45 fc             	sub    -0x4(%rbp),%eax
  10728a:	83 e8 01             	sub    $0x1,%eax
  10728d:	c1 e0 02             	shl    $0x2,%eax
  107290:	89 45 f4             	mov    %eax,-0xc(%rbp)
  107293:	8b 45 f4             	mov    -0xc(%rbp),%eax
  107296:	48 8b 55 e8          	mov    -0x18(%rbp),%rdx
  10729a:	89 c1                	mov    %eax,%ecx
  10729c:	48 d3 fa             	sar    %cl,%rdx
  10729f:	48 89 d0             	mov    %rdx,%rax
  1072a2:	83 e0 0f             	and    $0xf,%eax
  1072a5:	88 45 f3             	mov    %al,-0xd(%rbp)
  1072a8:	80 7d f3 09          	cmpb   $0x9,-0xd(%rbp)
  1072ac:	7f 13                	jg     1072c1 <print_long_hex+0x72>
  1072ae:	0f b6 45 f3          	movzbl -0xd(%rbp),%eax
  1072b2:	83 c0 30             	add    $0x30,%eax
  1072b5:	0f be c0             	movsbl %al,%eax
  1072b8:	89 c7                	mov    %eax,%edi
  1072ba:	e8 bd fc ff ff       	call   106f7c <print_char>
  1072bf:	eb 1b                	jmp    1072dc <print_long_hex+0x8d>
  1072c1:	0f b6 45 f3          	movzbl -0xd(%rbp),%eax
  1072c5:	83 e8 0a             	sub    $0xa,%eax
  1072c8:	88 45 f3             	mov    %al,-0xd(%rbp)
  1072cb:	0f b6 45 f3          	movzbl -0xd(%rbp),%eax
  1072cf:	83 c0 41             	add    $0x41,%eax
  1072d2:	0f be c0             	movsbl %al,%eax
  1072d5:	89 c7                	mov    %eax,%edi
  1072d7:	e8 a0 fc ff ff       	call   106f7c <print_char>
  1072dc:	83 45 fc 01          	addl   $0x1,-0x4(%rbp)
  1072e0:	0f be 45 fb          	movsbl -0x5(%rbp),%eax
  1072e4:	39 45 fc             	cmp    %eax,-0x4(%rbp)
  1072e7:	7c 9a                	jl     107283 <print_long_hex+0x34>
  1072e9:	90                   	nop
  1072ea:	90                   	nop
  1072eb:	c9                   	leave
  1072ec:	c3                   	ret

00000000001072ed <outb>:
  1072ed:	55                   	push   %rbp
  1072ee:	48 89 e5             	mov    %rsp,%rbp
  1072f1:	89 fa                	mov    %edi,%edx
  1072f3:	89 f0                	mov    %esi,%eax
  1072f5:	66 89 55 fc          	mov    %dx,-0x4(%rbp)
  1072f9:	88 45 f8             	mov    %al,-0x8(%rbp)
  1072fc:	0f b6 45 f8          	movzbl -0x8(%rbp),%eax
  107300:	0f b7 55 fc          	movzwl -0x4(%rbp),%edx
  107304:	ee                   	out    %al,(%dx)
  107305:	90                   	nop
  107306:	5d                   	pop    %rbp
  107307:	c3                   	ret

0000000000107308 <inb>:
  107308:	55                   	push   %rbp
  107309:	48 89 e5             	mov    %rsp,%rbp
  10730c:	89 f8                	mov    %edi,%eax
  10730e:	66 89 45 ec          	mov    %ax,-0x14(%rbp)
  107312:	0f b7 45 ec          	movzwl -0x14(%rbp),%eax
  107316:	89 c2                	mov    %eax,%edx
  107318:	ec                   	in     (%dx),%al
  107319:	88 45 ff             	mov    %al,-0x1(%rbp)
  10731c:	0f b6 45 ff          	movzbl -0x1(%rbp),%eax
  107320:	5d                   	pop    %rbp
  107321:	c3                   	ret

0000000000107322 <memset>:
  107322:	55                   	push   %rbp
  107323:	48 89 e5             	mov    %rsp,%rbp
  107326:	48 89 7d e8          	mov    %rdi,-0x18(%rbp)
  10732a:	89 75 e4             	mov    %esi,-0x1c(%rbp)
  10732d:	48 89 55 d8          	mov    %rdx,-0x28(%rbp)
  107331:	48 8b 45 e8          	mov    -0x18(%rbp),%rax
  107335:	48 89 45 f0          	mov    %rax,-0x10(%rbp)
  107339:	c7 45 fc 00 00 00 00 	movl   $0x0,-0x4(%rbp)
  107340:	eb 16                	jmp    107358 <memset+0x36>
  107342:	8b 45 fc             	mov    -0x4(%rbp),%eax
  107345:	48 63 d0             	movslq %eax,%rdx
  107348:	48 8b 45 f0          	mov    -0x10(%rbp),%rax
  10734c:	48 01 d0             	add    %rdx,%rax
  10734f:	8b 55 e4             	mov    -0x1c(%rbp),%edx
  107352:	88 10                	mov    %dl,(%rax)
  107354:	83 45 fc 01          	addl   $0x1,-0x4(%rbp)
  107358:	8b 45 fc             	mov    -0x4(%rbp),%eax
  10735b:	48 98                	cltq
  10735d:	48 3b 45 d8          	cmp    -0x28(%rbp),%rax
  107361:	72 df                	jb     107342 <memset+0x20>
  107363:	48 8b 45 e8          	mov    -0x18(%rbp),%rax
  107367:	5d                   	pop    %rbp
  107368:	c3                   	ret

0000000000107369 <memcpy>:
  107369:	55                   	push   %rbp
  10736a:	48 89 e5             	mov    %rsp,%rbp
  10736d:	48 89 7d e8          	mov    %rdi,-0x18(%rbp)
  107371:	48 89 75 e0          	mov    %rsi,-0x20(%rbp)
  107375:	48 89 55 d8          	mov    %rdx,-0x28(%rbp)
  107379:	48 8b 45 e8          	mov    -0x18(%rbp),%rax
  10737d:	48 89 45 f8          	mov    %rax,-0x8(%rbp)
  107381:	48 8b 45 e0          	mov    -0x20(%rbp),%rax
  107385:	48 89 45 f0          	mov    %rax,-0x10(%rbp)
  107389:	eb 1d                	jmp    1073a8 <memcpy+0x3f>
  10738b:	48 8b 55 f0          	mov    -0x10(%rbp),%rdx
  10738f:	48 8d 42 01          	lea    0x1(%rdx),%rax
  107393:	48 89 45 f0          	mov    %rax,-0x10(%rbp)
  107397:	48 8b 45 f8          	mov    -0x8(%rbp),%rax
  10739b:	48 8d 48 01          	lea    0x1(%rax),%rcx
  10739f:	48 89 4d f8          	mov    %rcx,-0x8(%rbp)
  1073a3:	0f b6 12             	movzbl (%rdx),%edx
  1073a6:	88 10                	mov    %dl,(%rax)
  1073a8:	48 8b 45 d8          	mov    -0x28(%rbp),%rax
  1073ac:	48 8d 50 ff          	lea    -0x1(%rax),%rdx
  1073b0:	48 89 55 d8          	mov    %rdx,-0x28(%rbp)
  1073b4:	48 85 c0             	test   %rax,%rax
  1073b7:	75 d2                	jne    10738b <memcpy+0x22>
  1073b9:	48 8b 45 e8          	mov    -0x18(%rbp),%rax
  1073bd:	5d                   	pop    %rbp
  1073be:	c3                   	ret

00000000001073bf <strlen>:
  1073bf:	55                   	push   %rbp
  1073c0:	48 89 e5             	mov    %rsp,%rbp
  1073c3:	48 89 7d e8          	mov    %rdi,-0x18(%rbp)
  1073c7:	48 c7 45 f8 00 00 00 	movq   $0x0,-0x8(%rbp)
  1073ce:	00 
  1073cf:	90                   	nop
  1073d0:	48 83 45 f8 01       	addq   $0x1,-0x8(%rbp)
  1073d5:	48 8b 55 e8          	mov    -0x18(%rbp),%rdx
  1073d9:	48 8b 45 f8          	mov    -0x8(%rbp),%rax
  1073dd:	48 01 d0             	add    %rdx,%rax
  1073e0:	0f b6 00             	movzbl (%rax),%eax
  1073e3:	84 c0                	test   %al,%al
  1073e5:	75 e9                	jne    1073d0 <strlen+0x11>
  1073e7:	48 8b 45 f8          	mov    -0x8(%rbp),%rax
  1073eb:	5d                   	pop    %rbp
  1073ec:	c3                   	ret

00000000001073ed <strcpy>:
  1073ed:	55                   	push   %rbp
  1073ee:	48 89 e5             	mov    %rsp,%rbp
  1073f1:	48 83 ec 10          	sub    $0x10,%rsp
  1073f5:	48 89 7d f8          	mov    %rdi,-0x8(%rbp)
  1073f9:	48 89 75 f0          	mov    %rsi,-0x10(%rbp)
  1073fd:	48 8b 45 f0          	mov    -0x10(%rbp),%rax
  107401:	48 89 c7             	mov    %rax,%rdi
  107404:	e8 b6 ff ff ff       	call   1073bf <strlen>
  107409:	48 89 c2             	mov    %rax,%rdx
  10740c:	48 8b 4d f0          	mov    -0x10(%rbp),%rcx
  107410:	48 8b 45 f8          	mov    -0x8(%rbp),%rax
  107414:	48 89 ce             	mov    %rcx,%rsi
  107417:	48 89 c7             	mov    %rax,%rdi
  10741a:	e8 4a ff ff ff       	call   107369 <memcpy>
  10741f:	c9                   	leave
  107420:	c3                   	ret

0000000000107421 <strcmp>:
  107421:	55                   	push   %rbp
  107422:	48 89 e5             	mov    %rsp,%rbp
  107425:	48 89 7d f8          	mov    %rdi,-0x8(%rbp)
  107429:	48 89 75 f0          	mov    %rsi,-0x10(%rbp)
  10742d:	eb 0a                	jmp    107439 <strcmp+0x18>
  10742f:	48 83 45 f8 01       	addq   $0x1,-0x8(%rbp)
  107434:	48 83 45 f0 01       	addq   $0x1,-0x10(%rbp)
  107439:	48 8b 45 f8          	mov    -0x8(%rbp),%rax
  10743d:	0f b6 00             	movzbl (%rax),%eax
  107440:	84 c0                	test   %al,%al
  107442:	74 12                	je     107456 <strcmp+0x35>
  107444:	48 8b 45 f8          	mov    -0x8(%rbp),%rax
  107448:	0f b6 10             	movzbl (%rax),%edx
  10744b:	48 8b 45 f0          	mov    -0x10(%rbp),%rax
  10744f:	0f b6 00             	movzbl (%rax),%eax
  107452:	38 c2                	cmp    %al,%dl
  107454:	74 d9                	je     10742f <strcmp+0xe>
  107456:	48 8b 45 f8          	mov    -0x8(%rbp),%rax
  10745a:	0f b6 00             	movzbl (%rax),%eax
  10745d:	0f be d0             	movsbl %al,%edx
  107460:	48 8b 45 f0          	mov    -0x10(%rbp),%rax
  107464:	0f b6 00             	movzbl (%rax),%eax
  107467:	0f be c0             	movsbl %al,%eax
  10746a:	29 c2                	sub    %eax,%edx
  10746c:	89 d0                	mov    %edx,%eax
  10746e:	5d                   	pop    %rbp
  10746f:	c3                   	ret

0000000000107470 <strchr>:
  107470:	55                   	push   %rbp
  107471:	48 89 e5             	mov    %rsp,%rbp
  107474:	48 89 7d f8          	mov    %rdi,-0x8(%rbp)
  107478:	89 75 f4             	mov    %esi,-0xc(%rbp)
  10747b:	eb 1a                	jmp    107497 <strchr+0x27>
  10747d:	48 8b 45 f8          	mov    -0x8(%rbp),%rax
  107481:	0f b6 00             	movzbl (%rax),%eax
  107484:	0f be c0             	movsbl %al,%eax
  107487:	39 45 f4             	cmp    %eax,-0xc(%rbp)
  10748a:	75 06                	jne    107492 <strchr+0x22>
  10748c:	48 8b 45 f8          	mov    -0x8(%rbp),%rax
  107490:	eb 14                	jmp    1074a6 <strchr+0x36>
  107492:	48 83 45 f8 01       	addq   $0x1,-0x8(%rbp)
  107497:	48 8b 45 f8          	mov    -0x8(%rbp),%rax
  10749b:	0f b6 00             	movzbl (%rax),%eax
  10749e:	84 c0                	test   %al,%al
  1074a0:	75 db                	jne    10747d <strchr+0xd>
  1074a2:	48 8b 45 f8          	mov    -0x8(%rbp),%rax
  1074a6:	5d                   	pop    %rbp
  1074a7:	c3                   	ret

00000000001074a8 <VGA_display_char>:
  1074a8:	55                   	push   %rbp
  1074a9:	48 89 e5             	mov    %rsp,%rbp
  1074ac:	48 83 ec 20          	sub    $0x20,%rsp
  1074b0:	89 f8                	mov    %edi,%eax
  1074b2:	88 45 ec             	mov    %al,-0x14(%rbp)
  1074b5:	c6 45 ff 00          	movb   $0x0,-0x1(%rbp)
  1074b9:	b8 00 00 00 00       	mov    $0x0,%eax
  1074be:	e8 af b5 ff ff       	call   102a72 <are_interrupts_enabled>
  1074c3:	84 c0                	test   %al,%al
  1074c5:	74 0e                	je     1074d5 <VGA_display_char+0x2d>
  1074c7:	c6 45 ff 01          	movb   $0x1,-0x1(%rbp)
  1074cb:	b8 00 00 00 00       	mov    $0x0,%eax
  1074d0:	e8 7f b5 ff ff       	call   102a54 <CLI>
  1074d5:	80 7d ec 0a          	cmpb   $0xa,-0x14(%rbp)
  1074d9:	75 55                	jne    107530 <VGA_display_char+0x88>
  1074db:	8b 05 df 7c 00 00    	mov    0x7cdf(%rip),%eax        # 10f1c0 <cursor>
  1074e1:	48 63 d0             	movslq %eax,%rdx
  1074e4:	48 69 d2 67 66 66 66 	imul   $0x66666667,%rdx,%rdx
  1074eb:	48 c1 ea 20          	shr    $0x20,%rdx
  1074ef:	c1 fa 05             	sar    $0x5,%edx
  1074f2:	c1 f8 1f             	sar    $0x1f,%eax
  1074f5:	29 c2                	sub    %eax,%edx
  1074f7:	83 c2 01             	add    $0x1,%edx
  1074fa:	8b 05 a0 02 00 00    	mov    0x2a0(%rip),%eax        # 1077a0 <width>
  107500:	0f af c2             	imul   %edx,%eax
  107503:	89 05 b7 7c 00 00    	mov    %eax,0x7cb7(%rip)        # 10f1c0 <cursor>
  107509:	8b 15 91 02 00 00    	mov    0x291(%rip),%edx        # 1077a0 <width>
  10750f:	8b 05 8f 02 00 00    	mov    0x28f(%rip),%eax        # 1077a4 <height>
  107515:	0f af d0             	imul   %eax,%edx
  107518:	8b 05 a2 7c 00 00    	mov    0x7ca2(%rip),%eax        # 10f1c0 <cursor>
  10751e:	39 c2                	cmp    %eax,%edx
  107520:	0f 8f e4 00 00 00    	jg     10760a <VGA_display_char+0x162>
  107526:	e8 8f 01 00 00       	call   1076ba <scroll>
  10752b:	e9 da 00 00 00       	jmp    10760a <VGA_display_char+0x162>
  107530:	80 7d ec 0d          	cmpb   $0xd,-0x14(%rbp)
  107534:	75 29                	jne    10755f <VGA_display_char+0xb7>
  107536:	8b 05 84 7c 00 00    	mov    0x7c84(%rip),%eax        # 10f1c0 <cursor>
  10753c:	48 63 d0             	movslq %eax,%rdx
  10753f:	48 69 d2 67 66 66 66 	imul   $0x66666667,%rdx,%rdx
  107546:	48 c1 ea 20          	shr    $0x20,%rdx
  10754a:	89 d1                	mov    %edx,%ecx
  10754c:	c1 f9 05             	sar    $0x5,%ecx
  10754f:	99                   	cltd
  107550:	89 c8                	mov    %ecx,%eax
  107552:	29 d0                	sub    %edx,%eax
  107554:	89 05 66 7c 00 00    	mov    %eax,0x7c66(%rip)        # 10f1c0 <cursor>
  10755a:	e9 ab 00 00 00       	jmp    10760a <VGA_display_char+0x162>
  10755f:	80 7d ec 08          	cmpb   $0x8,-0x14(%rbp)
  107563:	75 37                	jne    10759c <VGA_display_char+0xf4>
  107565:	8b 05 55 7c 00 00    	mov    0x7c55(%rip),%eax        # 10f1c0 <cursor>
  10756b:	83 e8 01             	sub    $0x1,%eax
  10756e:	89 05 4c 7c 00 00    	mov    %eax,0x7c4c(%rip)        # 10f1c0 <cursor>
  107574:	0f b6 05 2d 02 00 00 	movzbl 0x22d(%rip),%eax        # 1077a8 <color>
  10757b:	0f b6 d0             	movzbl %al,%edx
  10757e:	48 8b 05 13 02 00 00 	mov    0x213(%rip),%rax        # 107798 <vgaBuff>
  107585:	8b 0d 35 7c 00 00    	mov    0x7c35(%rip),%ecx        # 10f1c0 <cursor>
  10758b:	48 63 c9             	movslq %ecx,%rcx
  10758e:	48 01 c9             	add    %rcx,%rcx
  107591:	48 01 c8             	add    %rcx,%rax
  107594:	c1 e2 08             	shl    $0x8,%edx
  107597:	66 89 10             	mov    %dx,(%rax)
  10759a:	eb 6e                	jmp    10760a <VGA_display_char+0x162>
  10759c:	0f b6 05 05 02 00 00 	movzbl 0x205(%rip),%eax        # 1077a8 <color>
  1075a3:	0f b6 c0             	movzbl %al,%eax
  1075a6:	c1 e0 08             	shl    $0x8,%eax
  1075a9:	89 c2                	mov    %eax,%edx
  1075ab:	66 0f be 45 ec       	movsbw -0x14(%rbp),%ax
  1075b0:	89 d1                	mov    %edx,%ecx
  1075b2:	09 c1                	or     %eax,%ecx
  1075b4:	48 8b 05 dd 01 00 00 	mov    0x1dd(%rip),%rax        # 107798 <vgaBuff>
  1075bb:	8b 15 ff 7b 00 00    	mov    0x7bff(%rip),%edx        # 10f1c0 <cursor>
  1075c1:	48 63 d2             	movslq %edx,%rdx
  1075c4:	48 01 d2             	add    %rdx,%rdx
  1075c7:	48 01 d0             	add    %rdx,%rax
  1075ca:	89 ca                	mov    %ecx,%edx
  1075cc:	66 89 10             	mov    %dx,(%rax)
  1075cf:	8b 05 eb 7b 00 00    	mov    0x7beb(%rip),%eax        # 10f1c0 <cursor>
  1075d5:	8b 35 c5 01 00 00    	mov    0x1c5(%rip),%esi        # 1077a0 <width>
  1075db:	99                   	cltd
  1075dc:	f7 fe                	idiv   %esi
  1075de:	89 d1                	mov    %edx,%ecx
  1075e0:	89 ca                	mov    %ecx,%edx
  1075e2:	8b 05 b8 01 00 00    	mov    0x1b8(%rip),%eax        # 1077a0 <width>
  1075e8:	83 e8 01             	sub    $0x1,%eax
  1075eb:	39 c2                	cmp    %eax,%edx
  1075ed:	7d 11                	jge    107600 <VGA_display_char+0x158>
  1075ef:	8b 05 cb 7b 00 00    	mov    0x7bcb(%rip),%eax        # 10f1c0 <cursor>
  1075f5:	83 c0 01             	add    $0x1,%eax
  1075f8:	89 05 c2 7b 00 00    	mov    %eax,0x7bc2(%rip)        # 10f1c0 <cursor>
  1075fe:	eb 0a                	jmp    10760a <VGA_display_char+0x162>
  107600:	bf 0a 00 00 00       	mov    $0xa,%edi
  107605:	e8 9e fe ff ff       	call   1074a8 <VGA_display_char>
  10760a:	80 7d ff 01          	cmpb   $0x1,-0x1(%rbp)
  10760e:	75 0a                	jne    10761a <VGA_display_char+0x172>
  107610:	b8 00 00 00 00       	mov    $0x0,%eax
  107615:	e8 49 b4 ff ff       	call   102a63 <STI>
  10761a:	90                   	nop
  10761b:	c9                   	leave
  10761c:	c3                   	ret

000000000010761d <VGA_clear>:
  10761d:	55                   	push   %rbp
  10761e:	48 89 e5             	mov    %rsp,%rbp
  107621:	c7 45 fc 00 00 00 00 	movl   $0x0,-0x4(%rbp)
  107628:	eb 1c                	jmp    107646 <VGA_clear+0x29>
  10762a:	48 8b 05 67 01 00 00 	mov    0x167(%rip),%rax        # 107798 <vgaBuff>
  107631:	8b 55 fc             	mov    -0x4(%rbp),%edx
  107634:	48 63 d2             	movslq %edx,%rdx
  107637:	48 01 d2             	add    %rdx,%rdx
  10763a:	48 01 d0             	add    %rdx,%rax
  10763d:	66 c7 00 00 00       	movw   $0x0,(%rax)
  107642:	83 45 fc 01          	addl   $0x1,-0x4(%rbp)
  107646:	8b 15 54 01 00 00    	mov    0x154(%rip),%edx        # 1077a0 <width>
  10764c:	8b 05 52 01 00 00    	mov    0x152(%rip),%eax        # 1077a4 <height>
  107652:	0f af c2             	imul   %edx,%eax
  107655:	39 45 fc             	cmp    %eax,-0x4(%rbp)
  107658:	7c d0                	jl     10762a <VGA_clear+0xd>
  10765a:	c7 05 5c 7b 00 00 00 	movl   $0x0,0x7b5c(%rip)        # 10f1c0 <cursor>
  107661:	00 00 00 
  107664:	90                   	nop
  107665:	5d                   	pop    %rbp
  107666:	c3                   	ret

0000000000107667 <VGA_display_str>:
  107667:	55                   	push   %rbp
  107668:	48 89 e5             	mov    %rsp,%rbp
  10766b:	53                   	push   %rbx
  10766c:	48 83 ec 28          	sub    $0x28,%rsp
  107670:	48 89 7d d8          	mov    %rdi,-0x28(%rbp)
  107674:	c7 45 ec 00 00 00 00 	movl   $0x0,-0x14(%rbp)
  10767b:	eb 1e                	jmp    10769b <VGA_display_str+0x34>
  10767d:	8b 45 ec             	mov    -0x14(%rbp),%eax
  107680:	48 63 d0             	movslq %eax,%rdx
  107683:	48 8b 45 d8          	mov    -0x28(%rbp),%rax
  107687:	48 01 d0             	add    %rdx,%rax
  10768a:	0f b6 00             	movzbl (%rax),%eax
  10768d:	0f be c0             	movsbl %al,%eax
  107690:	89 c7                	mov    %eax,%edi
  107692:	e8 11 fe ff ff       	call   1074a8 <VGA_display_char>
  107697:	83 45 ec 01          	addl   $0x1,-0x14(%rbp)
  10769b:	8b 45 ec             	mov    -0x14(%rbp),%eax
  10769e:	48 63 d8             	movslq %eax,%rbx
  1076a1:	48 8b 45 d8          	mov    -0x28(%rbp),%rax
  1076a5:	48 89 c7             	mov    %rax,%rdi
  1076a8:	e8 12 fd ff ff       	call   1073bf <strlen>
  1076ad:	48 39 c3             	cmp    %rax,%rbx
  1076b0:	72 cb                	jb     10767d <VGA_display_str+0x16>
  1076b2:	90                   	nop
  1076b3:	90                   	nop
  1076b4:	48 8b 5d f8          	mov    -0x8(%rbp),%rbx
  1076b8:	c9                   	leave
  1076b9:	c3                   	ret

00000000001076ba <scroll>:
  1076ba:	55                   	push   %rbp
  1076bb:	48 89 e5             	mov    %rsp,%rbp
  1076be:	48 83 ec 10          	sub    $0x10,%rsp
  1076c2:	c7 45 fc 00 00 00 00 	movl   $0x0,-0x4(%rbp)
  1076c9:	eb 52                	jmp    10771d <scroll+0x63>
  1076cb:	8b 05 cf 00 00 00    	mov    0xcf(%rip),%eax        # 1077a0 <width>
  1076d1:	48 98                	cltq
  1076d3:	48 8d 14 00          	lea    (%rax,%rax,1),%rdx
  1076d7:	48 8b 0d ba 00 00 00 	mov    0xba(%rip),%rcx        # 107798 <vgaBuff>
  1076de:	8b 45 fc             	mov    -0x4(%rbp),%eax
  1076e1:	8d 70 01             	lea    0x1(%rax),%esi
  1076e4:	8b 05 b6 00 00 00    	mov    0xb6(%rip),%eax        # 1077a0 <width>
  1076ea:	0f af c6             	imul   %esi,%eax
  1076ed:	48 98                	cltq
  1076ef:	48 01 c0             	add    %rax,%rax
  1076f2:	48 01 c1             	add    %rax,%rcx
  1076f5:	48 8b 35 9c 00 00 00 	mov    0x9c(%rip),%rsi        # 107798 <vgaBuff>
  1076fc:	8b 05 9e 00 00 00    	mov    0x9e(%rip),%eax        # 1077a0 <width>
  107702:	0f af 45 fc          	imul   -0x4(%rbp),%eax
  107706:	48 98                	cltq
  107708:	48 01 c0             	add    %rax,%rax
  10770b:	48 01 f0             	add    %rsi,%rax
  10770e:	48 89 ce             	mov    %rcx,%rsi
  107711:	48 89 c7             	mov    %rax,%rdi
  107714:	e8 50 fc ff ff       	call   107369 <memcpy>
  107719:	83 45 fc 01          	addl   $0x1,-0x4(%rbp)
  10771d:	8b 05 81 00 00 00    	mov    0x81(%rip),%eax        # 1077a4 <height>
  107723:	83 e8 01             	sub    $0x1,%eax
  107726:	39 45 fc             	cmp    %eax,-0x4(%rbp)
  107729:	7c a0                	jl     1076cb <scroll+0x11>
  10772b:	8b 05 6f 00 00 00    	mov    0x6f(%rip),%eax        # 1077a0 <width>
  107731:	48 98                	cltq
  107733:	48 8d 14 00          	lea    (%rax,%rax,1),%rdx
  107737:	48 8b 0d 5a 00 00 00 	mov    0x5a(%rip),%rcx        # 107798 <vgaBuff>
  10773e:	8b 05 60 00 00 00    	mov    0x60(%rip),%eax        # 1077a4 <height>
  107744:	8d 70 ff             	lea    -0x1(%rax),%esi
  107747:	8b 05 53 00 00 00    	mov    0x53(%rip),%eax        # 1077a0 <width>
  10774d:	0f af c6             	imul   %esi,%eax
  107750:	48 98                	cltq
  107752:	48 01 c0             	add    %rax,%rax
  107755:	48 01 c8             	add    %rcx,%rax
  107758:	be 00 00 00 00       	mov    $0x0,%esi
  10775d:	48 89 c7             	mov    %rax,%rdi
  107760:	e8 bd fb ff ff       	call   107322 <memset>
  107765:	8b 15 55 7a 00 00    	mov    0x7a55(%rip),%edx        # 10f1c0 <cursor>
  10776b:	8b 05 2f 00 00 00    	mov    0x2f(%rip),%eax        # 1077a0 <width>
  107771:	29 c2                	sub    %eax,%edx
  107773:	89 15 47 7a 00 00    	mov    %edx,0x7a47(%rip)        # 10f1c0 <cursor>
  107779:	90                   	nop
  10777a:	c9                   	leave
  10777b:	c3                   	ret
